
/Users/adrianvos/Documents/GitHub/Cizzle/experimental/web-midi/firmware/build-v04-stable-nopicotool/C1ZZL3_v04_stable_experimental.elf:     file format elf32-littlearm

Sections:
Idx Name          Size      VMA       LMA       File off  Algn
  0 .boot2        00000100  10000000  10000000  00001000  2**0
                  CONTENTS, ALLOC, LOAD, READONLY, CODE
  1 .flashtext    00000190  10000100  10000100  00001100  2**2
                  CONTENTS, ALLOC, LOAD, READONLY, CODE
  2 .rodata       00000000  10000290  10000290  00008a48  2**0
                  CONTENTS, ALLOC, LOAD, DATA
  3 .binary_info  0000001c  10000290  10000290  00001290  2**2
                  CONTENTS, ALLOC, LOAD, READONLY, DATA
  4 .ram_vector_table 000000c0  20000000  20000000  00009000  2**2
                  ALLOC
  5 .uninitialized_data 00000000  200000c0  200000c0  00008a48  2**0
                  CONTENTS
  6 .text         00004e5c  200000c0  100002ac  000020c0  2**2
                  CONTENTS, ALLOC, LOAD, READONLY, CODE
  7 .data         00001b28  20004f20  10005108  00006f20  2**4
                  CONTENTS, ALLOC, LOAD, CODE
  8 .tdata        00000000  20006a48  20006a48  00008a48  2**0
                  CONTENTS, ALLOC, LOAD, DATA, THREAD_LOCAL
  9 .tbss         00000000  20006a48  20006a48  00000000  2**0
                  ALLOC, THREAD_LOCAL
 10 .bss          0000074c  20006a48  10006c30  00008a48  2**3
                  ALLOC
 11 .heap         00000800  20007194  10006c30  00009194  2**2
                  ALLOC, READONLY
 12 .scratch_x    00000000  20040000  20040000  00008a48  2**0
                  CONTENTS
 13 .scratch_y    00000000  20041000  20041000  00008a48  2**0
                  CONTENTS
 14 .stack_dummy  00000800  20041000  20041000  00009000  2**5
                  ALLOC, READONLY
 15 .ARM.attributes 00000028  00000000  00000000  00008a48  2**0
                  CONTENTS, READONLY
 16 .comment      00000045  00000000  00000000  00008a70  2**0
                  CONTENTS, READONLY
 17 .debug_info   0002ce53  00000000  00000000  00008ab5  2**0
                  CONTENTS, READONLY, DEBUGGING, OCTETS
 18 .debug_abbrev 000066d7  00000000  00000000  00035908  2**0
                  CONTENTS, READONLY, DEBUGGING, OCTETS
 19 .debug_loclists 0001d072  00000000  00000000  0003bfdf  2**0
                  CONTENTS, READONLY, DEBUGGING, OCTETS
 20 .debug_aranges 00001198  00000000  00000000  00059058  2**3
                  CONTENTS, READONLY, DEBUGGING, OCTETS
 21 .debug_rnglists 00004ef5  00000000  00000000  0005a1f0  2**0
                  CONTENTS, READONLY, DEBUGGING, OCTETS
 22 .debug_line   00021755  00000000  00000000  0005f0e5  2**0
                  CONTENTS, READONLY, DEBUGGING, OCTETS
 23 .debug_str    0000826e  00000000  00000000  0008083a  2**0
                  CONTENTS, READONLY, DEBUGGING, OCTETS
 24 .debug_frame  000022bc  00000000  00000000  00088aa8  2**2
                  CONTENTS, READONLY, DEBUGGING, OCTETS
 25 .debug_line_str 0000035f  00000000  00000000  0008ad64  2**0
                  CONTENTS, READONLY, DEBUGGING, OCTETS

/Users/adrianvos/Documents/GitHub/Cizzle/experimental/web-midi/firmware/build-v04-stable-nopicotool/C1ZZL3_v04_stable_experimental.elf:     file format elf32-littlearm


Disassembly of section .boot2:

10000000 <__boot2_start__>:
10000000:	4b32b500 	.word	0x4b32b500
10000004:	60582021 	.word	0x60582021
10000008:	21026898 	.word	0x21026898
1000000c:	60984388 	.word	0x60984388
10000010:	611860d8 	.word	0x611860d8
10000014:	4b2e6158 	.word	0x4b2e6158
10000018:	60992100 	.word	0x60992100
1000001c:	61592102 	.word	0x61592102
10000020:	22f02101 	.word	0x22f02101
10000024:	492b5099 	.word	0x492b5099
10000028:	21016019 	.word	0x21016019
1000002c:	20356099 	.word	0x20356099
10000030:	f844f000 	.word	0xf844f000
10000034:	42902202 	.word	0x42902202
10000038:	2106d014 	.word	0x2106d014
1000003c:	f0006619 	.word	0xf0006619
10000040:	6e19f834 	.word	0x6e19f834
10000044:	66192101 	.word	0x66192101
10000048:	66182000 	.word	0x66182000
1000004c:	f000661a 	.word	0xf000661a
10000050:	6e19f82c 	.word	0x6e19f82c
10000054:	6e196e19 	.word	0x6e196e19
10000058:	f0002005 	.word	0xf0002005
1000005c:	2101f82f 	.word	0x2101f82f
10000060:	d1f94208 	.word	0xd1f94208
10000064:	60992100 	.word	0x60992100
10000068:	6019491b 	.word	0x6019491b
1000006c:	60592100 	.word	0x60592100
10000070:	481b491a 	.word	0x481b491a
10000074:	21016001 	.word	0x21016001
10000078:	21eb6099 	.word	0x21eb6099
1000007c:	21a06619 	.word	0x21a06619
10000080:	f0006619 	.word	0xf0006619
10000084:	2100f812 	.word	0x2100f812
10000088:	49166099 	.word	0x49166099
1000008c:	60014814 	.word	0x60014814
10000090:	60992101 	.word	0x60992101
10000094:	2800bc01 	.word	0x2800bc01
10000098:	4700d000 	.word	0x4700d000
1000009c:	49134812 	.word	0x49134812
100000a0:	c8036008 	.word	0xc8036008
100000a4:	8808f380 	.word	0x8808f380
100000a8:	b5034708 	.word	0xb5034708
100000ac:	20046a99 	.word	0x20046a99
100000b0:	d0fb4201 	.word	0xd0fb4201
100000b4:	42012001 	.word	0x42012001
100000b8:	bd03d1f8 	.word	0xbd03d1f8
100000bc:	6618b502 	.word	0x6618b502
100000c0:	f7ff6618 	.word	0xf7ff6618
100000c4:	6e18fff2 	.word	0x6e18fff2
100000c8:	bd026e18 	.word	0xbd026e18
100000cc:	40020000 	.word	0x40020000
100000d0:	18000000 	.word	0x18000000
100000d4:	00070000 	.word	0x00070000
100000d8:	005f0300 	.word	0x005f0300
100000dc:	00002221 	.word	0x00002221
100000e0:	180000f4 	.word	0x180000f4
100000e4:	a0002022 	.word	0xa0002022
100000e8:	10000100 	.word	0x10000100
100000ec:	e000ed08 	.word	0xe000ed08
	...
100000fc:	7a4eb274 	.word	0x7a4eb274

Disassembly of section .flashtext:

10000100 <__VECTOR_TABLE>:
10000100:	20042000 	.word	0x20042000
10000104:	100001f7 	.word	0x100001f7
10000108:	100001cb 	.word	0x100001cb
1000010c:	100001cd 	.word	0x100001cd
10000110:	100001c9 	.word	0x100001c9
10000114:	100001c9 	.word	0x100001c9
10000118:	100001c9 	.word	0x100001c9
1000011c:	100001c9 	.word	0x100001c9
10000120:	100001c9 	.word	0x100001c9
10000124:	100001c9 	.word	0x100001c9
10000128:	100001c9 	.word	0x100001c9
1000012c:	100001cf 	.word	0x100001cf
10000130:	100001c9 	.word	0x100001c9
10000134:	100001c9 	.word	0x100001c9
10000138:	100001d1 	.word	0x100001d1
1000013c:	100001d3 	.word	0x100001d3
10000140:	100001c1 	.word	0x100001c1
10000144:	100001c1 	.word	0x100001c1
10000148:	100001c1 	.word	0x100001c1
1000014c:	100001c1 	.word	0x100001c1
10000150:	100001c1 	.word	0x100001c1
10000154:	100001c1 	.word	0x100001c1
10000158:	100001c1 	.word	0x100001c1
1000015c:	100001c1 	.word	0x100001c1
10000160:	100001c1 	.word	0x100001c1
10000164:	100001c1 	.word	0x100001c1
10000168:	100001c1 	.word	0x100001c1
1000016c:	100001c1 	.word	0x100001c1
10000170:	100001c1 	.word	0x100001c1
10000174:	100001c1 	.word	0x100001c1
10000178:	100001c1 	.word	0x100001c1
1000017c:	100001c1 	.word	0x100001c1
10000180:	100001c1 	.word	0x100001c1
10000184:	100001c1 	.word	0x100001c1
10000188:	100001c1 	.word	0x100001c1
1000018c:	100001c1 	.word	0x100001c1
10000190:	100001c1 	.word	0x100001c1
10000194:	100001c1 	.word	0x100001c1
10000198:	100001c1 	.word	0x100001c1
1000019c:	100001c1 	.word	0x100001c1
100001a0:	100001c1 	.word	0x100001c1
100001a4:	100001c1 	.word	0x100001c1
100001a8:	100001c1 	.word	0x100001c1
100001ac:	100001c1 	.word	0x100001c1
100001b0:	100001c1 	.word	0x100001c1
100001b4:	100001c1 	.word	0x100001c1
100001b8:	100001c1 	.word	0x100001c1
100001bc:	100001c1 	.word	0x100001c1

100001c0 <__unhandled_user_irq>:
100001c0:	f3ef 8005 	mrs	r0, IPSR
100001c4:	3810      	subs	r0, #16

100001c6 <unhandled_user_irq_num_in_r0>:
100001c6:	be00      	bkpt	0x0000

100001c8 <isr_invalid>:
100001c8:	be00      	bkpt	0x0000

100001ca <isr_nmi>:
100001ca:	be00      	bkpt	0x0000

100001cc <isr_hardfault>:
100001cc:	be00      	bkpt	0x0000

100001ce <isr_svcall>:
100001ce:	be00      	bkpt	0x0000

100001d0 <isr_pendsv>:
100001d0:	be00      	bkpt	0x0000

100001d2 <isr_systick>:
100001d2:	be00      	bkpt	0x0000

100001d4 <__default_isrs_end>:
100001d4:	7188ebf2 	.word	0x7188ebf2
100001d8:	10000290 	.word	0x10000290
100001dc:	100002ac 	.word	0x100002ac
100001e0:	10000238 	.word	0x10000238
100001e4:	e71aa390 	.word	0xe71aa390

100001e8 <_entry_point>:
100001e8:	4821      	ldr	r0, [pc, #132]	@ (10000270 <data_cpy_table+0x38>)

100001ea <_enter_vtable_in_r0>:
100001ea:	4922      	ldr	r1, [pc, #136]	@ (10000274 <data_cpy_table+0x3c>)
100001ec:	6008      	str	r0, [r1, #0]
100001ee:	c806      	ldmia	r0!, {r1, r2}
100001f0:	f381 8808 	msr	MSP, r1
100001f4:	4710      	bx	r2

100001f6 <_reset_handler>:
100001f6:	4820      	ldr	r0, [pc, #128]	@ (10000278 <data_cpy_table+0x40>)
100001f8:	6800      	ldr	r0, [r0, #0]
100001fa:	2800      	cmp	r0, #0
100001fc:	d001      	beq.n	10000202 <hold_non_core0_in_bootrom+0x4>

100001fe <hold_non_core0_in_bootrom>:
100001fe:	481c      	ldr	r0, [pc, #112]	@ (10000270 <data_cpy_table+0x38>)
10000200:	e7f3      	b.n	100001ea <_enter_vtable_in_r0>
10000202:	a40d      	add	r4, pc, #52	@ (adr r4, 10000238 <data_cpy_table>)
10000204:	cc0e      	ldmia	r4!, {r1, r2, r3}
10000206:	2900      	cmp	r1, #0
10000208:	d002      	beq.n	10000210 <hold_non_core0_in_bootrom+0x12>
1000020a:	f000 f812 	bl	10000232 <data_cpy>
1000020e:	e7f9      	b.n	10000204 <hold_non_core0_in_bootrom+0x6>
10000210:	491a      	ldr	r1, [pc, #104]	@ (1000027c <data_cpy_table+0x44>)
10000212:	4a1b      	ldr	r2, [pc, #108]	@ (10000280 <data_cpy_table+0x48>)
10000214:	2000      	movs	r0, #0
10000216:	e000      	b.n	1000021a <bss_fill_test>

10000218 <bss_fill_loop>:
10000218:	c101      	stmia	r1!, {r0}

1000021a <bss_fill_test>:
1000021a:	4291      	cmp	r1, r2
1000021c:	d1fc      	bne.n	10000218 <bss_fill_loop>

1000021e <platform_entry>:
1000021e:	4919      	ldr	r1, [pc, #100]	@ (10000284 <data_cpy_table+0x4c>)
10000220:	4788      	blx	r1
10000222:	4919      	ldr	r1, [pc, #100]	@ (10000288 <data_cpy_table+0x50>)
10000224:	4788      	blx	r1
10000226:	4919      	ldr	r1, [pc, #100]	@ (1000028c <data_cpy_table+0x54>)
10000228:	4788      	blx	r1
1000022a:	be00      	bkpt	0x0000
1000022c:	e7fd      	b.n	1000022a <platform_entry+0xc>

1000022e <data_cpy_loop>:
1000022e:	c901      	ldmia	r1!, {r0}
10000230:	c201      	stmia	r2!, {r0}

10000232 <data_cpy>:
10000232:	429a      	cmp	r2, r3
10000234:	d3fb      	bcc.n	1000022e <data_cpy_loop>
10000236:	4770      	bx	lr

10000238 <data_cpy_table>:
10000238:	100002ac 	.word	0x100002ac
1000023c:	200000c0 	.word	0x200000c0
10000240:	20004f1c 	.word	0x20004f1c
10000244:	10005108 	.word	0x10005108
10000248:	20004f20 	.word	0x20004f20
1000024c:	20006a48 	.word	0x20006a48
10000250:	10006c30 	.word	0x10006c30
10000254:	20040000 	.word	0x20040000
10000258:	20040000 	.word	0x20040000
1000025c:	10006c30 	.word	0x10006c30
10000260:	20041000 	.word	0x20041000
10000264:	20041000 	.word	0x20041000
10000268:	00000000 	.word	0x00000000
1000026c:	4770      	bx	lr
1000026e:	0000      	.short	0x0000
10000270:	00000000 	.word	0x00000000
10000274:	e000ed08 	.word	0xe000ed08
10000278:	d0000000 	.word	0xd0000000
1000027c:	20006a48 	.word	0x20006a48
10000280:	20007194 	.word	0x20007194
10000284:	2000462d 	.word	0x2000462d
10000288:	20002d45 	.word	0x20002d45
1000028c:	20004625 	.word	0x20004625

Disassembly of section .text:

200000c0 <_init>:
200000c0:	b5f8      	push	{r3, r4, r5, r6, r7, lr}
200000c2:	46c0      	nop			@ (mov r8, r8)

200000c4 <register_tm_clones>:
200000c4:	4806      	ldr	r0, [pc, #24]	@ (200000e0 <register_tm_clones+0x1c>)
200000c6:	4907      	ldr	r1, [pc, #28]	@ (200000e4 <register_tm_clones+0x20>)
200000c8:	1a09      	subs	r1, r1, r0
200000ca:	108b      	asrs	r3, r1, #2
200000cc:	0fc9      	lsrs	r1, r1, #31
200000ce:	18c9      	adds	r1, r1, r3
200000d0:	b510      	push	{r4, lr}
200000d2:	1049      	asrs	r1, r1, #1
200000d4:	d003      	beq.n	200000de <register_tm_clones+0x1a>
200000d6:	4b04      	ldr	r3, [pc, #16]	@ (200000e8 <register_tm_clones+0x24>)
200000d8:	2b00      	cmp	r3, #0
200000da:	d000      	beq.n	200000de <register_tm_clones+0x1a>
200000dc:	4798      	blx	r3
200000de:	bd10      	pop	{r4, pc}
200000e0:	20006a48 	.word	0x20006a48
200000e4:	20006a48 	.word	0x20006a48
200000e8:	00000000 	.word	0x00000000

200000ec <frame_dummy>:
200000ec:	4b05      	ldr	r3, [pc, #20]	@ (20000104 <frame_dummy+0x18>)
200000ee:	b510      	push	{r4, lr}
200000f0:	2b00      	cmp	r3, #0
200000f2:	d003      	beq.n	200000fc <frame_dummy+0x10>
200000f4:	4904      	ldr	r1, [pc, #16]	@ (20000108 <frame_dummy+0x1c>)
200000f6:	4805      	ldr	r0, [pc, #20]	@ (2000010c <frame_dummy+0x20>)
200000f8:	e000      	b.n	200000fc <frame_dummy+0x10>
200000fa:	bf00      	nop
200000fc:	f7ff ffe2 	bl	200000c4 <register_tm_clones>
20000100:	bd10      	pop	{r4, pc}
20000102:	46c0      	nop			@ (mov r8, r8)
20000104:	00000000 	.word	0x00000000
20000108:	20007158 	.word	0x20007158
2000010c:	20004f1c 	.word	0x20004f1c

20000110 <_ZN12ComputerCard11OnCVPWMWrapEv>:
20000110:	23a4      	movs	r3, #164	@ 0xa4
20000112:	2108      	movs	r1, #8
20000114:	b530      	push	{r4, r5, lr}
20000116:	24ff      	movs	r4, #255	@ 0xff
20000118:	4a13      	ldr	r2, [pc, #76]	@ (20000168 <_ZN12ComputerCard11OnCVPWMWrapEv+0x58>)
2000011a:	4814      	ldr	r0, [pc, #80]	@ (2000016c <_ZN12ComputerCard11OnCVPWMWrapEv+0x5c>)
2000011c:	50d1      	str	r1, [r2, r3]
2000011e:	4914      	ldr	r1, [pc, #80]	@ (20000170 <_ZN12ComputerCard11OnCVPWMWrapEv+0x60>)
20000120:	6802      	ldr	r2, [r0, #0]
20000122:	680b      	ldr	r3, [r1, #0]
20000124:	680d      	ldr	r5, [r1, #0]
20000126:	1a9b      	subs	r3, r3, r2
20000128:	43a3      	bics	r3, r4
2000012a:	1b52      	subs	r2, r2, r5
2000012c:	18d2      	adds	r2, r2, r3
2000012e:	6002      	str	r2, [r0, #0]
20000130:	4a10      	ldr	r2, [pc, #64]	@ (20000174 <_ZN12ComputerCard11OnCVPWMWrapEv+0x64>)
20000132:	021b      	lsls	r3, r3, #8
20000134:	4694      	mov	ip, r2
20000136:	6812      	ldr	r2, [r2, #0]
20000138:	480f      	ldr	r0, [pc, #60]	@ (20000178 <_ZN12ComputerCard11OnCVPWMWrapEv+0x68>)
2000013a:	4053      	eors	r3, r2
2000013c:	0c1b      	lsrs	r3, r3, #16
2000013e:	4d0f      	ldr	r5, [pc, #60]	@ (2000017c <_ZN12ComputerCard11OnCVPWMWrapEv+0x6c>)
20000140:	041b      	lsls	r3, r3, #16
20000142:	6003      	str	r3, [r0, #0]
20000144:	682a      	ldr	r2, [r5, #0]
20000146:	684b      	ldr	r3, [r1, #4]
20000148:	6849      	ldr	r1, [r1, #4]
2000014a:	1a9b      	subs	r3, r3, r2
2000014c:	43a3      	bics	r3, r4
2000014e:	1a52      	subs	r2, r2, r1
20000150:	18d2      	adds	r2, r2, r3
20000152:	602a      	str	r2, [r5, #0]
20000154:	4662      	mov	r2, ip
20000156:	021b      	lsls	r3, r3, #8
20000158:	6812      	ldr	r2, [r2, #0]
2000015a:	0c1b      	lsrs	r3, r3, #16
2000015c:	4053      	eors	r3, r2
2000015e:	041b      	lsls	r3, r3, #16
20000160:	0c1b      	lsrs	r3, r3, #16
20000162:	6003      	str	r3, [r0, #0]
20000164:	bd30      	pop	{r4, r5, pc}
20000166:	46c0      	nop			@ (mov r8, r8)
20000168:	40050000 	.word	0x40050000
2000016c:	20007018 	.word	0x20007018
20000170:	20006958 	.word	0x20006958
20000174:	40050048 	.word	0x40050048
20000178:	40051048 	.word	0x40051048
2000017c:	2000701c 	.word	0x2000701c

20000180 <_ZN12ComputerCard18ReadByteFromEEPROMEjRb.constprop.0>:
20000180:	b5f0      	push	{r4, r5, r6, r7, lr}
20000182:	2350      	movs	r3, #80	@ 0x50
20000184:	b087      	sub	sp, #28
20000186:	2517      	movs	r5, #23
20000188:	466a      	mov	r2, sp
2000018a:	0504      	lsls	r4, r0, #20
2000018c:	0f24      	lsrs	r4, r4, #28
2000018e:	431c      	orrs	r4, r3
20000190:	446d      	add	r5, sp
20000192:	33af      	adds	r3, #175	@ 0xaf
20000194:	7593      	strb	r3, [r2, #22]
20000196:	000f      	movs	r7, r1
20000198:	7028      	strb	r0, [r5, #0]
2000019a:	f003 fd5f 	bl	20003c5c <time_us_64>
2000019e:	2300      	movs	r3, #0
200001a0:	4a19      	ldr	r2, [pc, #100]	@ (20000208 <_ZN12ComputerCard18ReadByteFromEEPROMEjRb.constprop.0+0x88>)
200001a2:	1880      	adds	r0, r0, r2
200001a4:	4159      	adcs	r1, r3
200001a6:	2900      	cmp	r1, #0
200001a8:	da02      	bge.n	200001b0 <_ZN12ComputerCard18ReadByteFromEEPROMEjRb.constprop.0+0x30>
200001aa:	2001      	movs	r0, #1
200001ac:	4917      	ldr	r1, [pc, #92]	@ (2000020c <_ZN12ComputerCard18ReadByteFromEEPROMEjRb.constprop.0+0x8c>)
200001ae:	4240      	negs	r0, r0
200001b0:	2300      	movs	r3, #0
200001b2:	9002      	str	r0, [sp, #8]
200001b4:	9103      	str	r1, [sp, #12]
200001b6:	9300      	str	r3, [sp, #0]
200001b8:	002a      	movs	r2, r5
200001ba:	0021      	movs	r1, r4
200001bc:	4814      	ldr	r0, [pc, #80]	@ (20000210 <_ZN12ComputerCard18ReadByteFromEEPROMEjRb.constprop.0+0x90>)
200001be:	3301      	adds	r3, #1
200001c0:	f004 fe38 	bl	20004e34 <i2c_write_blocking_until>
200001c4:	2800      	cmp	r0, #0
200001c6:	dd1a      	ble.n	200001fe <_ZN12ComputerCard18ReadByteFromEEPROMEjRb.constprop.0+0x7e>
200001c8:	f003 fd48 	bl	20003c5c <time_us_64>
200001cc:	2300      	movs	r3, #0
200001ce:	4a0e      	ldr	r2, [pc, #56]	@ (20000208 <_ZN12ComputerCard18ReadByteFromEEPROMEjRb.constprop.0+0x88>)
200001d0:	1880      	adds	r0, r0, r2
200001d2:	4159      	adcs	r1, r3
200001d4:	2900      	cmp	r1, #0
200001d6:	da02      	bge.n	200001de <_ZN12ComputerCard18ReadByteFromEEPROMEjRb.constprop.0+0x5e>
200001d8:	2001      	movs	r0, #1
200001da:	490c      	ldr	r1, [pc, #48]	@ (2000020c <_ZN12ComputerCard18ReadByteFromEEPROMEjRb.constprop.0+0x8c>)
200001dc:	4240      	negs	r0, r0
200001de:	2300      	movs	r3, #0
200001e0:	2216      	movs	r2, #22
200001e2:	9002      	str	r0, [sp, #8]
200001e4:	9103      	str	r1, [sp, #12]
200001e6:	9300      	str	r3, [sp, #0]
200001e8:	0021      	movs	r1, r4
200001ea:	4809      	ldr	r0, [pc, #36]	@ (20000210 <_ZN12ComputerCard18ReadByteFromEEPROMEjRb.constprop.0+0x90>)
200001ec:	3301      	adds	r3, #1
200001ee:	446a      	add	r2, sp
200001f0:	f004 fe40 	bl	20004e74 <i2c_read_blocking_until>
200001f4:	2800      	cmp	r0, #0
200001f6:	dd02      	ble.n	200001fe <_ZN12ComputerCard18ReadByteFromEEPROMEjRb.constprop.0+0x7e>
200001f8:	466b      	mov	r3, sp
200001fa:	7d98      	ldrb	r0, [r3, #22]
200001fc:	e002      	b.n	20000204 <_ZN12ComputerCard18ReadByteFromEEPROMEjRb.constprop.0+0x84>
200001fe:	2301      	movs	r3, #1
20000200:	2000      	movs	r0, #0
20000202:	703b      	strb	r3, [r7, #0]
20000204:	b007      	add	sp, #28
20000206:	bdf0      	pop	{r4, r5, r6, r7, pc}
20000208:	00002710 	.word	0x00002710
2000020c:	7fffffff 	.word	0x7fffffff
20000210:	200069f0 	.word	0x200069f0

20000214 <_ZN12ComputerCard13AudioCallbackEv>:
20000214:	b510      	push	{r4, lr}
20000216:	4b02      	ldr	r3, [pc, #8]	@ (20000220 <_ZN12ComputerCard13AudioCallbackEv+0xc>)
20000218:	6818      	ldr	r0, [r3, #0]
2000021a:	f004 ff6d 	bl	200050f8 <_ZN12ComputerCard10BufferFullEv>
2000021e:	bd10      	pop	{r4, pc}
20000220:	20006ff0 	.word	0x20006ff0

20000224 <_ZN12ComputerCard20ProbeHardwareVersionEv>:
20000224:	b570      	push	{r4, r5, r6, lr}
20000226:	25d0      	movs	r5, #208	@ 0xd0
20000228:	2201      	movs	r2, #1
2000022a:	2100      	movs	r1, #0
2000022c:	2007      	movs	r0, #7
2000022e:	f002 fe9b 	bl	20002f68 <gpio_set_pulls>
20000232:	2201      	movs	r2, #1
20000234:	2100      	movs	r1, #0
20000236:	2006      	movs	r0, #6
20000238:	f002 fe96 	bl	20002f68 <gpio_set_pulls>
2000023c:	2201      	movs	r2, #1
2000023e:	2100      	movs	r1, #0
20000240:	2005      	movs	r0, #5
20000242:	062d      	lsls	r5, r5, #24
20000244:	f002 fe90 	bl	20002f68 <gpio_set_pulls>
20000248:	2001      	movs	r0, #1
2000024a:	2100      	movs	r1, #0
2000024c:	f003 fbe4 	bl	20003a18 <sleep_us>
20000250:	686a      	ldr	r2, [r5, #4]
20000252:	686c      	ldr	r4, [r5, #4]
20000254:	686b      	ldr	r3, [r5, #4]
20000256:	0664      	lsls	r4, r4, #25
20000258:	069b      	lsls	r3, r3, #26
2000025a:	0fe4      	lsrs	r4, r4, #31
2000025c:	0fdb      	lsrs	r3, r3, #31
2000025e:	011b      	lsls	r3, r3, #4
20000260:	00a4      	lsls	r4, r4, #2
20000262:	431c      	orrs	r4, r3
20000264:	0613      	lsls	r3, r2, #24
20000266:	0fdb      	lsrs	r3, r3, #31
20000268:	2200      	movs	r2, #0
2000026a:	2101      	movs	r1, #1
2000026c:	2007      	movs	r0, #7
2000026e:	431c      	orrs	r4, r3
20000270:	f002 fe7a 	bl	20002f68 <gpio_set_pulls>
20000274:	2200      	movs	r2, #0
20000276:	2101      	movs	r1, #1
20000278:	2006      	movs	r0, #6
2000027a:	f002 fe75 	bl	20002f68 <gpio_set_pulls>
2000027e:	2200      	movs	r2, #0
20000280:	2101      	movs	r1, #1
20000282:	2005      	movs	r0, #5
20000284:	f002 fe70 	bl	20002f68 <gpio_set_pulls>
20000288:	2001      	movs	r0, #1
2000028a:	2100      	movs	r1, #0
2000028c:	f003 fbc4 	bl	20003a18 <sleep_us>
20000290:	6869      	ldr	r1, [r5, #4]
20000292:	686a      	ldr	r2, [r5, #4]
20000294:	0609      	lsls	r1, r1, #24
20000296:	686b      	ldr	r3, [r5, #4]
20000298:	0fc9      	lsrs	r1, r1, #31
2000029a:	0652      	lsls	r2, r2, #25
2000029c:	0049      	lsls	r1, r1, #1
2000029e:	0fd2      	lsrs	r2, r2, #31
200002a0:	069b      	lsls	r3, r3, #26
200002a2:	430c      	orrs	r4, r1
200002a4:	00d2      	lsls	r2, r2, #3
200002a6:	0fdb      	lsrs	r3, r3, #31
200002a8:	015b      	lsls	r3, r3, #5
200002aa:	2100      	movs	r1, #0
200002ac:	2007      	movs	r0, #7
200002ae:	4314      	orrs	r4, r2
200002b0:	2201      	movs	r2, #1
200002b2:	431c      	orrs	r4, r3
200002b4:	f002 fe58 	bl	20002f68 <gpio_set_pulls>
200002b8:	2201      	movs	r2, #1
200002ba:	2100      	movs	r1, #0
200002bc:	2006      	movs	r0, #6
200002be:	f002 fe53 	bl	20002f68 <gpio_set_pulls>
200002c2:	b264      	sxtb	r4, r4
200002c4:	2201      	movs	r2, #1
200002c6:	2100      	movs	r1, #0
200002c8:	2005      	movs	r0, #5
200002ca:	f002 fe4d 	bl	20002f68 <gpio_set_pulls>
200002ce:	2c2a      	cmp	r4, #42	@ 0x2a
200002d0:	d005      	beq.n	200002de <_ZN12ComputerCard20ProbeHardwareVersionEv+0xba>
200002d2:	2c30      	cmp	r4, #48	@ 0x30
200002d4:	d003      	beq.n	200002de <_ZN12ComputerCard20ProbeHardwareVersionEv+0xba>
200002d6:	20ff      	movs	r0, #255	@ 0xff
200002d8:	2c0c      	cmp	r4, #12
200002da:	d000      	beq.n	200002de <_ZN12ComputerCard20ProbeHardwareVersionEv+0xba>
200002dc:	bd70      	pop	{r4, r5, r6, pc}
200002de:	b2e0      	uxtb	r0, r4
200002e0:	e7fc      	b.n	200002dc <_ZN12ComputerCard20ProbeHardwareVersionEv+0xb8>
200002e2:	46c0      	nop			@ (mov r8, r8)

200002e4 <_ZN12ComputerCard13CalcCalCoeffsEi>:
200002e4:	b5f0      	push	{r4, r5, r6, r7, lr}
200002e6:	464e      	mov	r6, r9
200002e8:	46de      	mov	lr, fp
200002ea:	4657      	mov	r7, sl
200002ec:	4645      	mov	r5, r8
200002ee:	b5e0      	push	{r5, r6, r7, lr}
200002f0:	1843      	adds	r3, r0, r1
200002f2:	3324      	adds	r3, #36	@ 0x24
200002f4:	781b      	ldrb	r3, [r3, #0]
200002f6:	b085      	sub	sp, #20
200002f8:	4699      	mov	r9, r3
200002fa:	9001      	str	r0, [sp, #4]
200002fc:	9102      	str	r1, [sp, #8]
200002fe:	2b00      	cmp	r3, #0
20000300:	d100      	bne.n	20000304 <_ZN12ComputerCard13CalcCalCoeffsEi+0x20>
20000302:	e229      	b.n	20000758 <_ZN12ComputerCard13CalcCalCoeffsEi+0x474>
20000304:	4680      	mov	r8, r0
20000306:	008b      	lsls	r3, r1, #2
20000308:	9303      	str	r3, [sp, #12]
2000030a:	185b      	adds	r3, r3, r1
2000030c:	011b      	lsls	r3, r3, #4
2000030e:	4498      	add	r8, r3
20000310:	4644      	mov	r4, r8
20000312:	202c      	movs	r0, #44	@ 0x2c
20000314:	5620      	ldrsb	r0, [r4, r0]
20000316:	f004 f89f 	bl	20004458 <__wrap___aeabi_i2f>
2000031a:	49db      	ldr	r1, [pc, #876]	@ (20000688 <_ZN12ComputerCard13CalcCalCoeffsEi+0x3a4>)
2000031c:	f004 f865 	bl	200043ea <__wrap___aeabi_fmul>
20000320:	4645      	mov	r5, r8
20000322:	1c04      	adds	r4, r0, #0
20000324:	6aa8      	ldr	r0, [r5, #40]	@ 0x28
20000326:	f004 f897 	bl	20004458 <__wrap___aeabi_i2f>
2000032a:	1c21      	adds	r1, r4, #0
2000032c:	1c05      	adds	r5, r0, #0
2000032e:	1c20      	adds	r0, r4, #0
20000330:	f004 f85b 	bl	200043ea <__wrap___aeabi_fmul>
20000334:	1c21      	adds	r1, r4, #0
20000336:	1c06      	adds	r6, r0, #0
20000338:	1c28      	adds	r0, r5, #0
2000033a:	f004 f856 	bl	200043ea <__wrap___aeabi_fmul>
2000033e:	464a      	mov	r2, r9
20000340:	1c07      	adds	r7, r0, #0
20000342:	2a01      	cmp	r2, #1
20000344:	d100      	bne.n	20000348 <_ZN12ComputerCard13CalcCalCoeffsEi+0x64>
20000346:	e1a1      	b.n	2000068c <_ZN12ComputerCard13CalcCalCoeffsEi+0x3a8>
20000348:	4642      	mov	r2, r8
2000034a:	2034      	movs	r0, #52	@ 0x34
2000034c:	5610      	ldrsb	r0, [r2, r0]
2000034e:	f004 f883 	bl	20004458 <__wrap___aeabi_i2f>
20000352:	49cd      	ldr	r1, [pc, #820]	@ (20000688 <_ZN12ComputerCard13CalcCalCoeffsEi+0x3a4>)
20000354:	f004 f849 	bl	200043ea <__wrap___aeabi_fmul>
20000358:	4642      	mov	r2, r8
2000035a:	4682      	mov	sl, r0
2000035c:	6b10      	ldr	r0, [r2, #48]	@ 0x30
2000035e:	f004 f87b 	bl	20004458 <__wrap___aeabi_i2f>
20000362:	4651      	mov	r1, sl
20000364:	4683      	mov	fp, r0
20000366:	1c20      	adds	r0, r4, #0
20000368:	f004 f828 	bl	200043bc <__wrap___aeabi_fadd>
2000036c:	4659      	mov	r1, fp
2000036e:	1c04      	adds	r4, r0, #0
20000370:	1c28      	adds	r0, r5, #0
20000372:	f004 f823 	bl	200043bc <__wrap___aeabi_fadd>
20000376:	4651      	mov	r1, sl
20000378:	1c05      	adds	r5, r0, #0
2000037a:	4650      	mov	r0, sl
2000037c:	f004 f835 	bl	200043ea <__wrap___aeabi_fmul>
20000380:	1c01      	adds	r1, r0, #0
20000382:	1c30      	adds	r0, r6, #0
20000384:	f004 f81a 	bl	200043bc <__wrap___aeabi_fadd>
20000388:	4651      	mov	r1, sl
2000038a:	1c06      	adds	r6, r0, #0
2000038c:	4658      	mov	r0, fp
2000038e:	f004 f82c 	bl	200043ea <__wrap___aeabi_fmul>
20000392:	1c01      	adds	r1, r0, #0
20000394:	1c38      	adds	r0, r7, #0
20000396:	f004 f811 	bl	200043bc <__wrap___aeabi_fadd>
2000039a:	464a      	mov	r2, r9
2000039c:	1c07      	adds	r7, r0, #0
2000039e:	2a02      	cmp	r2, #2
200003a0:	d100      	bne.n	200003a4 <_ZN12ComputerCard13CalcCalCoeffsEi+0xc0>
200003a2:	e173      	b.n	2000068c <_ZN12ComputerCard13CalcCalCoeffsEi+0x3a8>
200003a4:	4642      	mov	r2, r8
200003a6:	203c      	movs	r0, #60	@ 0x3c
200003a8:	5610      	ldrsb	r0, [r2, r0]
200003aa:	f004 f855 	bl	20004458 <__wrap___aeabi_i2f>
200003ae:	49b6      	ldr	r1, [pc, #728]	@ (20000688 <_ZN12ComputerCard13CalcCalCoeffsEi+0x3a4>)
200003b0:	f004 f81b 	bl	200043ea <__wrap___aeabi_fmul>
200003b4:	4642      	mov	r2, r8
200003b6:	4682      	mov	sl, r0
200003b8:	6b90      	ldr	r0, [r2, #56]	@ 0x38
200003ba:	f004 f84d 	bl	20004458 <__wrap___aeabi_i2f>
200003be:	4651      	mov	r1, sl
200003c0:	4683      	mov	fp, r0
200003c2:	1c20      	adds	r0, r4, #0
200003c4:	f003 fffa 	bl	200043bc <__wrap___aeabi_fadd>
200003c8:	4659      	mov	r1, fp
200003ca:	1c04      	adds	r4, r0, #0
200003cc:	1c28      	adds	r0, r5, #0
200003ce:	f003 fff5 	bl	200043bc <__wrap___aeabi_fadd>
200003d2:	4651      	mov	r1, sl
200003d4:	1c05      	adds	r5, r0, #0
200003d6:	4650      	mov	r0, sl
200003d8:	f004 f807 	bl	200043ea <__wrap___aeabi_fmul>
200003dc:	1c01      	adds	r1, r0, #0
200003de:	1c30      	adds	r0, r6, #0
200003e0:	f003 ffec 	bl	200043bc <__wrap___aeabi_fadd>
200003e4:	4651      	mov	r1, sl
200003e6:	1c06      	adds	r6, r0, #0
200003e8:	4658      	mov	r0, fp
200003ea:	f003 fffe 	bl	200043ea <__wrap___aeabi_fmul>
200003ee:	1c01      	adds	r1, r0, #0
200003f0:	1c38      	adds	r0, r7, #0
200003f2:	f003 ffe3 	bl	200043bc <__wrap___aeabi_fadd>
200003f6:	464a      	mov	r2, r9
200003f8:	1c07      	adds	r7, r0, #0
200003fa:	2a03      	cmp	r2, #3
200003fc:	d100      	bne.n	20000400 <_ZN12ComputerCard13CalcCalCoeffsEi+0x11c>
200003fe:	e145      	b.n	2000068c <_ZN12ComputerCard13CalcCalCoeffsEi+0x3a8>
20000400:	4642      	mov	r2, r8
20000402:	2044      	movs	r0, #68	@ 0x44
20000404:	5610      	ldrsb	r0, [r2, r0]
20000406:	f004 f827 	bl	20004458 <__wrap___aeabi_i2f>
2000040a:	499f      	ldr	r1, [pc, #636]	@ (20000688 <_ZN12ComputerCard13CalcCalCoeffsEi+0x3a4>)
2000040c:	f003 ffed 	bl	200043ea <__wrap___aeabi_fmul>
20000410:	4642      	mov	r2, r8
20000412:	4682      	mov	sl, r0
20000414:	6c10      	ldr	r0, [r2, #64]	@ 0x40
20000416:	f004 f81f 	bl	20004458 <__wrap___aeabi_i2f>
2000041a:	4651      	mov	r1, sl
2000041c:	4683      	mov	fp, r0
2000041e:	1c20      	adds	r0, r4, #0
20000420:	f003 ffcc 	bl	200043bc <__wrap___aeabi_fadd>
20000424:	4659      	mov	r1, fp
20000426:	1c04      	adds	r4, r0, #0
20000428:	1c28      	adds	r0, r5, #0
2000042a:	f003 ffc7 	bl	200043bc <__wrap___aeabi_fadd>
2000042e:	4651      	mov	r1, sl
20000430:	1c05      	adds	r5, r0, #0
20000432:	4650      	mov	r0, sl
20000434:	f003 ffd9 	bl	200043ea <__wrap___aeabi_fmul>
20000438:	1c01      	adds	r1, r0, #0
2000043a:	1c30      	adds	r0, r6, #0
2000043c:	f003 ffbe 	bl	200043bc <__wrap___aeabi_fadd>
20000440:	4659      	mov	r1, fp
20000442:	1c06      	adds	r6, r0, #0
20000444:	4650      	mov	r0, sl
20000446:	f003 ffd0 	bl	200043ea <__wrap___aeabi_fmul>
2000044a:	1c01      	adds	r1, r0, #0
2000044c:	1c38      	adds	r0, r7, #0
2000044e:	f003 ffb5 	bl	200043bc <__wrap___aeabi_fadd>
20000452:	464a      	mov	r2, r9
20000454:	1c07      	adds	r7, r0, #0
20000456:	2a04      	cmp	r2, #4
20000458:	d100      	bne.n	2000045c <_ZN12ComputerCard13CalcCalCoeffsEi+0x178>
2000045a:	e117      	b.n	2000068c <_ZN12ComputerCard13CalcCalCoeffsEi+0x3a8>
2000045c:	4642      	mov	r2, r8
2000045e:	204c      	movs	r0, #76	@ 0x4c
20000460:	5610      	ldrsb	r0, [r2, r0]
20000462:	f003 fff9 	bl	20004458 <__wrap___aeabi_i2f>
20000466:	4988      	ldr	r1, [pc, #544]	@ (20000688 <_ZN12ComputerCard13CalcCalCoeffsEi+0x3a4>)
20000468:	f003 ffbf 	bl	200043ea <__wrap___aeabi_fmul>
2000046c:	4642      	mov	r2, r8
2000046e:	4682      	mov	sl, r0
20000470:	6c90      	ldr	r0, [r2, #72]	@ 0x48
20000472:	f003 fff1 	bl	20004458 <__wrap___aeabi_i2f>
20000476:	4651      	mov	r1, sl
20000478:	4683      	mov	fp, r0
2000047a:	1c20      	adds	r0, r4, #0
2000047c:	f003 ff9e 	bl	200043bc <__wrap___aeabi_fadd>
20000480:	4659      	mov	r1, fp
20000482:	1c04      	adds	r4, r0, #0
20000484:	1c28      	adds	r0, r5, #0
20000486:	f003 ff99 	bl	200043bc <__wrap___aeabi_fadd>
2000048a:	4651      	mov	r1, sl
2000048c:	1c05      	adds	r5, r0, #0
2000048e:	4650      	mov	r0, sl
20000490:	f003 ffab 	bl	200043ea <__wrap___aeabi_fmul>
20000494:	1c01      	adds	r1, r0, #0
20000496:	1c30      	adds	r0, r6, #0
20000498:	f003 ff90 	bl	200043bc <__wrap___aeabi_fadd>
2000049c:	4659      	mov	r1, fp
2000049e:	1c06      	adds	r6, r0, #0
200004a0:	4650      	mov	r0, sl
200004a2:	f003 ffa2 	bl	200043ea <__wrap___aeabi_fmul>
200004a6:	1c01      	adds	r1, r0, #0
200004a8:	1c38      	adds	r0, r7, #0
200004aa:	f003 ff87 	bl	200043bc <__wrap___aeabi_fadd>
200004ae:	464a      	mov	r2, r9
200004b0:	1c07      	adds	r7, r0, #0
200004b2:	2a05      	cmp	r2, #5
200004b4:	d100      	bne.n	200004b8 <_ZN12ComputerCard13CalcCalCoeffsEi+0x1d4>
200004b6:	e0e9      	b.n	2000068c <_ZN12ComputerCard13CalcCalCoeffsEi+0x3a8>
200004b8:	2354      	movs	r3, #84	@ 0x54
200004ba:	4642      	mov	r2, r8
200004bc:	56d0      	ldrsb	r0, [r2, r3]
200004be:	f003 ffcb 	bl	20004458 <__wrap___aeabi_i2f>
200004c2:	4971      	ldr	r1, [pc, #452]	@ (20000688 <_ZN12ComputerCard13CalcCalCoeffsEi+0x3a4>)
200004c4:	f003 ff91 	bl	200043ea <__wrap___aeabi_fmul>
200004c8:	4642      	mov	r2, r8
200004ca:	4682      	mov	sl, r0
200004cc:	6d10      	ldr	r0, [r2, #80]	@ 0x50
200004ce:	f003 ffc3 	bl	20004458 <__wrap___aeabi_i2f>
200004d2:	4651      	mov	r1, sl
200004d4:	4683      	mov	fp, r0
200004d6:	1c20      	adds	r0, r4, #0
200004d8:	f003 ff70 	bl	200043bc <__wrap___aeabi_fadd>
200004dc:	4659      	mov	r1, fp
200004de:	1c04      	adds	r4, r0, #0
200004e0:	1c28      	adds	r0, r5, #0
200004e2:	f003 ff6b 	bl	200043bc <__wrap___aeabi_fadd>
200004e6:	4651      	mov	r1, sl
200004e8:	1c05      	adds	r5, r0, #0
200004ea:	4650      	mov	r0, sl
200004ec:	f003 ff7d 	bl	200043ea <__wrap___aeabi_fmul>
200004f0:	1c01      	adds	r1, r0, #0
200004f2:	1c30      	adds	r0, r6, #0
200004f4:	f003 ff62 	bl	200043bc <__wrap___aeabi_fadd>
200004f8:	4659      	mov	r1, fp
200004fa:	1c06      	adds	r6, r0, #0
200004fc:	4650      	mov	r0, sl
200004fe:	f003 ff74 	bl	200043ea <__wrap___aeabi_fmul>
20000502:	1c01      	adds	r1, r0, #0
20000504:	1c38      	adds	r0, r7, #0
20000506:	f003 ff59 	bl	200043bc <__wrap___aeabi_fadd>
2000050a:	464a      	mov	r2, r9
2000050c:	1c07      	adds	r7, r0, #0
2000050e:	2a06      	cmp	r2, #6
20000510:	d100      	bne.n	20000514 <_ZN12ComputerCard13CalcCalCoeffsEi+0x230>
20000512:	e0bb      	b.n	2000068c <_ZN12ComputerCard13CalcCalCoeffsEi+0x3a8>
20000514:	4642      	mov	r2, r8
20000516:	205c      	movs	r0, #92	@ 0x5c
20000518:	5610      	ldrsb	r0, [r2, r0]
2000051a:	f003 ff9d 	bl	20004458 <__wrap___aeabi_i2f>
2000051e:	495a      	ldr	r1, [pc, #360]	@ (20000688 <_ZN12ComputerCard13CalcCalCoeffsEi+0x3a4>)
20000520:	f003 ff63 	bl	200043ea <__wrap___aeabi_fmul>
20000524:	4642      	mov	r2, r8
20000526:	4682      	mov	sl, r0
20000528:	6d90      	ldr	r0, [r2, #88]	@ 0x58
2000052a:	f003 ff95 	bl	20004458 <__wrap___aeabi_i2f>
2000052e:	4651      	mov	r1, sl
20000530:	4683      	mov	fp, r0
20000532:	1c20      	adds	r0, r4, #0
20000534:	f003 ff42 	bl	200043bc <__wrap___aeabi_fadd>
20000538:	4659      	mov	r1, fp
2000053a:	1c04      	adds	r4, r0, #0
2000053c:	1c28      	adds	r0, r5, #0
2000053e:	f003 ff3d 	bl	200043bc <__wrap___aeabi_fadd>
20000542:	4651      	mov	r1, sl
20000544:	1c05      	adds	r5, r0, #0
20000546:	4650      	mov	r0, sl
20000548:	f003 ff4f 	bl	200043ea <__wrap___aeabi_fmul>
2000054c:	1c01      	adds	r1, r0, #0
2000054e:	1c30      	adds	r0, r6, #0
20000550:	f003 ff34 	bl	200043bc <__wrap___aeabi_fadd>
20000554:	4659      	mov	r1, fp
20000556:	1c06      	adds	r6, r0, #0
20000558:	4650      	mov	r0, sl
2000055a:	f003 ff46 	bl	200043ea <__wrap___aeabi_fmul>
2000055e:	1c01      	adds	r1, r0, #0
20000560:	1c38      	adds	r0, r7, #0
20000562:	f003 ff2b 	bl	200043bc <__wrap___aeabi_fadd>
20000566:	464a      	mov	r2, r9
20000568:	1c07      	adds	r7, r0, #0
2000056a:	2a07      	cmp	r2, #7
2000056c:	d100      	bne.n	20000570 <_ZN12ComputerCard13CalcCalCoeffsEi+0x28c>
2000056e:	e08d      	b.n	2000068c <_ZN12ComputerCard13CalcCalCoeffsEi+0x3a8>
20000570:	4642      	mov	r2, r8
20000572:	2064      	movs	r0, #100	@ 0x64
20000574:	5610      	ldrsb	r0, [r2, r0]
20000576:	f003 ff6f 	bl	20004458 <__wrap___aeabi_i2f>
2000057a:	4943      	ldr	r1, [pc, #268]	@ (20000688 <_ZN12ComputerCard13CalcCalCoeffsEi+0x3a4>)
2000057c:	f003 ff35 	bl	200043ea <__wrap___aeabi_fmul>
20000580:	4642      	mov	r2, r8
20000582:	4682      	mov	sl, r0
20000584:	6e10      	ldr	r0, [r2, #96]	@ 0x60
20000586:	f003 ff67 	bl	20004458 <__wrap___aeabi_i2f>
2000058a:	4651      	mov	r1, sl
2000058c:	4683      	mov	fp, r0
2000058e:	1c20      	adds	r0, r4, #0
20000590:	f003 ff14 	bl	200043bc <__wrap___aeabi_fadd>
20000594:	4659      	mov	r1, fp
20000596:	1c04      	adds	r4, r0, #0
20000598:	1c28      	adds	r0, r5, #0
2000059a:	f003 ff0f 	bl	200043bc <__wrap___aeabi_fadd>
2000059e:	4651      	mov	r1, sl
200005a0:	1c05      	adds	r5, r0, #0
200005a2:	4650      	mov	r0, sl
200005a4:	f003 ff21 	bl	200043ea <__wrap___aeabi_fmul>
200005a8:	1c01      	adds	r1, r0, #0
200005aa:	1c30      	adds	r0, r6, #0
200005ac:	f003 ff06 	bl	200043bc <__wrap___aeabi_fadd>
200005b0:	4659      	mov	r1, fp
200005b2:	1c06      	adds	r6, r0, #0
200005b4:	4650      	mov	r0, sl
200005b6:	f003 ff18 	bl	200043ea <__wrap___aeabi_fmul>
200005ba:	1c01      	adds	r1, r0, #0
200005bc:	1c38      	adds	r0, r7, #0
200005be:	f003 fefd 	bl	200043bc <__wrap___aeabi_fadd>
200005c2:	464a      	mov	r2, r9
200005c4:	1c07      	adds	r7, r0, #0
200005c6:	2a08      	cmp	r2, #8
200005c8:	d060      	beq.n	2000068c <_ZN12ComputerCard13CalcCalCoeffsEi+0x3a8>
200005ca:	4642      	mov	r2, r8
200005cc:	206c      	movs	r0, #108	@ 0x6c
200005ce:	5610      	ldrsb	r0, [r2, r0]
200005d0:	f003 ff42 	bl	20004458 <__wrap___aeabi_i2f>
200005d4:	492c      	ldr	r1, [pc, #176]	@ (20000688 <_ZN12ComputerCard13CalcCalCoeffsEi+0x3a4>)
200005d6:	f003 ff08 	bl	200043ea <__wrap___aeabi_fmul>
200005da:	4642      	mov	r2, r8
200005dc:	4682      	mov	sl, r0
200005de:	6e90      	ldr	r0, [r2, #104]	@ 0x68
200005e0:	f003 ff3a 	bl	20004458 <__wrap___aeabi_i2f>
200005e4:	4651      	mov	r1, sl
200005e6:	4680      	mov	r8, r0
200005e8:	1c20      	adds	r0, r4, #0
200005ea:	f003 fee7 	bl	200043bc <__wrap___aeabi_fadd>
200005ee:	4641      	mov	r1, r8
200005f0:	1c04      	adds	r4, r0, #0
200005f2:	1c28      	adds	r0, r5, #0
200005f4:	f003 fee2 	bl	200043bc <__wrap___aeabi_fadd>
200005f8:	4651      	mov	r1, sl
200005fa:	1c05      	adds	r5, r0, #0
200005fc:	4650      	mov	r0, sl
200005fe:	f003 fef4 	bl	200043ea <__wrap___aeabi_fmul>
20000602:	1c01      	adds	r1, r0, #0
20000604:	1c30      	adds	r0, r6, #0
20000606:	f003 fed9 	bl	200043bc <__wrap___aeabi_fadd>
2000060a:	4641      	mov	r1, r8
2000060c:	1c06      	adds	r6, r0, #0
2000060e:	4650      	mov	r0, sl
20000610:	f003 feeb 	bl	200043ea <__wrap___aeabi_fmul>
20000614:	1c01      	adds	r1, r0, #0
20000616:	1c38      	adds	r0, r7, #0
20000618:	f003 fed0 	bl	200043bc <__wrap___aeabi_fadd>
2000061c:	464a      	mov	r2, r9
2000061e:	1c07      	adds	r7, r0, #0
20000620:	2a09      	cmp	r2, #9
20000622:	d033      	beq.n	2000068c <_ZN12ComputerCard13CalcCalCoeffsEi+0x3a8>
20000624:	9a01      	ldr	r2, [sp, #4]
20000626:	9802      	ldr	r0, [sp, #8]
20000628:	4690      	mov	r8, r2
2000062a:	9b03      	ldr	r3, [sp, #12]
2000062c:	181b      	adds	r3, r3, r0
2000062e:	011b      	lsls	r3, r3, #4
20000630:	4498      	add	r8, r3
20000632:	4643      	mov	r3, r8
20000634:	2074      	movs	r0, #116	@ 0x74
20000636:	5618      	ldrsb	r0, [r3, r0]
20000638:	f003 ff0e 	bl	20004458 <__wrap___aeabi_i2f>
2000063c:	4912      	ldr	r1, [pc, #72]	@ (20000688 <_ZN12ComputerCard13CalcCalCoeffsEi+0x3a4>)
2000063e:	f003 fed4 	bl	200043ea <__wrap___aeabi_fmul>
20000642:	4643      	mov	r3, r8
20000644:	4682      	mov	sl, r0
20000646:	6f18      	ldr	r0, [r3, #112]	@ 0x70
20000648:	f003 ff06 	bl	20004458 <__wrap___aeabi_i2f>
2000064c:	4651      	mov	r1, sl
2000064e:	4680      	mov	r8, r0
20000650:	1c20      	adds	r0, r4, #0
20000652:	f003 feb3 	bl	200043bc <__wrap___aeabi_fadd>
20000656:	4641      	mov	r1, r8
20000658:	1c04      	adds	r4, r0, #0
2000065a:	1c28      	adds	r0, r5, #0
2000065c:	f003 feae 	bl	200043bc <__wrap___aeabi_fadd>
20000660:	4651      	mov	r1, sl
20000662:	1c05      	adds	r5, r0, #0
20000664:	4650      	mov	r0, sl
20000666:	f003 fec0 	bl	200043ea <__wrap___aeabi_fmul>
2000066a:	1c01      	adds	r1, r0, #0
2000066c:	1c30      	adds	r0, r6, #0
2000066e:	f003 fea5 	bl	200043bc <__wrap___aeabi_fadd>
20000672:	4641      	mov	r1, r8
20000674:	1c06      	adds	r6, r0, #0
20000676:	4650      	mov	r0, sl
20000678:	f003 feb7 	bl	200043ea <__wrap___aeabi_fmul>
2000067c:	1c01      	adds	r1, r0, #0
2000067e:	1c38      	adds	r0, r7, #0
20000680:	f003 fe9c 	bl	200043bc <__wrap___aeabi_fadd>
20000684:	1c07      	adds	r7, r0, #0
20000686:	e001      	b.n	2000068c <_ZN12ComputerCard13CalcCalCoeffsEi+0x3a8>
20000688:	3dcccccd 	.word	0x3dcccccd
2000068c:	4648      	mov	r0, r9
2000068e:	f003 fee3 	bl	20004458 <__wrap___aeabi_i2f>
20000692:	1c31      	adds	r1, r6, #0
20000694:	4680      	mov	r8, r0
20000696:	f003 fea8 	bl	200043ea <__wrap___aeabi_fmul>
2000069a:	1c21      	adds	r1, r4, #0
2000069c:	1c06      	adds	r6, r0, #0
2000069e:	1c20      	adds	r0, r4, #0
200006a0:	f003 fea3 	bl	200043ea <__wrap___aeabi_fmul>
200006a4:	1c01      	adds	r1, r0, #0
200006a6:	1c30      	adds	r0, r6, #0
200006a8:	f003 fe85 	bl	200043b6 <__wrap___aeabi_fsub>
200006ac:	2100      	movs	r1, #0
200006ae:	1c06      	adds	r6, r0, #0
200006b0:	f003 feca 	bl	20004448 <__wrap___aeabi_fcmpeq>
200006b4:	2800      	cmp	r0, #0
200006b6:	d141      	bne.n	2000073c <_ZN12ComputerCard13CalcCalCoeffsEi+0x458>
200006b8:	1c39      	adds	r1, r7, #0
200006ba:	4640      	mov	r0, r8
200006bc:	f003 fe95 	bl	200043ea <__wrap___aeabi_fmul>
200006c0:	1c21      	adds	r1, r4, #0
200006c2:	1c07      	adds	r7, r0, #0
200006c4:	1c28      	adds	r0, r5, #0
200006c6:	f003 fe90 	bl	200043ea <__wrap___aeabi_fmul>
200006ca:	1c01      	adds	r1, r0, #0
200006cc:	1c38      	adds	r0, r7, #0
200006ce:	f003 fe72 	bl	200043b6 <__wrap___aeabi_fsub>
200006d2:	1c31      	adds	r1, r6, #0
200006d4:	f003 fe75 	bl	200043c2 <__wrap___aeabi_fdiv>
200006d8:	1c21      	adds	r1, r4, #0
200006da:	1c06      	adds	r6, r0, #0
200006dc:	f003 fe85 	bl	200043ea <__wrap___aeabi_fmul>
200006e0:	1c01      	adds	r1, r0, #0
200006e2:	1c28      	adds	r0, r5, #0
200006e4:	f003 fe67 	bl	200043b6 <__wrap___aeabi_fsub>
200006e8:	4641      	mov	r1, r8
200006ea:	f003 fe6a 	bl	200043c2 <__wrap___aeabi_fdiv>
200006ee:	491c      	ldr	r1, [pc, #112]	@ (20000760 <_ZN12ComputerCard13CalcCalCoeffsEi+0x47c>)
200006f0:	1c04      	adds	r4, r0, #0
200006f2:	1c30      	adds	r0, r6, #0
200006f4:	f003 fe79 	bl	200043ea <__wrap___aeabi_fmul>
200006f8:	21fc      	movs	r1, #252	@ 0xfc
200006fa:	0589      	lsls	r1, r1, #22
200006fc:	f003 fe5e 	bl	200043bc <__wrap___aeabi_fadd>
20000700:	f003 fecc 	bl	2000449c <__wrap___aeabi_f2iz>
20000704:	21fc      	movs	r1, #252	@ 0xfc
20000706:	4681      	mov	r9, r0
20000708:	0589      	lsls	r1, r1, #22
2000070a:	1c20      	adds	r0, r4, #0
2000070c:	f003 fe56 	bl	200043bc <__wrap___aeabi_fadd>
20000710:	f003 fec4 	bl	2000449c <__wrap___aeabi_f2iz>
20000714:	9b02      	ldr	r3, [sp, #8]
20000716:	9a01      	ldr	r2, [sp, #4]
20000718:	011b      	lsls	r3, r3, #4
2000071a:	18d3      	adds	r3, r2, r3
2000071c:	001a      	movs	r2, r3
2000071e:	32c8      	adds	r2, #200	@ 0xc8
20000720:	6016      	str	r6, [r2, #0]
20000722:	6054      	str	r4, [r2, #4]
20000724:	4649      	mov	r1, r9
20000726:	22d0      	movs	r2, #208	@ 0xd0
20000728:	5099      	str	r1, [r3, r2]
2000072a:	3204      	adds	r2, #4
2000072c:	5098      	str	r0, [r3, r2]
2000072e:	b005      	add	sp, #20
20000730:	bcf0      	pop	{r4, r5, r6, r7}
20000732:	46bb      	mov	fp, r7
20000734:	46b2      	mov	sl, r6
20000736:	46a9      	mov	r9, r5
20000738:	46a0      	mov	r8, r4
2000073a:	bdf0      	pop	{r4, r5, r6, r7, pc}
2000073c:	4641      	mov	r1, r8
2000073e:	1c28      	adds	r0, r5, #0
20000740:	f003 fe3f 	bl	200043c2 <__wrap___aeabi_fdiv>
20000744:	21fc      	movs	r1, #252	@ 0xfc
20000746:	0589      	lsls	r1, r1, #22
20000748:	1c04      	adds	r4, r0, #0
2000074a:	f003 fe37 	bl	200043bc <__wrap___aeabi_fadd>
2000074e:	f003 fea5 	bl	2000449c <__wrap___aeabi_f2iz>
20000752:	2300      	movs	r3, #0
20000754:	4699      	mov	r9, r3
20000756:	e7dd      	b.n	20000714 <_ZN12ComputerCard13CalcCalCoeffsEi+0x430>
20000758:	2000      	movs	r0, #0
2000075a:	2600      	movs	r6, #0
2000075c:	4c01      	ldr	r4, [pc, #4]	@ (20000764 <_ZN12ComputerCard13CalcCalCoeffsEi+0x480>)
2000075e:	e7d9      	b.n	20000714 <_ZN12ComputerCard13CalcCalCoeffsEi+0x430>
20000760:	3faaaaab 	.word	0x3faaaaab
20000764:	7fc00000 	.word	0x7fc00000

20000768 <_ZN12ComputerCard10ReadEEPROMEv>:
20000768:	b5f0      	push	{r4, r5, r6, r7, lr}
2000076a:	4645      	mov	r5, r8
2000076c:	4657      	mov	r7, sl
2000076e:	464e      	mov	r6, r9
20000770:	46de      	mov	lr, fp
20000772:	0003      	movs	r3, r0
20000774:	b5e0      	push	{r5, r6, r7, lr}
20000776:	3324      	adds	r3, #36	@ 0x24
20000778:	b0a1      	sub	sp, #132	@ 0x84
2000077a:	0002      	movs	r2, r0
2000077c:	9305      	str	r3, [sp, #20]
2000077e:	2303      	movs	r3, #3
20000780:	3228      	adds	r2, #40	@ 0x28
20000782:	0014      	movs	r4, r2
20000784:	2500      	movs	r5, #0
20000786:	4698      	mov	r8, r3
20000788:	27ec      	movs	r7, #236	@ 0xec
2000078a:	4eca      	ldr	r6, [pc, #808]	@ (20000ab4 <_ZN12ComputerCard10ReadEEPROMEv+0x34c>)
2000078c:	9006      	str	r0, [sp, #24]
2000078e:	9207      	str	r2, [sp, #28]
20000790:	4642      	mov	r2, r8
20000792:	9b05      	ldr	r3, [sp, #20]
20000794:	0029      	movs	r1, r5
20000796:	555a      	strb	r2, [r3, r5]
20000798:	2300      	movs	r3, #0
2000079a:	7323      	strb	r3, [r4, #12]
2000079c:	4bc6      	ldr	r3, [pc, #792]	@ (20000ab8 <_ZN12ComputerCard10ReadEEPROMEv+0x350>)
2000079e:	7127      	strb	r7, [r4, #4]
200007a0:	60a3      	str	r3, [r4, #8]
200007a2:	2314      	movs	r3, #20
200007a4:	7523      	strb	r3, [r4, #20]
200007a6:	4bc5      	ldr	r3, [pc, #788]	@ (20000abc <_ZN12ComputerCard10ReadEEPROMEv+0x354>)
200007a8:	6026      	str	r6, [r4, #0]
200007aa:	6123      	str	r3, [r4, #16]
200007ac:	9806      	ldr	r0, [sp, #24]
200007ae:	f7ff fd99 	bl	200002e4 <_ZN12ComputerCard13CalcCalCoeffsEi>
200007b2:	1c6b      	adds	r3, r5, #1
200007b4:	3450      	adds	r4, #80	@ 0x50
200007b6:	2501      	movs	r5, #1
200007b8:	2b02      	cmp	r3, #2
200007ba:	d1e9      	bne.n	20000790 <_ZN12ComputerCard10ReadEEPROMEv+0x28>
200007bc:	3313      	adds	r3, #19
200007be:	aa04      	add	r2, sp, #16
200007c0:	1899      	adds	r1, r3, r2
200007c2:	2000      	movs	r0, #0
200007c4:	f7ff fcdc 	bl	20000180 <_ZN12ComputerCard18ReadByteFromEEPROMEjRb.constprop.0>
200007c8:	2315      	movs	r3, #21
200007ca:	aa04      	add	r2, sp, #16
200007cc:	1899      	adds	r1, r3, r2
200007ce:	0204      	lsls	r4, r0, #8
200007d0:	2001      	movs	r0, #1
200007d2:	f7ff fcd5 	bl	20000180 <_ZN12ComputerCard18ReadByteFromEEPROMEjRb.constprop.0>
200007d6:	4bba      	ldr	r3, [pc, #744]	@ (20000ac0 <_ZN12ComputerCard10ReadEEPROMEv+0x358>)
200007d8:	4304      	orrs	r4, r0
200007da:	429c      	cmp	r4, r3
200007dc:	d000      	beq.n	200007e0 <_ZN12ComputerCard10ReadEEPROMEv+0x78>
200007de:	e160      	b.n	20000aa2 <_ZN12ComputerCard10ReadEEPROMEv+0x33a>
200007e0:	2316      	movs	r3, #22
200007e2:	aa04      	add	r2, sp, #16
200007e4:	189b      	adds	r3, r3, r2
200007e6:	469a      	mov	sl, r3
200007e8:	2317      	movs	r3, #23
200007ea:	189b      	adds	r3, r3, r2
200007ec:	4698      	mov	r8, r3
200007ee:	4bb5      	ldr	r3, [pc, #724]	@ (20000ac4 <_ZN12ComputerCard10ReadEEPROMEv+0x35c>)
200007f0:	2400      	movs	r4, #0
200007f2:	469b      	mov	fp, r3
200007f4:	23ff      	movs	r3, #255	@ 0xff
200007f6:	2700      	movs	r7, #0
200007f8:	4699      	mov	r9, r3
200007fa:	4eb3      	ldr	r6, [pc, #716]	@ (20000ac8 <_ZN12ComputerCard10ReadEEPROMEv+0x360>)
200007fc:	ad0a      	add	r5, sp, #40	@ 0x28
200007fe:	e01b      	b.n	20000838 <_ZN12ComputerCard10ReadEEPROMEv+0xd0>
20000800:	f003 fa2c 	bl	20003c5c <time_us_64>
20000804:	1980      	adds	r0, r0, r6
20000806:	4179      	adcs	r1, r7
20000808:	2900      	cmp	r1, #0
2000080a:	da02      	bge.n	20000812 <_ZN12ComputerCard10ReadEEPROMEv+0xaa>
2000080c:	2001      	movs	r0, #1
2000080e:	49af      	ldr	r1, [pc, #700]	@ (20000acc <_ZN12ComputerCard10ReadEEPROMEv+0x364>)
20000810:	4240      	negs	r0, r0
20000812:	2300      	movs	r3, #0
20000814:	9002      	str	r0, [sp, #8]
20000816:	9103      	str	r1, [sp, #12]
20000818:	9300      	str	r3, [sp, #0]
2000081a:	4652      	mov	r2, sl
2000081c:	2150      	movs	r1, #80	@ 0x50
2000081e:	4658      	mov	r0, fp
20000820:	3301      	adds	r3, #1
20000822:	f004 fb27 	bl	20004e74 <i2c_read_blocking_until>
20000826:	2800      	cmp	r0, #0
20000828:	dd20      	ble.n	2000086c <_ZN12ComputerCard10ReadEEPROMEv+0x104>
2000082a:	4653      	mov	r3, sl
2000082c:	781b      	ldrb	r3, [r3, #0]
2000082e:	3401      	adds	r4, #1
20000830:	702b      	strb	r3, [r5, #0]
20000832:	3501      	adds	r5, #1
20000834:	2c58      	cmp	r4, #88	@ 0x58
20000836:	d01f      	beq.n	20000878 <_ZN12ComputerCard10ReadEEPROMEv+0x110>
20000838:	4653      	mov	r3, sl
2000083a:	464a      	mov	r2, r9
2000083c:	701a      	strb	r2, [r3, #0]
2000083e:	4643      	mov	r3, r8
20000840:	701c      	strb	r4, [r3, #0]
20000842:	f003 fa0b 	bl	20003c5c <time_us_64>
20000846:	1980      	adds	r0, r0, r6
20000848:	4179      	adcs	r1, r7
2000084a:	2900      	cmp	r1, #0
2000084c:	da02      	bge.n	20000854 <_ZN12ComputerCard10ReadEEPROMEv+0xec>
2000084e:	2001      	movs	r0, #1
20000850:	499e      	ldr	r1, [pc, #632]	@ (20000acc <_ZN12ComputerCard10ReadEEPROMEv+0x364>)
20000852:	4240      	negs	r0, r0
20000854:	2300      	movs	r3, #0
20000856:	9002      	str	r0, [sp, #8]
20000858:	9103      	str	r1, [sp, #12]
2000085a:	9300      	str	r3, [sp, #0]
2000085c:	4642      	mov	r2, r8
2000085e:	2150      	movs	r1, #80	@ 0x50
20000860:	4658      	mov	r0, fp
20000862:	3301      	adds	r3, #1
20000864:	f004 fae6 	bl	20004e34 <i2c_write_blocking_until>
20000868:	2800      	cmp	r0, #0
2000086a:	dcc9      	bgt.n	20000800 <_ZN12ComputerCard10ReadEEPROMEv+0x98>
2000086c:	2300      	movs	r3, #0
2000086e:	3401      	adds	r4, #1
20000870:	702b      	strb	r3, [r5, #0]
20000872:	3501      	adds	r5, #1
20000874:	2c58      	cmp	r4, #88	@ 0x58
20000876:	d1df      	bne.n	20000838 <_ZN12ComputerCard10ReadEEPROMEv+0xd0>
20000878:	a80a      	add	r0, sp, #40	@ 0x28
2000087a:	4b95      	ldr	r3, [pc, #596]	@ (20000ad0 <_ZN12ComputerCard10ReadEEPROMEv+0x368>)
2000087c:	4995      	ldr	r1, [pc, #596]	@ (20000ad4 <_ZN12ComputerCard10ReadEEPROMEv+0x36c>)
2000087e:	3056      	adds	r0, #86	@ 0x56
20000880:	aa0a      	add	r2, sp, #40	@ 0x28
20000882:	e020      	b.n	200008c6 <_ZN12ComputerCard10ReadEEPROMEv+0x15e>
20000884:	005b      	lsls	r3, r3, #1
20000886:	b21c      	sxth	r4, r3
20000888:	2c00      	cmp	r4, #0
2000088a:	db27      	blt.n	200008dc <_ZN12ComputerCard10ReadEEPROMEv+0x174>
2000088c:	005c      	lsls	r4, r3, #1
2000088e:	b223      	sxth	r3, r4
20000890:	2b00      	cmp	r3, #0
20000892:	db28      	blt.n	200008e6 <_ZN12ComputerCard10ReadEEPROMEv+0x17e>
20000894:	0064      	lsls	r4, r4, #1
20000896:	b223      	sxth	r3, r4
20000898:	2b00      	cmp	r3, #0
2000089a:	db29      	blt.n	200008f0 <_ZN12ComputerCard10ReadEEPROMEv+0x188>
2000089c:	0064      	lsls	r4, r4, #1
2000089e:	b223      	sxth	r3, r4
200008a0:	2b00      	cmp	r3, #0
200008a2:	db2a      	blt.n	200008fa <_ZN12ComputerCard10ReadEEPROMEv+0x192>
200008a4:	0064      	lsls	r4, r4, #1
200008a6:	b223      	sxth	r3, r4
200008a8:	2b00      	cmp	r3, #0
200008aa:	db2b      	blt.n	20000904 <_ZN12ComputerCard10ReadEEPROMEv+0x19c>
200008ac:	0064      	lsls	r4, r4, #1
200008ae:	b223      	sxth	r3, r4
200008b0:	2b00      	cmp	r3, #0
200008b2:	db2c      	blt.n	2000090e <_ZN12ComputerCard10ReadEEPROMEv+0x1a6>
200008b4:	0064      	lsls	r4, r4, #1
200008b6:	b223      	sxth	r3, r4
200008b8:	2b00      	cmp	r3, #0
200008ba:	db2d      	blt.n	20000918 <_ZN12ComputerCard10ReadEEPROMEv+0x1b0>
200008bc:	0063      	lsls	r3, r4, #1
200008be:	3201      	adds	r2, #1
200008c0:	b29b      	uxth	r3, r3
200008c2:	4290      	cmp	r0, r2
200008c4:	d02e      	beq.n	20000924 <_ZN12ComputerCard10ReadEEPROMEv+0x1bc>
200008c6:	7814      	ldrb	r4, [r2, #0]
200008c8:	0224      	lsls	r4, r4, #8
200008ca:	4063      	eors	r3, r4
200008cc:	b21c      	sxth	r4, r3
200008ce:	2c00      	cmp	r4, #0
200008d0:	dad8      	bge.n	20000884 <_ZN12ComputerCard10ReadEEPROMEv+0x11c>
200008d2:	0064      	lsls	r4, r4, #1
200008d4:	404c      	eors	r4, r1
200008d6:	b224      	sxth	r4, r4
200008d8:	1e23      	subs	r3, r4, #0
200008da:	dad7      	bge.n	2000088c <_ZN12ComputerCard10ReadEEPROMEv+0x124>
200008dc:	0064      	lsls	r4, r4, #1
200008de:	404c      	eors	r4, r1
200008e0:	b223      	sxth	r3, r4
200008e2:	1e1c      	subs	r4, r3, #0
200008e4:	dad6      	bge.n	20000894 <_ZN12ComputerCard10ReadEEPROMEv+0x12c>
200008e6:	005b      	lsls	r3, r3, #1
200008e8:	404b      	eors	r3, r1
200008ea:	b21b      	sxth	r3, r3
200008ec:	1e1c      	subs	r4, r3, #0
200008ee:	dad5      	bge.n	2000089c <_ZN12ComputerCard10ReadEEPROMEv+0x134>
200008f0:	005b      	lsls	r3, r3, #1
200008f2:	404b      	eors	r3, r1
200008f4:	b21b      	sxth	r3, r3
200008f6:	1e1c      	subs	r4, r3, #0
200008f8:	dad4      	bge.n	200008a4 <_ZN12ComputerCard10ReadEEPROMEv+0x13c>
200008fa:	005b      	lsls	r3, r3, #1
200008fc:	404b      	eors	r3, r1
200008fe:	b21b      	sxth	r3, r3
20000900:	1e1c      	subs	r4, r3, #0
20000902:	dad3      	bge.n	200008ac <_ZN12ComputerCard10ReadEEPROMEv+0x144>
20000904:	005b      	lsls	r3, r3, #1
20000906:	404b      	eors	r3, r1
20000908:	b21b      	sxth	r3, r3
2000090a:	1e1c      	subs	r4, r3, #0
2000090c:	dad2      	bge.n	200008b4 <_ZN12ComputerCard10ReadEEPROMEv+0x14c>
2000090e:	005b      	lsls	r3, r3, #1
20000910:	404b      	eors	r3, r1
20000912:	b21b      	sxth	r3, r3
20000914:	1e1c      	subs	r4, r3, #0
20000916:	dad1      	bge.n	200008bc <_ZN12ComputerCard10ReadEEPROMEv+0x154>
20000918:	005b      	lsls	r3, r3, #1
2000091a:	404b      	eors	r3, r1
2000091c:	3201      	adds	r2, #1
2000091e:	b29b      	uxth	r3, r3
20000920:	4290      	cmp	r0, r2
20000922:	d1d0      	bne.n	200008c6 <_ZN12ComputerCard10ReadEEPROMEv+0x15e>
20000924:	2256      	movs	r2, #86	@ 0x56
20000926:	a904      	add	r1, sp, #16
20000928:	3118      	adds	r1, #24
2000092a:	5a8a      	ldrh	r2, [r1, r2]
2000092c:	ba52      	rev16	r2, r2
2000092e:	b292      	uxth	r2, r2
20000930:	429a      	cmp	r2, r3
20000932:	d000      	beq.n	20000936 <_ZN12ComputerCard10ReadEEPROMEv+0x1ce>
20000934:	e0b5      	b.n	20000aa2 <_ZN12ComputerCard10ReadEEPROMEv+0x33a>
20000936:	2600      	movs	r6, #0
20000938:	2724      	movs	r7, #36	@ 0x24
2000093a:	9d07      	ldr	r5, [sp, #28]
2000093c:	46b0      	mov	r8, r6
2000093e:	ac0b      	add	r4, sp, #44	@ 0x2c
20000940:	ae13      	add	r6, sp, #76	@ 0x4c
20000942:	4641      	mov	r1, r8
20000944:	7823      	ldrb	r3, [r4, #0]
20000946:	9a05      	ldr	r2, [sp, #20]
20000948:	5453      	strb	r3, [r2, r1]
2000094a:	2b00      	cmp	r3, #0
2000094c:	d100      	bne.n	20000950 <_ZN12ComputerCard10ReadEEPROMEv+0x1e8>
2000094e:	e099      	b.n	20000a84 <_ZN12ComputerCard10ReadEEPROMEv+0x31c>
20000950:	78a2      	ldrb	r2, [r4, #2]
20000952:	78e1      	ldrb	r1, [r4, #3]
20000954:	0612      	lsls	r2, r2, #24
20000956:	0409      	lsls	r1, r1, #16
20000958:	430a      	orrs	r2, r1
2000095a:	7961      	ldrb	r1, [r4, #5]
2000095c:	430a      	orrs	r2, r1
2000095e:	7921      	ldrb	r1, [r4, #4]
20000960:	0209      	lsls	r1, r1, #8
20000962:	430a      	orrs	r2, r1
20000964:	7861      	ldrb	r1, [r4, #1]
20000966:	602a      	str	r2, [r5, #0]
20000968:	7129      	strb	r1, [r5, #4]
2000096a:	2b01      	cmp	r3, #1
2000096c:	d100      	bne.n	20000970 <_ZN12ComputerCard10ReadEEPROMEv+0x208>
2000096e:	e089      	b.n	20000a84 <_ZN12ComputerCard10ReadEEPROMEv+0x31c>
20000970:	79e2      	ldrb	r2, [r4, #7]
20000972:	7a21      	ldrb	r1, [r4, #8]
20000974:	0612      	lsls	r2, r2, #24
20000976:	0409      	lsls	r1, r1, #16
20000978:	430a      	orrs	r2, r1
2000097a:	7aa1      	ldrb	r1, [r4, #10]
2000097c:	430a      	orrs	r2, r1
2000097e:	7a61      	ldrb	r1, [r4, #9]
20000980:	0209      	lsls	r1, r1, #8
20000982:	430a      	orrs	r2, r1
20000984:	79a1      	ldrb	r1, [r4, #6]
20000986:	60aa      	str	r2, [r5, #8]
20000988:	7329      	strb	r1, [r5, #12]
2000098a:	2b02      	cmp	r3, #2
2000098c:	d07a      	beq.n	20000a84 <_ZN12ComputerCard10ReadEEPROMEv+0x31c>
2000098e:	7b22      	ldrb	r2, [r4, #12]
20000990:	7b61      	ldrb	r1, [r4, #13]
20000992:	0612      	lsls	r2, r2, #24
20000994:	0409      	lsls	r1, r1, #16
20000996:	430a      	orrs	r2, r1
20000998:	7be1      	ldrb	r1, [r4, #15]
2000099a:	430a      	orrs	r2, r1
2000099c:	7ba1      	ldrb	r1, [r4, #14]
2000099e:	0209      	lsls	r1, r1, #8
200009a0:	430a      	orrs	r2, r1
200009a2:	7ae1      	ldrb	r1, [r4, #11]
200009a4:	612a      	str	r2, [r5, #16]
200009a6:	7529      	strb	r1, [r5, #20]
200009a8:	2b03      	cmp	r3, #3
200009aa:	d06b      	beq.n	20000a84 <_ZN12ComputerCard10ReadEEPROMEv+0x31c>
200009ac:	7c62      	ldrb	r2, [r4, #17]
200009ae:	7ca1      	ldrb	r1, [r4, #18]
200009b0:	0612      	lsls	r2, r2, #24
200009b2:	0409      	lsls	r1, r1, #16
200009b4:	430a      	orrs	r2, r1
200009b6:	7d21      	ldrb	r1, [r4, #20]
200009b8:	430a      	orrs	r2, r1
200009ba:	7ce1      	ldrb	r1, [r4, #19]
200009bc:	0209      	lsls	r1, r1, #8
200009be:	430a      	orrs	r2, r1
200009c0:	7c21      	ldrb	r1, [r4, #16]
200009c2:	61aa      	str	r2, [r5, #24]
200009c4:	7729      	strb	r1, [r5, #28]
200009c6:	2b04      	cmp	r3, #4
200009c8:	d05c      	beq.n	20000a84 <_ZN12ComputerCard10ReadEEPROMEv+0x31c>
200009ca:	7da2      	ldrb	r2, [r4, #22]
200009cc:	7de1      	ldrb	r1, [r4, #23]
200009ce:	0612      	lsls	r2, r2, #24
200009d0:	0409      	lsls	r1, r1, #16
200009d2:	430a      	orrs	r2, r1
200009d4:	7e61      	ldrb	r1, [r4, #25]
200009d6:	430a      	orrs	r2, r1
200009d8:	7e21      	ldrb	r1, [r4, #24]
200009da:	0209      	lsls	r1, r1, #8
200009dc:	430a      	orrs	r2, r1
200009de:	7d61      	ldrb	r1, [r4, #21]
200009e0:	55e9      	strb	r1, [r5, r7]
200009e2:	622a      	str	r2, [r5, #32]
200009e4:	2b05      	cmp	r3, #5
200009e6:	d04d      	beq.n	20000a84 <_ZN12ComputerCard10ReadEEPROMEv+0x31c>
200009e8:	7ee2      	ldrb	r2, [r4, #27]
200009ea:	7f21      	ldrb	r1, [r4, #28]
200009ec:	0612      	lsls	r2, r2, #24
200009ee:	0409      	lsls	r1, r1, #16
200009f0:	430a      	orrs	r2, r1
200009f2:	7fa1      	ldrb	r1, [r4, #30]
200009f4:	7ea0      	ldrb	r0, [r4, #26]
200009f6:	430a      	orrs	r2, r1
200009f8:	7f61      	ldrb	r1, [r4, #29]
200009fa:	0209      	lsls	r1, r1, #8
200009fc:	430a      	orrs	r2, r1
200009fe:	212c      	movs	r1, #44	@ 0x2c
20000a00:	5468      	strb	r0, [r5, r1]
20000a02:	62aa      	str	r2, [r5, #40]	@ 0x28
20000a04:	2b06      	cmp	r3, #6
20000a06:	d03d      	beq.n	20000a84 <_ZN12ComputerCard10ReadEEPROMEv+0x31c>
20000a08:	7832      	ldrb	r2, [r6, #0]
20000a0a:	7871      	ldrb	r1, [r6, #1]
20000a0c:	0612      	lsls	r2, r2, #24
20000a0e:	0409      	lsls	r1, r1, #16
20000a10:	430a      	orrs	r2, r1
20000a12:	78f1      	ldrb	r1, [r6, #3]
20000a14:	7fe0      	ldrb	r0, [r4, #31]
20000a16:	430a      	orrs	r2, r1
20000a18:	78b1      	ldrb	r1, [r6, #2]
20000a1a:	0209      	lsls	r1, r1, #8
20000a1c:	430a      	orrs	r2, r1
20000a1e:	2134      	movs	r1, #52	@ 0x34
20000a20:	5468      	strb	r0, [r5, r1]
20000a22:	632a      	str	r2, [r5, #48]	@ 0x30
20000a24:	2b07      	cmp	r3, #7
20000a26:	d02d      	beq.n	20000a84 <_ZN12ComputerCard10ReadEEPROMEv+0x31c>
20000a28:	7972      	ldrb	r2, [r6, #5]
20000a2a:	79b1      	ldrb	r1, [r6, #6]
20000a2c:	0612      	lsls	r2, r2, #24
20000a2e:	0409      	lsls	r1, r1, #16
20000a30:	430a      	orrs	r2, r1
20000a32:	7a31      	ldrb	r1, [r6, #8]
20000a34:	7930      	ldrb	r0, [r6, #4]
20000a36:	430a      	orrs	r2, r1
20000a38:	79f1      	ldrb	r1, [r6, #7]
20000a3a:	0209      	lsls	r1, r1, #8
20000a3c:	430a      	orrs	r2, r1
20000a3e:	213c      	movs	r1, #60	@ 0x3c
20000a40:	5468      	strb	r0, [r5, r1]
20000a42:	63aa      	str	r2, [r5, #56]	@ 0x38
20000a44:	2b08      	cmp	r3, #8
20000a46:	d01d      	beq.n	20000a84 <_ZN12ComputerCard10ReadEEPROMEv+0x31c>
20000a48:	7ab2      	ldrb	r2, [r6, #10]
20000a4a:	7af1      	ldrb	r1, [r6, #11]
20000a4c:	0612      	lsls	r2, r2, #24
20000a4e:	0409      	lsls	r1, r1, #16
20000a50:	430a      	orrs	r2, r1
20000a52:	7b71      	ldrb	r1, [r6, #13]
20000a54:	7a70      	ldrb	r0, [r6, #9]
20000a56:	430a      	orrs	r2, r1
20000a58:	7b31      	ldrb	r1, [r6, #12]
20000a5a:	0209      	lsls	r1, r1, #8
20000a5c:	430a      	orrs	r2, r1
20000a5e:	2144      	movs	r1, #68	@ 0x44
20000a60:	5468      	strb	r0, [r5, r1]
20000a62:	642a      	str	r2, [r5, #64]	@ 0x40
20000a64:	2b09      	cmp	r3, #9
20000a66:	d00d      	beq.n	20000a84 <_ZN12ComputerCard10ReadEEPROMEv+0x31c>
20000a68:	7bf3      	ldrb	r3, [r6, #15]
20000a6a:	7c32      	ldrb	r2, [r6, #16]
20000a6c:	061b      	lsls	r3, r3, #24
20000a6e:	0412      	lsls	r2, r2, #16
20000a70:	4313      	orrs	r3, r2
20000a72:	7cb2      	ldrb	r2, [r6, #18]
20000a74:	7bb1      	ldrb	r1, [r6, #14]
20000a76:	4313      	orrs	r3, r2
20000a78:	7c72      	ldrb	r2, [r6, #17]
20000a7a:	0212      	lsls	r2, r2, #8
20000a7c:	4313      	orrs	r3, r2
20000a7e:	224c      	movs	r2, #76	@ 0x4c
20000a80:	54a9      	strb	r1, [r5, r2]
20000a82:	64ab      	str	r3, [r5, #72]	@ 0x48
20000a84:	4641      	mov	r1, r8
20000a86:	9806      	ldr	r0, [sp, #24]
20000a88:	f7ff fc2c 	bl	200002e4 <_ZN12ComputerCard13CalcCalCoeffsEi>
20000a8c:	4643      	mov	r3, r8
20000a8e:	2201      	movs	r2, #1
20000a90:	3429      	adds	r4, #41	@ 0x29
20000a92:	4690      	mov	r8, r2
20000a94:	3550      	adds	r5, #80	@ 0x50
20000a96:	3629      	adds	r6, #41	@ 0x29
20000a98:	2b01      	cmp	r3, #1
20000a9a:	d000      	beq.n	20000a9e <_ZN12ComputerCard10ReadEEPROMEv+0x336>
20000a9c:	e751      	b.n	20000942 <_ZN12ComputerCard10ReadEEPROMEv+0x1da>
20000a9e:	2000      	movs	r0, #0
20000aa0:	e000      	b.n	20000aa4 <_ZN12ComputerCard10ReadEEPROMEv+0x33c>
20000aa2:	2001      	movs	r0, #1
20000aa4:	b021      	add	sp, #132	@ 0x84
20000aa6:	bcf0      	pop	{r4, r5, r6, r7}
20000aa8:	46bb      	mov	fp, r7
20000aaa:	46b2      	mov	sl, r6
20000aac:	46a9      	mov	r9, r5
20000aae:	46a0      	mov	r8, r4
20000ab0:	bdf0      	pop	{r4, r5, r6, r7, pc}
20000ab2:	46c0      	nop			@ (mov r8, r8)
20000ab4:	00054e34 	.word	0x00054e34
20000ab8:	0003fc50 	.word	0x0003fc50
20000abc:	0002a940 	.word	0x0002a940
20000ac0:	000007d1 	.word	0x000007d1
20000ac4:	200069f0 	.word	0x200069f0
20000ac8:	00002710 	.word	0x00002710
20000acc:	7fffffff 	.word	0x7fffffff
20000ad0:	0000ffff 	.word	0x0000ffff
20000ad4:	00001021 	.word	0x00001021

20000ad8 <_ZN12ComputerCardC1Ev>:
20000ad8:	b5f8      	push	{r3, r4, r5, r6, r7, lr}
20000ada:	46ce      	mov	lr, r9
20000adc:	4647      	mov	r7, r8
20000ade:	2500      	movs	r5, #0
20000ae0:	b580      	push	{r7, lr}
20000ae2:	0007      	movs	r7, r0
20000ae4:	4bee      	ldr	r3, [pc, #952]	@ (20000ea0 <_ZN12ComputerCardC1Ev+0x3c8>)
20000ae6:	2210      	movs	r2, #16
20000ae8:	6003      	str	r3, [r0, #0]
20000aea:	2100      	movs	r1, #0
20000aec:	6105      	str	r5, [r0, #16]
20000aee:	60c5      	str	r5, [r0, #12]
20000af0:	6085      	str	r5, [r0, #8]
20000af2:	6045      	str	r5, [r0, #4]
20000af4:	6205      	str	r5, [r0, #32]
20000af6:	61c5      	str	r5, [r0, #28]
20000af8:	6185      	str	r5, [r0, #24]
20000afa:	6145      	str	r5, [r0, #20]
20000afc:	30f8      	adds	r0, #248	@ 0xf8
20000afe:	f003 fd63 	bl	200045c8 <__wrap_memset>
20000b02:	2384      	movs	r3, #132	@ 0x84
20000b04:	0038      	movs	r0, r7
20000b06:	005b      	lsls	r3, r3, #1
20000b08:	52fd      	strh	r5, [r7, r3]
20000b0a:	300d      	adds	r0, #13
20000b0c:	3302      	adds	r3, #2
20000b0e:	2208      	movs	r2, #8
20000b10:	2100      	movs	r1, #0
20000b12:	52fd      	strh	r5, [r7, r3]
20000b14:	30ff      	adds	r0, #255	@ 0xff
20000b16:	f003 fd57 	bl	200045c8 <__wrap_memset>
20000b1a:	2380      	movs	r3, #128	@ 0x80
20000b1c:	228a      	movs	r2, #138	@ 0x8a
20000b1e:	011b      	lsls	r3, r3, #4
20000b20:	0052      	lsls	r2, r2, #1
20000b22:	52bb      	strh	r3, [r7, r2]
20000b24:	3202      	adds	r2, #2
20000b26:	52bb      	strh	r3, [r7, r2]
20000b28:	0038      	movs	r0, r7
20000b2a:	238c      	movs	r3, #140	@ 0x8c
20000b2c:	2400      	movs	r4, #0
20000b2e:	005b      	lsls	r3, r3, #1
20000b30:	301d      	adds	r0, #29
20000b32:	54fc      	strb	r4, [r7, r3]
20000b34:	2100      	movs	r1, #0
20000b36:	3afe      	subs	r2, #254	@ 0xfe
20000b38:	30ff      	adds	r0, #255	@ 0xff
20000b3a:	f003 fd45 	bl	200045c8 <__wrap_memset>
20000b3e:	0038      	movs	r0, r7
20000b40:	3035      	adds	r0, #53	@ 0x35
20000b42:	2206      	movs	r2, #6
20000b44:	2100      	movs	r1, #0
20000b46:	30ff      	adds	r0, #255	@ 0xff
20000b48:	f003 fd3e 	bl	200045c8 <__wrap_memset>
20000b4c:	23b5      	movs	r3, #181	@ 0xb5
20000b4e:	005b      	lsls	r3, r3, #1
20000b50:	54fc      	strb	r4, [r7, r3]
20000b52:	233e      	movs	r3, #62	@ 0x3e
20000b54:	2208      	movs	r2, #8
20000b56:	33ff      	adds	r3, #255	@ 0xff
20000b58:	54fc      	strb	r4, [r7, r3]
20000b5a:	4bd2      	ldr	r3, [pc, #840]	@ (20000ea4 <_ZN12ComputerCardC1Ev+0x3cc>)
20000b5c:	2601      	movs	r6, #1
20000b5e:	601a      	str	r2, [r3, #0]
20000b60:	22e0      	movs	r2, #224	@ 0xe0
20000b62:	4bd1      	ldr	r3, [pc, #836]	@ (20000ea8 <_ZN12ComputerCardC1Ev+0x3d0>)
20000b64:	01d2      	lsls	r2, r2, #7
20000b66:	681b      	ldr	r3, [r3, #0]
20000b68:	4013      	ands	r3, r2
20000b6a:	4ad0      	ldr	r2, [pc, #832]	@ (20000eac <_ZN12ComputerCardC1Ev+0x3d4>)
20000b6c:	6013      	str	r3, [r2, #0]
20000b6e:	239d      	movs	r3, #157	@ 0x9d
20000b70:	005b      	lsls	r3, r3, #1
20000b72:	54fc      	strb	r4, [r7, r3]
20000b74:	3b06      	subs	r3, #6
20000b76:	54fc      	strb	r4, [r7, r3]
20000b78:	2336      	movs	r3, #54	@ 0x36
20000b7a:	33ff      	adds	r3, #255	@ 0xff
20000b7c:	54fc      	strb	r4, [r7, r3]
20000b7e:	3301      	adds	r3, #1
20000b80:	54fc      	strb	r4, [r7, r3]
20000b82:	2338      	movs	r3, #56	@ 0x38
20000b84:	33ff      	adds	r3, #255	@ 0xff
20000b86:	54fc      	strb	r4, [r7, r3]
20000b88:	3301      	adds	r3, #1
20000b8a:	54fc      	strb	r4, [r7, r3]
20000b8c:	233a      	movs	r3, #58	@ 0x3a
20000b8e:	33ff      	adds	r3, #255	@ 0xff
20000b90:	54fc      	strb	r4, [r7, r3]
20000b92:	4bc7      	ldr	r3, [pc, #796]	@ (20000eb0 <_ZN12ComputerCardC1Ev+0x3d8>)
20000b94:	4cc7      	ldr	r4, [pc, #796]	@ (20000eb4 <_ZN12ComputerCardC1Ev+0x3dc>)
20000b96:	4698      	mov	r8, r3
20000b98:	7823      	ldrb	r3, [r4, #0]
20000b9a:	2104      	movs	r1, #4
20000b9c:	4699      	mov	r9, r3
20000b9e:	0018      	movs	r0, r3
20000ba0:	f002 f9ca 	bl	20002f38 <gpio_set_function>
20000ba4:	464b      	mov	r3, r9
20000ba6:	2104      	movs	r1, #4
20000ba8:	1c58      	adds	r0, r3, #1
20000baa:	f002 f9c5 	bl	20002f38 <gpio_set_function>
20000bae:	464b      	mov	r3, r9
20000bb0:	464a      	mov	r2, r9
20000bb2:	085b      	lsrs	r3, r3, #1
20000bb4:	2a1f      	cmp	r2, #31
20000bb6:	d900      	bls.n	20000bba <_ZN12ComputerCardC1Ev+0xe2>
20000bb8:	e1aa      	b.n	20000f10 <_ZN12ComputerCardC1Ev+0x438>
20000bba:	2207      	movs	r2, #7
20000bbc:	401a      	ands	r2, r3
20000bbe:	0093      	lsls	r3, r2, #2
20000bc0:	189b      	adds	r3, r3, r2
20000bc2:	49bd      	ldr	r1, [pc, #756]	@ (20000eb8 <_ZN12ComputerCardC1Ev+0x3e0>)
20000bc4:	4abd      	ldr	r2, [pc, #756]	@ (20000ebc <_ZN12ComputerCardC1Ev+0x3e4>)
20000bc6:	009b      	lsls	r3, r3, #2
20000bc8:	189a      	adds	r2, r3, r2
20000bca:	1859      	adds	r1, r3, r1
20000bcc:	6015      	str	r5, [r2, #0]
20000bce:	600d      	str	r5, [r1, #0]
20000bd0:	49bb      	ldr	r1, [pc, #748]	@ (20000ec0 <_ZN12ComputerCardC1Ev+0x3e8>)
20000bd2:	1859      	adds	r1, r3, r1
20000bd4:	600d      	str	r5, [r1, #0]
20000bd6:	49bb      	ldr	r1, [pc, #748]	@ (20000ec4 <_ZN12ComputerCardC1Ev+0x3ec>)
20000bd8:	185b      	adds	r3, r3, r1
20000bda:	4641      	mov	r1, r8
20000bdc:	6019      	str	r1, [r3, #0]
20000bde:	2310      	movs	r3, #16
20000be0:	6053      	str	r3, [r2, #4]
20000be2:	6016      	str	r6, [r2, #0]
20000be4:	7823      	ldrb	r3, [r4, #0]
20000be6:	3301      	adds	r3, #1
20000be8:	0859      	lsrs	r1, r3, #1
20000bea:	2b1f      	cmp	r3, #31
20000bec:	dd00      	ble.n	20000bf0 <_ZN12ComputerCardC1Ev+0x118>
20000bee:	e18b      	b.n	20000f08 <_ZN12ComputerCardC1Ev+0x430>
20000bf0:	2207      	movs	r2, #7
20000bf2:	400a      	ands	r2, r1
20000bf4:	0093      	lsls	r3, r2, #2
20000bf6:	189b      	adds	r3, r3, r2
20000bf8:	49af      	ldr	r1, [pc, #700]	@ (20000eb8 <_ZN12ComputerCardC1Ev+0x3e0>)
20000bfa:	4ab0      	ldr	r2, [pc, #704]	@ (20000ebc <_ZN12ComputerCardC1Ev+0x3e4>)
20000bfc:	009b      	lsls	r3, r3, #2
20000bfe:	189a      	adds	r2, r3, r2
20000c00:	1859      	adds	r1, r3, r1
20000c02:	6015      	str	r5, [r2, #0]
20000c04:	600d      	str	r5, [r1, #0]
20000c06:	49ae      	ldr	r1, [pc, #696]	@ (20000ec0 <_ZN12ComputerCardC1Ev+0x3e8>)
20000c08:	1859      	adds	r1, r3, r1
20000c0a:	600d      	str	r5, [r1, #0]
20000c0c:	49ad      	ldr	r1, [pc, #692]	@ (20000ec4 <_ZN12ComputerCardC1Ev+0x3ec>)
20000c0e:	185b      	adds	r3, r3, r1
20000c10:	4641      	mov	r1, r8
20000c12:	6019      	str	r1, [r3, #0]
20000c14:	2310      	movs	r3, #16
20000c16:	6053      	str	r3, [r2, #4]
20000c18:	6016      	str	r6, [r2, #0]
20000c1a:	7823      	ldrb	r3, [r4, #0]
20000c1c:	085a      	lsrs	r2, r3, #1
20000c1e:	2b1f      	cmp	r3, #31
20000c20:	d900      	bls.n	20000c24 <_ZN12ComputerCardC1Ev+0x14c>
20000c22:	e138      	b.n	20000e96 <_ZN12ComputerCardC1Ev+0x3be>
20000c24:	2107      	movs	r1, #7
20000c26:	4011      	ands	r1, r2
20000c28:	008a      	lsls	r2, r1, #2
20000c2a:	1852      	adds	r2, r2, r1
20000c2c:	49a4      	ldr	r1, [pc, #656]	@ (20000ec0 <_ZN12ComputerCardC1Ev+0x3e8>)
20000c2e:	0092      	lsls	r2, r2, #2
20000c30:	1851      	adds	r1, r2, r1
20000c32:	6809      	ldr	r1, [r1, #0]
20000c34:	4640      	mov	r0, r8
20000c36:	468c      	mov	ip, r1
20000c38:	0031      	movs	r1, r6
20000c3a:	4019      	ands	r1, r3
20000c3c:	4249      	negs	r1, r1
20000c3e:	4041      	eors	r1, r0
20000c40:	4660      	mov	r0, ip
20000c42:	4001      	ands	r1, r0
20000c44:	48a0      	ldr	r0, [pc, #640]	@ (20000ec8 <_ZN12ComputerCardC1Ev+0x3f0>)
20000c46:	3301      	adds	r3, #1
20000c48:	1812      	adds	r2, r2, r0
20000c4a:	6011      	str	r1, [r2, #0]
20000c4c:	085a      	lsrs	r2, r3, #1
20000c4e:	2b1f      	cmp	r3, #31
20000c50:	dd00      	ble.n	20000c54 <_ZN12ComputerCardC1Ev+0x17c>
20000c52:	e11c      	b.n	20000e8e <_ZN12ComputerCardC1Ev+0x3b6>
20000c54:	2107      	movs	r1, #7
20000c56:	4011      	ands	r1, r2
20000c58:	4640      	mov	r0, r8
20000c5a:	008a      	lsls	r2, r1, #2
20000c5c:	1852      	adds	r2, r2, r1
20000c5e:	4998      	ldr	r1, [pc, #608]	@ (20000ec0 <_ZN12ComputerCardC1Ev+0x3e8>)
20000c60:	0092      	lsls	r2, r2, #2
20000c62:	1851      	adds	r1, r2, r1
20000c64:	4033      	ands	r3, r6
20000c66:	6809      	ldr	r1, [r1, #0]
20000c68:	425b      	negs	r3, r3
20000c6a:	4043      	eors	r3, r0
20000c6c:	400b      	ands	r3, r1
20000c6e:	4996      	ldr	r1, [pc, #600]	@ (20000ec8 <_ZN12ComputerCardC1Ev+0x3f0>)
20000c70:	3402      	adds	r4, #2
20000c72:	1852      	adds	r2, r2, r1
20000c74:	6013      	str	r3, [r2, #0]
20000c76:	4b95      	ldr	r3, [pc, #596]	@ (20000ecc <_ZN12ComputerCardC1Ev+0x3f4>)
20000c78:	429c      	cmp	r4, r3
20000c7a:	d18d      	bne.n	20000b98 <_ZN12ComputerCardC1Ev+0xc0>
20000c7c:	f003 fe44 	bl	20004908 <adc_init>
20000c80:	211f      	movs	r1, #31
20000c82:	201b      	movs	r0, #27
20000c84:	f002 f958 	bl	20002f38 <gpio_set_function>
20000c88:	2200      	movs	r2, #0
20000c8a:	2100      	movs	r1, #0
20000c8c:	201b      	movs	r0, #27
20000c8e:	f002 f96b 	bl	20002f68 <gpio_set_pulls>
20000c92:	2100      	movs	r1, #0
20000c94:	201b      	movs	r0, #27
20000c96:	f002 f979 	bl	20002f8c <gpio_set_input_enabled>
20000c9a:	211f      	movs	r1, #31
20000c9c:	201a      	movs	r0, #26
20000c9e:	f002 f94b 	bl	20002f38 <gpio_set_function>
20000ca2:	2200      	movs	r2, #0
20000ca4:	2100      	movs	r1, #0
20000ca6:	201a      	movs	r0, #26
20000ca8:	f002 f95e 	bl	20002f68 <gpio_set_pulls>
20000cac:	2100      	movs	r1, #0
20000cae:	201a      	movs	r0, #26
20000cb0:	f002 f96c 	bl	20002f8c <gpio_set_input_enabled>
20000cb4:	211f      	movs	r1, #31
20000cb6:	201c      	movs	r0, #28
20000cb8:	f002 f93e 	bl	20002f38 <gpio_set_function>
20000cbc:	2200      	movs	r2, #0
20000cbe:	2100      	movs	r1, #0
20000cc0:	201c      	movs	r0, #28
20000cc2:	f002 f951 	bl	20002f68 <gpio_set_pulls>
20000cc6:	2100      	movs	r1, #0
20000cc8:	201c      	movs	r0, #28
20000cca:	f002 f95f 	bl	20002f8c <gpio_set_input_enabled>
20000cce:	211f      	movs	r1, #31
20000cd0:	201d      	movs	r0, #29
20000cd2:	f002 f931 	bl	20002f38 <gpio_set_function>
20000cd6:	2200      	movs	r2, #0
20000cd8:	2100      	movs	r1, #0
20000cda:	201d      	movs	r0, #29
20000cdc:	f002 f944 	bl	20002f68 <gpio_set_pulls>
20000ce0:	2100      	movs	r1, #0
20000ce2:	201d      	movs	r0, #29
20000ce4:	f002 f952 	bl	20002f8c <gpio_set_input_enabled>
20000ce8:	2018      	movs	r0, #24
20000cea:	f002 f961 	bl	20002fb0 <gpio_init>
20000cee:	2019      	movs	r0, #25
20000cf0:	f002 f95e 	bl	20002fb0 <gpio_init>
20000cf4:	24d0      	movs	r4, #208	@ 0xd0
20000cf6:	2380      	movs	r3, #128	@ 0x80
20000cf8:	0624      	lsls	r4, r4, #24
20000cfa:	045b      	lsls	r3, r3, #17
20000cfc:	6263      	str	r3, [r4, #36]	@ 0x24
20000cfe:	2380      	movs	r3, #128	@ 0x80
20000d00:	049b      	lsls	r3, r3, #18
20000d02:	6263      	str	r3, [r4, #36]	@ 0x24
20000d04:	2008      	movs	r0, #8
20000d06:	f002 f953 	bl	20002fb0 <gpio_init>
20000d0a:	2380      	movs	r3, #128	@ 0x80
20000d0c:	005b      	lsls	r3, r3, #1
20000d0e:	6263      	str	r3, [r4, #36]	@ 0x24
20000d10:	2009      	movs	r0, #9
20000d12:	6163      	str	r3, [r4, #20]
20000d14:	f002 f94c 	bl	20002fb0 <gpio_init>
20000d18:	2380      	movs	r3, #128	@ 0x80
20000d1a:	009b      	lsls	r3, r3, #2
20000d1c:	6263      	str	r3, [r4, #36]	@ 0x24
20000d1e:	2002      	movs	r0, #2
20000d20:	6163      	str	r3, [r4, #20]
20000d22:	f002 f945 	bl	20002fb0 <gpio_init>
20000d26:	2304      	movs	r3, #4
20000d28:	2200      	movs	r2, #0
20000d2a:	62a3      	str	r3, [r4, #40]	@ 0x28
20000d2c:	2101      	movs	r1, #1
20000d2e:	2002      	movs	r0, #2
20000d30:	f002 f91a 	bl	20002f68 <gpio_set_pulls>
20000d34:	2003      	movs	r0, #3
20000d36:	f002 f93b 	bl	20002fb0 <gpio_init>
20000d3a:	2308      	movs	r3, #8
20000d3c:	4d64      	ldr	r5, [pc, #400]	@ (20000ed0 <_ZN12ComputerCardC1Ev+0x3f8>)
20000d3e:	62a3      	str	r3, [r4, #40]	@ 0x28
20000d40:	2200      	movs	r2, #0
20000d42:	2101      	movs	r1, #1
20000d44:	2003      	movs	r0, #3
20000d46:	f002 f90f 	bl	20002f68 <gpio_set_pulls>
20000d4a:	0028      	movs	r0, r5
20000d4c:	4961      	ldr	r1, [pc, #388]	@ (20000ed4 <_ZN12ComputerCardC1Ev+0x3fc>)
20000d4e:	f003 fe37 	bl	200049c0 <spi_init>
20000d52:	2202      	movs	r2, #2
20000d54:	4690      	mov	r8, r2
20000d56:	4641      	mov	r1, r8
20000d58:	686b      	ldr	r3, [r5, #4]
20000d5a:	2012      	movs	r0, #18
20000d5c:	4013      	ands	r3, r2
20000d5e:	4a5e      	ldr	r2, [pc, #376]	@ (20000ed8 <_ZN12ComputerCardC1Ev+0x400>)
20000d60:	6011      	str	r1, [r2, #0]
20000d62:	220f      	movs	r2, #15
20000d64:	6829      	ldr	r1, [r5, #0]
20000d66:	2510      	movs	r5, #16
20000d68:	4051      	eors	r1, r2
20000d6a:	32c0      	adds	r2, #192	@ 0xc0
20000d6c:	400a      	ands	r2, r1
20000d6e:	495b      	ldr	r1, [pc, #364]	@ (20000edc <_ZN12ComputerCardC1Ev+0x404>)
20000d70:	600a      	str	r2, [r1, #0]
20000d72:	4a5b      	ldr	r2, [pc, #364]	@ (20000ee0 <_ZN12ComputerCardC1Ev+0x408>)
20000d74:	2101      	movs	r1, #1
20000d76:	6013      	str	r3, [r2, #0]
20000d78:	f002 f8de 	bl	20002f38 <gpio_set_function>
20000d7c:	2101      	movs	r1, #1
20000d7e:	2013      	movs	r0, #19
20000d80:	f002 f8da 	bl	20002f38 <gpio_set_function>
20000d84:	2101      	movs	r1, #1
20000d86:	2015      	movs	r0, #21
20000d88:	f002 f8d6 	bl	20002f38 <gpio_set_function>
20000d8c:	2104      	movs	r1, #4
20000d8e:	2017      	movs	r0, #23
20000d90:	f002 f8d2 	bl	20002f38 <gpio_set_function>
20000d94:	2104      	movs	r1, #4
20000d96:	2016      	movs	r0, #22
20000d98:	f002 f8ce 	bl	20002f38 <gpio_set_function>
20000d9c:	2200      	movs	r2, #0
20000d9e:	4b47      	ldr	r3, [pc, #284]	@ (20000ebc <_ZN12ComputerCardC1Ev+0x3e4>)
20000da0:	4950      	ldr	r1, [pc, #320]	@ (20000ee4 <_ZN12ComputerCardC1Ev+0x40c>)
20000da2:	63da      	str	r2, [r3, #60]	@ 0x3c
20000da4:	645a      	str	r2, [r3, #68]	@ 0x44
20000da6:	649a      	str	r2, [r3, #72]	@ 0x48
20000da8:	64d9      	str	r1, [r3, #76]	@ 0x4c
20000daa:	641d      	str	r5, [r3, #64]	@ 0x40
20000dac:	63de      	str	r6, [r3, #60]	@ 0x3c
20000dae:	63da      	str	r2, [r3, #60]	@ 0x3c
20000db0:	645a      	str	r2, [r3, #68]	@ 0x44
20000db2:	649a      	str	r2, [r3, #72]	@ 0x48
20000db4:	64d9      	str	r1, [r3, #76]	@ 0x4c
20000db6:	641d      	str	r5, [r3, #64]	@ 0x40
20000db8:	63de      	str	r6, [r3, #60]	@ 0x3c
20000dba:	23fa      	movs	r3, #250	@ 0xfa
20000dbc:	494a      	ldr	r1, [pc, #296]	@ (20000ee8 <_ZN12ComputerCardC1Ev+0x410>)
20000dbe:	049b      	lsls	r3, r3, #18
20000dc0:	680a      	ldr	r2, [r1, #0]
20000dc2:	2007      	movs	r0, #7
20000dc4:	4053      	eors	r3, r2
20000dc6:	0c1b      	lsrs	r3, r3, #16
20000dc8:	4a48      	ldr	r2, [pc, #288]	@ (20000eec <_ZN12ComputerCardC1Ev+0x414>)
20000dca:	041b      	lsls	r3, r3, #16
20000dcc:	6013      	str	r3, [r2, #0]
20000dce:	23fa      	movs	r3, #250	@ 0xfa
20000dd0:	6809      	ldr	r1, [r1, #0]
20000dd2:	009b      	lsls	r3, r3, #2
20000dd4:	404b      	eors	r3, r1
20000dd6:	041b      	lsls	r3, r3, #16
20000dd8:	0c1b      	lsrs	r3, r3, #16
20000dda:	6013      	str	r3, [r2, #0]
20000ddc:	f002 f8e8 	bl	20002fb0 <gpio_init>
20000de0:	2006      	movs	r0, #6
20000de2:	f002 f8e5 	bl	20002fb0 <gpio_init>
20000de6:	2005      	movs	r0, #5
20000de8:	f002 f8e2 	bl	20002fb0 <gpio_init>
20000dec:	2380      	movs	r3, #128	@ 0x80
20000dee:	62a3      	str	r3, [r4, #40]	@ 0x28
20000df0:	3b40      	subs	r3, #64	@ 0x40
20000df2:	62a3      	str	r3, [r4, #40]	@ 0x28
20000df4:	3b20      	subs	r3, #32
20000df6:	62a3      	str	r3, [r4, #40]	@ 0x28
20000df8:	2014      	movs	r0, #20
20000dfa:	f002 f8d9 	bl	20002fb0 <gpio_init>
20000dfe:	2200      	movs	r2, #0
20000e00:	2100      	movs	r1, #0
20000e02:	2014      	movs	r0, #20
20000e04:	f002 f8b0 	bl	20002f68 <gpio_set_pulls>
20000e08:	2004      	movs	r0, #4
20000e0a:	f002 f8d1 	bl	20002fb0 <gpio_init>
20000e0e:	6265      	str	r5, [r4, #36]	@ 0x24
20000e10:	4937      	ldr	r1, [pc, #220]	@ (20000ef0 <_ZN12ComputerCardC1Ev+0x418>)
20000e12:	61a5      	str	r5, [r4, #24]
20000e14:	4837      	ldr	r0, [pc, #220]	@ (20000ef4 <_ZN12ComputerCardC1Ev+0x41c>)
20000e16:	f003 ffe5 	bl	20004de4 <i2c_init>
20000e1a:	2103      	movs	r1, #3
20000e1c:	2010      	movs	r0, #16
20000e1e:	f002 f88b 	bl	20002f38 <gpio_set_function>
20000e22:	2103      	movs	r1, #3
20000e24:	2011      	movs	r0, #17
20000e26:	f002 f887 	bl	20002f38 <gpio_set_function>
20000e2a:	2000      	movs	r0, #0
20000e2c:	f002 f8c0 	bl	20002fb0 <gpio_init>
20000e30:	6266      	str	r6, [r4, #36]	@ 0x24
20000e32:	2001      	movs	r0, #1
20000e34:	f002 f8bc 	bl	20002fb0 <gpio_init>
20000e38:	4643      	mov	r3, r8
20000e3a:	0038      	movs	r0, r7
20000e3c:	6263      	str	r3, [r4, #36]	@ 0x24
20000e3e:	f7ff f9f1 	bl	20000224 <_ZN12ComputerCard20ProbeHardwareVersionEv>
20000e42:	23f0      	movs	r3, #240	@ 0xf0
20000e44:	54f8      	strb	r0, [r7, r3]
20000e46:	0038      	movs	r0, r7
20000e48:	f7ff fc8e 	bl	20000768 <_ZN12ComputerCard10ReadEEPROMEv>
20000e4c:	239f      	movs	r3, #159	@ 0x9f
20000e4e:	4046      	eors	r6, r0
20000e50:	2001      	movs	r0, #1
20000e52:	005b      	lsls	r3, r3, #1
20000e54:	4030      	ands	r0, r6
20000e56:	54f8      	strb	r0, [r7, r3]
20000e58:	3b56      	subs	r3, #86	@ 0x56
20000e5a:	4698      	mov	r8, r3
20000e5c:	44b8      	add	r8, r7
20000e5e:	4640      	mov	r0, r8
20000e60:	f003 fd34 	bl	200048cc <flash_get_unique_id>
20000e64:	2614      	movs	r6, #20
20000e66:	4643      	mov	r3, r8
20000e68:	4c23      	ldr	r4, [pc, #140]	@ (20000ef8 <_ZN12ComputerCardC1Ev+0x420>)
20000e6a:	4d24      	ldr	r5, [pc, #144]	@ (20000efc <_ZN12ComputerCardC1Ev+0x424>)
20000e6c:	cb03      	ldmia	r3!, {r0, r1}
20000e6e:	4a24      	ldr	r2, [pc, #144]	@ (20000f00 <_ZN12ComputerCardC1Ev+0x428>)
20000e70:	4b24      	ldr	r3, [pc, #144]	@ (20000f04 <_ZN12ComputerCardC1Ev+0x42c>)
20000e72:	f003 fa83 	bl	2000437c <__wrap___aeabi_lmul>
20000e76:	3e01      	subs	r6, #1
20000e78:	1900      	adds	r0, r0, r4
20000e7a:	4169      	adcs	r1, r5
20000e7c:	2e00      	cmp	r6, #0
20000e7e:	d1f6      	bne.n	20000e6e <_ZN12ComputerCardC1Ev+0x396>
20000e80:	4643      	mov	r3, r8
20000e82:	c303      	stmia	r3!, {r0, r1}
20000e84:	0038      	movs	r0, r7
20000e86:	bcc0      	pop	{r6, r7}
20000e88:	46b9      	mov	r9, r7
20000e8a:	46b0      	mov	r8, r6
20000e8c:	bdf8      	pop	{r3, r4, r5, r6, r7, pc}
20000e8e:	2103      	movs	r1, #3
20000e90:	4011      	ands	r1, r2
20000e92:	3108      	adds	r1, #8
20000e94:	e6e0      	b.n	20000c58 <_ZN12ComputerCardC1Ev+0x180>
20000e96:	2103      	movs	r1, #3
20000e98:	4011      	ands	r1, r2
20000e9a:	3108      	adds	r1, #8
20000e9c:	e6c4      	b.n	20000c28 <_ZN12ComputerCardC1Ev+0x150>
20000e9e:	46c0      	nop			@ (mov r8, r8)
20000ea0:	20005b74 	.word	0x20005b74
20000ea4:	4004f000 	.word	0x4004f000
20000ea8:	4004c000 	.word	0x4004c000
20000eac:	4004d000 	.word	0x4004d000
20000eb0:	0000ffff 	.word	0x0000ffff
20000eb4:	20005bb8 	.word	0x20005bb8
20000eb8:	40050008 	.word	0x40050008
20000ebc:	40050000 	.word	0x40050000
20000ec0:	4005000c 	.word	0x4005000c
20000ec4:	40050010 	.word	0x40050010
20000ec8:	4005100c 	.word	0x4005100c
20000ecc:	20005bbe 	.word	0x20005bbe
20000ed0:	4003c000 	.word	0x4003c000
20000ed4:	00ee6b28 	.word	0x00ee6b28
20000ed8:	4003f004 	.word	0x4003f004
20000edc:	4003d000 	.word	0x4003d000
20000ee0:	4003e004 	.word	0x4003e004
20000ee4:	000007cf 	.word	0x000007cf
20000ee8:	40050048 	.word	0x40050048
20000eec:	40051048 	.word	0x40051048
20000ef0:	000186a0 	.word	0x000186a0
20000ef4:	200069f0 	.word	0x200069f0
20000ef8:	f767814f 	.word	0xf767814f
20000efc:	14057b7e 	.word	0x14057b7e
20000f00:	4c957f2d 	.word	0x4c957f2d
20000f04:	5851f42d 	.word	0x5851f42d
20000f08:	2203      	movs	r2, #3
20000f0a:	400a      	ands	r2, r1
20000f0c:	3208      	adds	r2, #8
20000f0e:	e671      	b.n	20000bf4 <_ZN12ComputerCardC1Ev+0x11c>
20000f10:	2203      	movs	r2, #3
20000f12:	401a      	ands	r2, r3
20000f14:	3208      	adds	r2, #8
20000f16:	e652      	b.n	20000bbe <_ZN12ComputerCardC1Ev+0xe6>

20000f18 <_ZN6C1ZZL316outputSynthVoiceElllll>:
20000f18:	b5f0      	push	{r4, r5, r6, r7, lr}
20000f1a:	4645      	mov	r5, r8
20000f1c:	464e      	mov	r6, r9
20000f1e:	46de      	mov	lr, fp
20000f20:	4657      	mov	r7, sl
20000f22:	001c      	movs	r4, r3
20000f24:	23d8      	movs	r3, #216	@ 0xd8
20000f26:	b5e0      	push	{r5, r6, r7, lr}
20000f28:	33ff      	adds	r3, #255	@ 0xff
20000f2a:	5cc3      	ldrb	r3, [r0, r3]
20000f2c:	b0a9      	sub	sp, #164	@ 0xa4
20000f2e:	0005      	movs	r5, r0
20000f30:	4689      	mov	r9, r1
20000f32:	4690      	mov	r8, r2
20000f34:	9303      	str	r3, [sp, #12]
20000f36:	2b00      	cmp	r3, #0
20000f38:	d004      	beq.n	20000f44 <_ZN6C1ZZL316outputSynthVoiceElllll+0x2c>
20000f3a:	23eb      	movs	r3, #235	@ 0xeb
20000f3c:	005b      	lsls	r3, r3, #1
20000f3e:	5cc6      	ldrb	r6, [r0, r3]
20000f40:	2e00      	cmp	r6, #0
20000f42:	d163      	bne.n	2000100c <_ZN6C1ZZL316outputSynthVoiceElllll+0xf4>
20000f44:	23e4      	movs	r3, #228	@ 0xe4
20000f46:	2200      	movs	r2, #0
20000f48:	005b      	lsls	r3, r3, #1
20000f4a:	58eb      	ldr	r3, [r5, r3]
20000f4c:	9202      	str	r2, [sp, #8]
20000f4e:	4498      	add	r8, r3
20000f50:	2380      	movs	r3, #128	@ 0x80
20000f52:	015b      	lsls	r3, r3, #5
20000f54:	4598      	cmp	r8, r3
20000f56:	db52      	blt.n	20000ffe <_ZN6C1ZZL316outputSynthVoiceElllll+0xe6>
20000f58:	4b89      	ldr	r3, [pc, #548]	@ (20001180 <_ZN6C1ZZL316outputSynthVoiceElllll+0x268>)
20000f5a:	4698      	mov	r8, r3
20000f5c:	23b6      	movs	r3, #182	@ 0xb6
20000f5e:	005b      	lsls	r3, r3, #1
20000f60:	58ee      	ldr	r6, [r5, r3]
20000f62:	4647      	mov	r7, r8
20000f64:	444e      	add	r6, r9
20000f66:	50ee      	str	r6, [r5, r3]
20000f68:	9b33      	ldr	r3, [sp, #204]	@ 0xcc
20000f6a:	2b00      	cmp	r3, #0
20000f6c:	dc58      	bgt.n	20001020 <_ZN6C1ZZL316outputSynthVoiceElllll+0x108>
20000f6e:	437f      	muls	r7, r7
20000f70:	0b3b      	lsrs	r3, r7, #12
20000f72:	9305      	str	r3, [sp, #20]
20000f74:	0db3      	lsrs	r3, r6, #22
20000f76:	005a      	lsls	r2, r3, #1
20000f78:	3301      	adds	r3, #1
20000f7a:	4f82      	ldr	r7, [pc, #520]	@ (20001184 <_ZN6C1ZZL316outputSynthVoiceElllll+0x26c>)
20000f7c:	059b      	lsls	r3, r3, #22
20000f7e:	0d5b      	lsrs	r3, r3, #21
20000f80:	5eba      	ldrsh	r2, [r7, r2]
20000f82:	5ef9      	ldrsh	r1, [r7, r3]
20000f84:	02b3      	lsls	r3, r6, #10
20000f86:	1a89      	subs	r1, r1, r2
20000f88:	0d9b      	lsrs	r3, r3, #22
20000f8a:	434b      	muls	r3, r1
20000f8c:	00e1      	lsls	r1, r4, #3
20000f8e:	129b      	asrs	r3, r3, #10
20000f90:	189b      	adds	r3, r3, r2
20000f92:	1b09      	subs	r1, r1, r4
20000f94:	469a      	mov	sl, r3
20000f96:	0b0b      	lsrs	r3, r1, #12
20000f98:	0509      	lsls	r1, r1, #20
20000f9a:	0d09      	lsrs	r1, r1, #20
20000f9c:	469b      	mov	fp, r3
20000f9e:	000b      	movs	r3, r1
20000fa0:	434b      	muls	r3, r1
20000fa2:	0b1b      	lsrs	r3, r3, #12
20000fa4:	005a      	lsls	r2, r3, #1
20000fa6:	18d2      	adds	r2, r2, r3
20000fa8:	434b      	muls	r3, r1
20000faa:	0b1b      	lsrs	r3, r3, #12
20000fac:	005b      	lsls	r3, r3, #1
20000fae:	1ad3      	subs	r3, r2, r3
20000fb0:	4975      	ldr	r1, [pc, #468]	@ (20001188 <_ZN6C1ZZL316outputSynthVoiceElllll+0x270>)
20000fb2:	9300      	str	r3, [sp, #0]
20000fb4:	0d33      	lsrs	r3, r6, #20
20000fb6:	18c9      	adds	r1, r1, r3
20000fb8:	9301      	str	r3, [sp, #4]
20000fba:	9104      	str	r1, [sp, #16]
20000fbc:	2e00      	cmp	r6, #0
20000fbe:	db5e      	blt.n	2000107e <_ZN6C1ZZL316outputSynthVoiceElllll+0x166>
20000fc0:	2b7f      	cmp	r3, #127	@ 0x7f
20000fc2:	d800      	bhi.n	20000fc6 <_ZN6C1ZZL316outputSynthVoiceElllll+0xae>
20000fc4:	e38a      	b.n	200016dc <_ZN6C1ZZL316outputSynthVoiceElllll+0x7c4>
20000fc6:	4b70      	ldr	r3, [pc, #448]	@ (20001188 <_ZN6C1ZZL316outputSynthVoiceElllll+0x270>)
20000fc8:	4652      	mov	r2, sl
20000fca:	10d2      	asrs	r2, r2, #3
20000fcc:	4694      	mov	ip, r2
20000fce:	0074      	lsls	r4, r6, #1
20000fd0:	0da2      	lsrs	r2, r4, #22
20000fd2:	0051      	lsls	r1, r2, #1
20000fd4:	3201      	adds	r2, #1
20000fd6:	0592      	lsls	r2, r2, #22
20000fd8:	0d52      	lsrs	r2, r2, #21
20000fda:	5e79      	ldrsh	r1, [r7, r1]
20000fdc:	5eba      	ldrsh	r2, [r7, r2]
20000fde:	9406      	str	r4, [sp, #24]
20000fe0:	02a4      	lsls	r4, r4, #10
20000fe2:	1a52      	subs	r2, r2, r1
20000fe4:	0da4      	lsrs	r4, r4, #22
20000fe6:	4354      	muls	r4, r2
20000fe8:	465a      	mov	r2, fp
20000fea:	12a4      	asrs	r4, r4, #10
20000fec:	1864      	adds	r4, r4, r1
20000fee:	2a06      	cmp	r2, #6
20000ff0:	d901      	bls.n	20000ff6 <_ZN6C1ZZL316outputSynthVoiceElllll+0xde>
20000ff2:	f000 fbd4 	bl	2000179e <_ZN6C1ZZL316outputSynthVoiceElllll+0x886>
20000ff6:	4965      	ldr	r1, [pc, #404]	@ (2000118c <_ZN6C1ZZL316outputSynthVoiceElllll+0x274>)
20000ff8:	0092      	lsls	r2, r2, #2
20000ffa:	588a      	ldr	r2, [r1, r2]
20000ffc:	4697      	mov	pc, r2
20000ffe:	4643      	mov	r3, r8
20001000:	43db      	mvns	r3, r3
20001002:	4642      	mov	r2, r8
20001004:	17db      	asrs	r3, r3, #31
20001006:	401a      	ands	r2, r3
20001008:	4690      	mov	r8, r2
2000100a:	e7a7      	b.n	20000f5c <_ZN6C1ZZL316outputSynthVoiceElllll+0x44>
2000100c:	9b03      	ldr	r3, [sp, #12]
2000100e:	af08      	add	r7, sp, #32
20001010:	2b08      	cmp	r3, #8
20001012:	d901      	bls.n	20001018 <_ZN6C1ZZL316outputSynthVoiceElllll+0x100>
20001014:	f000 fdad 	bl	20001b72 <_ZN6C1ZZL316outputSynthVoiceElllll+0xc5a>
20001018:	4a5d      	ldr	r2, [pc, #372]	@ (20001190 <_ZN6C1ZZL316outputSynthVoiceElllll+0x278>)
2000101a:	009b      	lsls	r3, r3, #2
2000101c:	58d3      	ldr	r3, [r2, r3]
2000101e:	469f      	mov	pc, r3
20001020:	22d8      	movs	r2, #216	@ 0xd8
20001022:	2180      	movs	r1, #128	@ 0x80
20001024:	0052      	lsls	r2, r2, #1
20001026:	58ab      	ldr	r3, [r5, r2]
20001028:	0089      	lsls	r1, r1, #2
2000102a:	3301      	adds	r3, #1
2000102c:	50ab      	str	r3, [r5, r2]
2000102e:	428b      	cmp	r3, r1
20001030:	d22b      	bcs.n	2000108a <_ZN6C1ZZL316outputSynthVoiceElllll+0x172>
20001032:	23da      	movs	r3, #218	@ 0xda
20001034:	005b      	lsls	r3, r3, #1
20001036:	58ef      	ldr	r7, [r5, r3]
20001038:	3304      	adds	r3, #4
2000103a:	58eb      	ldr	r3, [r5, r3]
2000103c:	469a      	mov	sl, r3
2000103e:	2280      	movs	r2, #128	@ 0x80
20001040:	9b33      	ldr	r3, [sp, #204]	@ 0xcc
20001042:	0152      	lsls	r2, r2, #5
20001044:	4293      	cmp	r3, r2
20001046:	db00      	blt.n	2000104a <_ZN6C1ZZL316outputSynthVoiceElllll+0x132>
20001048:	4b4d      	ldr	r3, [pc, #308]	@ (20001180 <_ZN6C1ZZL316outputSynthVoiceElllll+0x268>)
2000104a:	435b      	muls	r3, r3
2000104c:	0b1b      	lsrs	r3, r3, #12
2000104e:	0098      	lsls	r0, r3, #2
20001050:	18c0      	adds	r0, r0, r3
20001052:	0040      	lsls	r0, r0, #1
20001054:	18c0      	adds	r0, r0, r3
20001056:	2114      	movs	r1, #20
20001058:	f003 f8da 	bl	20004210 <__wrap___aeabi_idiv>
2000105c:	2380      	movs	r3, #128	@ 0x80
2000105e:	4347      	muls	r7, r0
20001060:	12bf      	asrs	r7, r7, #10
20001062:	4447      	add	r7, r8
20001064:	015b      	lsls	r3, r3, #5
20001066:	429f      	cmp	r7, r3
20001068:	db05      	blt.n	20001076 <_ZN6C1ZZL316outputSynthVoiceElllll+0x15e>
2000106a:	4f45      	ldr	r7, [pc, #276]	@ (20001180 <_ZN6C1ZZL316outputSynthVoiceElllll+0x268>)
2000106c:	4653      	mov	r3, sl
2000106e:	1180      	asrs	r0, r0, #6
20001070:	4358      	muls	r0, r3
20001072:	1836      	adds	r6, r6, r0
20001074:	e77b      	b.n	20000f6e <_ZN6C1ZZL316outputSynthVoiceElllll+0x56>
20001076:	43fb      	mvns	r3, r7
20001078:	17db      	asrs	r3, r3, #31
2000107a:	401f      	ands	r7, r3
2000107c:	e7f6      	b.n	2000106c <_ZN6C1ZZL316outputSynthVoiceElllll+0x154>
2000107e:	297f      	cmp	r1, #127	@ 0x7f
20001080:	d801      	bhi.n	20001086 <_ZN6C1ZZL316outputSynthVoiceElllll+0x16e>
20001082:	f000 fd90 	bl	20001ba6 <_ZN6C1ZZL316outputSynthVoiceElllll+0xc8e>
20001086:	4b43      	ldr	r3, [pc, #268]	@ (20001194 <_ZN6C1ZZL316outputSynthVoiceElllll+0x27c>)
20001088:	e79e      	b.n	20000fc8 <_ZN6C1ZZL316outputSynthVoiceElllll+0xb0>
2000108a:	2300      	movs	r3, #0
2000108c:	21d6      	movs	r1, #214	@ 0xd6
2000108e:	4842      	ldr	r0, [pc, #264]	@ (20001198 <_ZN6C1ZZL316outputSynthVoiceElllll+0x280>)
20001090:	50ab      	str	r3, [r5, r2]
20001092:	4684      	mov	ip, r0
20001094:	20da      	movs	r0, #218	@ 0xda
20001096:	0049      	lsls	r1, r1, #1
20001098:	586a      	ldr	r2, [r5, r1]
2000109a:	4b40      	ldr	r3, [pc, #256]	@ (2000119c <_ZN6C1ZZL316outputSynthVoiceElllll+0x284>)
2000109c:	0040      	lsls	r0, r0, #1
2000109e:	435a      	muls	r2, r3
200010a0:	4462      	add	r2, ip
200010a2:	4353      	muls	r3, r2
200010a4:	0e17      	lsrs	r7, r2, #24
200010a6:	4463      	add	r3, ip
200010a8:	3f80      	subs	r7, #128	@ 0x80
200010aa:	502f      	str	r7, [r5, r0]
200010ac:	506b      	str	r3, [r5, r1]
200010ae:	0e1b      	lsrs	r3, r3, #24
200010b0:	3b80      	subs	r3, #128	@ 0x80
200010b2:	001a      	movs	r2, r3
200010b4:	469a      	mov	sl, r3
200010b6:	23dc      	movs	r3, #220	@ 0xdc
200010b8:	005b      	lsls	r3, r3, #1
200010ba:	50ea      	str	r2, [r5, r3]
200010bc:	e7bf      	b.n	2000103e <_ZN6C1ZZL316outputSynthVoiceElllll+0x126>
200010be:	2203      	movs	r2, #3
200010c0:	0023      	movs	r3, r4
200010c2:	4664      	mov	r4, ip
200010c4:	9207      	str	r2, [sp, #28]
200010c6:	9a00      	ldr	r2, [sp, #0]
200010c8:	1b1b      	subs	r3, r3, r4
200010ca:	4353      	muls	r3, r2
200010cc:	4652      	mov	r2, sl
200010ce:	46d4      	mov	ip, sl
200010d0:	131b      	asrs	r3, r3, #12
200010d2:	9905      	ldr	r1, [sp, #20]
200010d4:	191b      	adds	r3, r3, r4
200010d6:	1a9b      	subs	r3, r3, r2
200010d8:	434b      	muls	r3, r1
200010da:	131b      	asrs	r3, r3, #12
200010dc:	449c      	add	ip, r3
200010de:	23fc      	movs	r3, #252	@ 0xfc
200010e0:	005b      	lsls	r3, r3, #1
200010e2:	58ea      	ldr	r2, [r5, r3]
200010e4:	4649      	mov	r1, r9
200010e6:	0013      	movs	r3, r2
200010e8:	4353      	muls	r3, r2
200010ea:	12db      	asrs	r3, r3, #11
200010ec:	434b      	muls	r3, r1
200010ee:	131b      	asrs	r3, r3, #12
200010f0:	46e2      	mov	sl, ip
200010f2:	18ce      	adds	r6, r1, r3
200010f4:	2a00      	cmp	r2, #0
200010f6:	da00      	bge.n	200010fa <_ZN6C1ZZL316outputSynthVoiceElllll+0x1e2>
200010f8:	1ace      	subs	r6, r1, r3
200010fa:	23b8      	movs	r3, #184	@ 0xb8
200010fc:	005b      	lsls	r3, r3, #1
200010fe:	58ea      	ldr	r2, [r5, r3]
20001100:	18b6      	adds	r6, r6, r2
20001102:	50ee      	str	r6, [r5, r3]
20001104:	9b33      	ldr	r3, [sp, #204]	@ 0xcc
20001106:	2b00      	cmp	r3, #0
20001108:	dd00      	ble.n	2000110c <_ZN6C1ZZL316outputSynthVoiceElllll+0x1f4>
2000110a:	e2eb      	b.n	200016e4 <_ZN6C1ZZL316outputSynthVoiceElllll+0x7cc>
2000110c:	4643      	mov	r3, r8
2000110e:	435b      	muls	r3, r3
20001110:	0b1b      	lsrs	r3, r3, #12
20001112:	9304      	str	r3, [sp, #16]
20001114:	0db3      	lsrs	r3, r6, #22
20001116:	005a      	lsls	r2, r3, #1
20001118:	3301      	adds	r3, #1
2000111a:	059b      	lsls	r3, r3, #22
2000111c:	0d5b      	lsrs	r3, r3, #21
2000111e:	5eba      	ldrsh	r2, [r7, r2]
20001120:	5ef9      	ldrsh	r1, [r7, r3]
20001122:	02b3      	lsls	r3, r6, #10
20001124:	1a89      	subs	r1, r1, r2
20001126:	0d9b      	lsrs	r3, r3, #22
20001128:	434b      	muls	r3, r1
2000112a:	129b      	asrs	r3, r3, #10
2000112c:	189b      	adds	r3, r3, r2
2000112e:	9301      	str	r3, [sp, #4]
20001130:	0d33      	lsrs	r3, r6, #20
20001132:	4698      	mov	r8, r3
20001134:	4b14      	ldr	r3, [pc, #80]	@ (20001188 <_ZN6C1ZZL316outputSynthVoiceElllll+0x270>)
20001136:	4443      	add	r3, r8
20001138:	9305      	str	r3, [sp, #20]
2000113a:	2e00      	cmp	r6, #0
2000113c:	da00      	bge.n	20001140 <_ZN6C1ZZL316outputSynthVoiceElllll+0x228>
2000113e:	e305      	b.n	2000174c <_ZN6C1ZZL316outputSynthVoiceElllll+0x834>
20001140:	4643      	mov	r3, r8
20001142:	4911      	ldr	r1, [pc, #68]	@ (20001188 <_ZN6C1ZZL316outputSynthVoiceElllll+0x270>)
20001144:	2b7f      	cmp	r3, #127	@ 0x7f
20001146:	d800      	bhi.n	2000114a <_ZN6C1ZZL316outputSynthVoiceElllll+0x232>
20001148:	e326      	b.n	20001798 <_ZN6C1ZZL316outputSynthVoiceElllll+0x880>
2000114a:	9b01      	ldr	r3, [sp, #4]
2000114c:	10db      	asrs	r3, r3, #3
2000114e:	4699      	mov	r9, r3
20001150:	0070      	lsls	r0, r6, #1
20001152:	0d83      	lsrs	r3, r0, #22
20001154:	005a      	lsls	r2, r3, #1
20001156:	3301      	adds	r3, #1
20001158:	059b      	lsls	r3, r3, #22
2000115a:	0d5b      	lsrs	r3, r3, #21
2000115c:	5eba      	ldrsh	r2, [r7, r2]
2000115e:	5efb      	ldrsh	r3, [r7, r3]
20001160:	0284      	lsls	r4, r0, #10
20001162:	1a9b      	subs	r3, r3, r2
20001164:	0da4      	lsrs	r4, r4, #22
20001166:	435c      	muls	r4, r3
20001168:	465b      	mov	r3, fp
2000116a:	12a4      	asrs	r4, r4, #10
2000116c:	9006      	str	r0, [sp, #24]
2000116e:	18a4      	adds	r4, r4, r2
20001170:	2b06      	cmp	r3, #6
20001172:	d900      	bls.n	20001176 <_ZN6C1ZZL316outputSynthVoiceElllll+0x25e>
20001174:	e37a      	b.n	2000186c <_ZN6C1ZZL316outputSynthVoiceElllll+0x954>
20001176:	4a0a      	ldr	r2, [pc, #40]	@ (200011a0 <_ZN6C1ZZL316outputSynthVoiceElllll+0x288>)
20001178:	009b      	lsls	r3, r3, #2
2000117a:	58d3      	ldr	r3, [r2, r3]
2000117c:	469f      	mov	pc, r3
2000117e:	46c0      	nop			@ (mov r8, r8)
20001180:	00000fff 	.word	0x00000fff
20001184:	20006040 	.word	0x20006040
20001188:	fffff800 	.word	0xfffff800
2000118c:	20005abc 	.word	0x20005abc
20001190:	20005ad8 	.word	0x20005ad8
20001194:	000007ff 	.word	0x000007ff
20001198:	3c6ef35f 	.word	0x3c6ef35f
2000119c:	0019660d 	.word	0x0019660d
200011a0:	20005afc 	.word	0x20005afc
200011a4:	4643      	mov	r3, r8
200011a6:	4aca      	ldr	r2, [pc, #808]	@ (200014d0 <_ZN6C1ZZL316outputSynthVoiceElllll+0x5b8>)
200011a8:	1ad2      	subs	r2, r2, r3
200011aa:	9b06      	ldr	r3, [sp, #24]
200011ac:	199b      	adds	r3, r3, r6
200011ae:	005b      	lsls	r3, r3, #1
200011b0:	0d98      	lsrs	r0, r3, #22
200011b2:	0041      	lsls	r1, r0, #1
200011b4:	3001      	adds	r0, #1
200011b6:	0580      	lsls	r0, r0, #22
200011b8:	0d40      	lsrs	r0, r0, #21
200011ba:	5e79      	ldrsh	r1, [r7, r1]
200011bc:	5e38      	ldrsh	r0, [r7, r0]
200011be:	029b      	lsls	r3, r3, #10
200011c0:	1a40      	subs	r0, r0, r1
200011c2:	0d9b      	lsrs	r3, r3, #22
200011c4:	4343      	muls	r3, r0
200011c6:	129b      	asrs	r3, r3, #10
200011c8:	185b      	adds	r3, r3, r1
200011ca:	9905      	ldr	r1, [sp, #20]
200011cc:	4353      	muls	r3, r2
200011ce:	434a      	muls	r2, r1
200011d0:	131b      	asrs	r3, r3, #12
200011d2:	1352      	asrs	r2, r2, #13
200011d4:	189a      	adds	r2, r3, r2
200011d6:	4bbf      	ldr	r3, [pc, #764]	@ (200014d4 <_ZN6C1ZZL316outputSynthVoiceElllll+0x5bc>)
200011d8:	4691      	mov	r9, r2
200011da:	429a      	cmp	r2, r3
200011dc:	da00      	bge.n	200011e0 <_ZN6C1ZZL316outputSynthVoiceElllll+0x2c8>
200011de:	4699      	mov	r9, r3
200011e0:	2380      	movs	r3, #128	@ 0x80
200011e2:	011b      	lsls	r3, r3, #4
200011e4:	4599      	cmp	r9, r3
200011e6:	db01      	blt.n	200011ec <_ZN6C1ZZL316outputSynthVoiceElllll+0x2d4>
200011e8:	4bbb      	ldr	r3, [pc, #748]	@ (200014d8 <_ZN6C1ZZL316outputSynthVoiceElllll+0x5c0>)
200011ea:	4699      	mov	r9, r3
200011ec:	4643      	mov	r3, r8
200011ee:	2b7f      	cmp	r3, #127	@ 0x7f
200011f0:	d800      	bhi.n	200011f4 <_ZN6C1ZZL316outputSynthVoiceElllll+0x2dc>
200011f2:	e3ae      	b.n	20001952 <_ZN6C1ZZL316outputSynthVoiceElllll+0xa3a>
200011f4:	2380      	movs	r3, #128	@ 0x80
200011f6:	011b      	lsls	r3, r3, #4
200011f8:	4598      	cmp	r8, r3
200011fa:	d200      	bcs.n	200011fe <_ZN6C1ZZL316outputSynthVoiceElllll+0x2e6>
200011fc:	e3a9      	b.n	20001952 <_ZN6C1ZZL316outputSynthVoiceElllll+0xa3a>
200011fe:	4642      	mov	r2, r8
20001200:	4bb3      	ldr	r3, [pc, #716]	@ (200014d0 <_ZN6C1ZZL316outputSynthVoiceElllll+0x5b8>)
20001202:	0051      	lsls	r1, r2, #1
20001204:	1a9b      	subs	r3, r3, r2
20001206:	4ab5      	ldr	r2, [pc, #724]	@ (200014dc <_ZN6C1ZZL316outputSynthVoiceElllll+0x5c4>)
20001208:	005b      	lsls	r3, r3, #1
2000120a:	1a52      	subs	r2, r2, r1
2000120c:	00b4      	lsls	r4, r6, #2
2000120e:	19a4      	adds	r4, r4, r6
20001210:	0da0      	lsrs	r0, r4, #22
20001212:	0041      	lsls	r1, r0, #1
20001214:	3001      	adds	r0, #1
20001216:	0580      	lsls	r0, r0, #22
20001218:	0d40      	lsrs	r0, r0, #21
2000121a:	5e79      	ldrsh	r1, [r7, r1]
2000121c:	5e38      	ldrsh	r0, [r7, r0]
2000121e:	02a4      	lsls	r4, r4, #10
20001220:	1a40      	subs	r0, r0, r1
20001222:	0da4      	lsrs	r4, r4, #22
20001224:	4344      	muls	r4, r0
20001226:	12a4      	asrs	r4, r4, #10
20001228:	1864      	adds	r4, r4, r1
2000122a:	435c      	muls	r4, r3
2000122c:	4353      	muls	r3, r2
2000122e:	1324      	asrs	r4, r4, #12
20001230:	139b      	asrs	r3, r3, #14
20001232:	18e4      	adds	r4, r4, r3
20001234:	4ba7      	ldr	r3, [pc, #668]	@ (200014d4 <_ZN6C1ZZL316outputSynthVoiceElllll+0x5bc>)
20001236:	429c      	cmp	r4, r3
20001238:	da00      	bge.n	2000123c <_ZN6C1ZZL316outputSynthVoiceElllll+0x324>
2000123a:	001c      	movs	r4, r3
2000123c:	2380      	movs	r3, #128	@ 0x80
2000123e:	011b      	lsls	r3, r3, #4
20001240:	429c      	cmp	r4, r3
20001242:	db00      	blt.n	20001246 <_ZN6C1ZZL316outputSynthVoiceElllll+0x32e>
20001244:	4ca4      	ldr	r4, [pc, #656]	@ (200014d8 <_ZN6C1ZZL316outputSynthVoiceElllll+0x5c0>)
20001246:	464a      	mov	r2, r9
20001248:	9900      	ldr	r1, [sp, #0]
2000124a:	1aa3      	subs	r3, r4, r2
2000124c:	434b      	muls	r3, r1
2000124e:	131b      	asrs	r3, r3, #12
20001250:	189b      	adds	r3, r3, r2
20001252:	9a01      	ldr	r2, [sp, #4]
20001254:	9904      	ldr	r1, [sp, #16]
20001256:	1a9b      	subs	r3, r3, r2
20001258:	434b      	muls	r3, r1
2000125a:	131b      	asrs	r3, r3, #12
2000125c:	189b      	adds	r3, r3, r2
2000125e:	22fe      	movs	r2, #254	@ 0xfe
20001260:	001c      	movs	r4, r3
20001262:	2180      	movs	r1, #128	@ 0x80
20001264:	0052      	lsls	r2, r2, #1
20001266:	58aa      	ldr	r2, [r5, r2]
20001268:	0109      	lsls	r1, r1, #4
2000126a:	4354      	muls	r4, r2
2000126c:	1324      	asrs	r4, r4, #12
2000126e:	428a      	cmp	r2, r1
20001270:	da00      	bge.n	20001274 <_ZN6C1ZZL316outputSynthVoiceElllll+0x35c>
20001272:	000a      	movs	r2, r1
20001274:	4353      	muls	r3, r2
20001276:	4652      	mov	r2, sl
20001278:	131b      	asrs	r3, r3, #12
2000127a:	4353      	muls	r3, r2
2000127c:	4a95      	ldr	r2, [pc, #596]	@ (200014d4 <_ZN6C1ZZL316outputSynthVoiceElllll+0x5bc>)
2000127e:	129b      	asrs	r3, r3, #10
20001280:	4293      	cmp	r3, r2
20001282:	da00      	bge.n	20001286 <_ZN6C1ZZL316outputSynthVoiceElllll+0x36e>
20001284:	0013      	movs	r3, r2
20001286:	2280      	movs	r2, #128	@ 0x80
20001288:	0112      	lsls	r2, r2, #4
2000128a:	4293      	cmp	r3, r2
2000128c:	db00      	blt.n	20001290 <_ZN6C1ZZL316outputSynthVoiceElllll+0x378>
2000128e:	4b92      	ldr	r3, [pc, #584]	@ (200014d8 <_ZN6C1ZZL316outputSynthVoiceElllll+0x5c0>)
20001290:	4651      	mov	r1, sl
20001292:	9a32      	ldr	r2, [sp, #200]	@ 0xc8
20001294:	9832      	ldr	r0, [sp, #200]	@ 0xc8
20001296:	0112      	lsls	r2, r2, #4
20001298:	1a12      	subs	r2, r2, r0
2000129a:	0212      	lsls	r2, r2, #8
2000129c:	1a5b      	subs	r3, r3, r1
2000129e:	1312      	asrs	r2, r2, #12
200012a0:	4353      	muls	r3, r2
200012a2:	131b      	asrs	r3, r3, #12
200012a4:	185e      	adds	r6, r3, r1
200012a6:	9b03      	ldr	r3, [sp, #12]
200012a8:	2b00      	cmp	r3, #0
200012aa:	d100      	bne.n	200012ae <_ZN6C1ZZL316outputSynthVoiceElllll+0x396>
200012ac:	e257      	b.n	2000175e <_ZN6C1ZZL316outputSynthVoiceElllll+0x846>
200012ae:	22ba      	movs	r2, #186	@ 0xba
200012b0:	0052      	lsls	r2, r2, #1
200012b2:	58ab      	ldr	r3, [r5, r2]
200012b4:	2b00      	cmp	r3, #0
200012b6:	d100      	bne.n	200012ba <_ZN6C1ZZL316outputSynthVoiceElllll+0x3a2>
200012b8:	e24f      	b.n	2000175a <_ZN6C1ZZL316outputSynthVoiceElllll+0x842>
200012ba:	3b01      	subs	r3, #1
200012bc:	0318      	lsls	r0, r3, #12
200012be:	50ab      	str	r3, [r5, r2]
200012c0:	1ac0      	subs	r0, r0, r3
200012c2:	2160      	movs	r1, #96	@ 0x60
200012c4:	f002 ffcc 	bl	20004260 <__wrap___aeabi_uidiv>
200012c8:	4b81      	ldr	r3, [pc, #516]	@ (200014d0 <_ZN6C1ZZL316outputSynthVoiceElllll+0x5b8>)
200012ca:	1a18      	subs	r0, r3, r0
200012cc:	9b02      	ldr	r3, [sp, #8]
200012ce:	4a81      	ldr	r2, [pc, #516]	@ (200014d4 <_ZN6C1ZZL316outputSynthVoiceElllll+0x5bc>)
200012d0:	4358      	muls	r0, r3
200012d2:	1300      	asrs	r0, r0, #12
200012d4:	4344      	muls	r4, r0
200012d6:	4370      	muls	r0, r6
200012d8:	1303      	asrs	r3, r0, #12
200012da:	4293      	cmp	r3, r2
200012dc:	da00      	bge.n	200012e0 <_ZN6C1ZZL316outputSynthVoiceElllll+0x3c8>
200012de:	0013      	movs	r3, r2
200012e0:	2280      	movs	r2, #128	@ 0x80
200012e2:	0112      	lsls	r2, r2, #4
200012e4:	4293      	cmp	r3, r2
200012e6:	db00      	blt.n	200012ea <_ZN6C1ZZL316outputSynthVoiceElllll+0x3d2>
200012e8:	4b7b      	ldr	r3, [pc, #492]	@ (200014d8 <_ZN6C1ZZL316outputSynthVoiceElllll+0x5c0>)
200012ea:	22f2      	movs	r2, #242	@ 0xf2
200012ec:	52ab      	strh	r3, [r5, r2]
200012ee:	4b79      	ldr	r3, [pc, #484]	@ (200014d4 <_ZN6C1ZZL316outputSynthVoiceElllll+0x5bc>)
200012f0:	1324      	asrs	r4, r4, #12
200012f2:	429c      	cmp	r4, r3
200012f4:	da00      	bge.n	200012f8 <_ZN6C1ZZL316outputSynthVoiceElllll+0x3e0>
200012f6:	001c      	movs	r4, r3
200012f8:	2380      	movs	r3, #128	@ 0x80
200012fa:	011b      	lsls	r3, r3, #4
200012fc:	429c      	cmp	r4, r3
200012fe:	db00      	blt.n	20001302 <_ZN6C1ZZL316outputSynthVoiceElllll+0x3ea>
20001300:	4c75      	ldr	r4, [pc, #468]	@ (200014d8 <_ZN6C1ZZL316outputSynthVoiceElllll+0x5c0>)
20001302:	23f4      	movs	r3, #244	@ 0xf4
20001304:	52ec      	strh	r4, [r5, r3]
20001306:	b029      	add	sp, #164	@ 0xa4
20001308:	bcf0      	pop	{r4, r5, r6, r7}
2000130a:	46bb      	mov	fp, r7
2000130c:	46b2      	mov	sl, r6
2000130e:	46a9      	mov	r9, r5
20001310:	46a0      	mov	r8, r4
20001312:	bdf0      	pop	{r4, r5, r6, r7, pc}
20001314:	2201      	movs	r2, #1
20001316:	9c04      	ldr	r4, [sp, #16]
20001318:	9207      	str	r2, [sp, #28]
2000131a:	e6d4      	b.n	200010c6 <_ZN6C1ZZL316outputSynthVoiceElllll+0x1ae>
2000131c:	9a01      	ldr	r2, [sp, #4]
2000131e:	2a7f      	cmp	r2, #127	@ 0x7f
20001320:	d801      	bhi.n	20001326 <_ZN6C1ZZL316outputSynthVoiceElllll+0x40e>
20001322:	f000 fc2c 	bl	20001b7e <_ZN6C1ZZL316outputSynthVoiceElllll+0xc66>
20001326:	9a04      	ldr	r2, [sp, #16]
20001328:	001c      	movs	r4, r3
2000132a:	2a7f      	cmp	r2, #127	@ 0x7f
2000132c:	d801      	bhi.n	20001332 <_ZN6C1ZZL316outputSynthVoiceElllll+0x41a>
2000132e:	f000 fc4c 	bl	20001bca <_ZN6C1ZZL316outputSynthVoiceElllll+0xcb2>
20001332:	4653      	mov	r3, sl
20001334:	2202      	movs	r2, #2
20001336:	10db      	asrs	r3, r3, #3
20001338:	9207      	str	r2, [sp, #28]
2000133a:	e6c4      	b.n	200010c6 <_ZN6C1ZZL316outputSynthVoiceElllll+0x1ae>
2000133c:	4643      	mov	r3, r8
2000133e:	2b7f      	cmp	r3, #127	@ 0x7f
20001340:	d801      	bhi.n	20001346 <_ZN6C1ZZL316outputSynthVoiceElllll+0x42e>
20001342:	f000 fc2c 	bl	20001b9e <_ZN6C1ZZL316outputSynthVoiceElllll+0xc86>
20001346:	9b05      	ldr	r3, [sp, #20]
20001348:	2b7f      	cmp	r3, #127	@ 0x7f
2000134a:	d801      	bhi.n	20001350 <_ZN6C1ZZL316outputSynthVoiceElllll+0x438>
2000134c:	f000 fc39 	bl	20001bc2 <_ZN6C1ZZL316outputSynthVoiceElllll+0xcaa>
20001350:	9b01      	ldr	r3, [sp, #4]
20001352:	4689      	mov	r9, r1
20001354:	10dc      	asrs	r4, r3, #3
20001356:	e776      	b.n	20001246 <_ZN6C1ZZL316outputSynthVoiceElllll+0x32e>
20001358:	4643      	mov	r3, r8
2000135a:	2b7f      	cmp	r3, #127	@ 0x7f
2000135c:	d801      	bhi.n	20001362 <_ZN6C1ZZL316outputSynthVoiceElllll+0x44a>
2000135e:	f000 fc14 	bl	20001b8a <_ZN6C1ZZL316outputSynthVoiceElllll+0xc72>
20001362:	9b05      	ldr	r3, [sp, #20]
20001364:	2b7f      	cmp	r3, #127	@ 0x7f
20001366:	d801      	bhi.n	2000136c <_ZN6C1ZZL316outputSynthVoiceElllll+0x454>
20001368:	f000 fc34 	bl	20001bd4 <_ZN6C1ZZL316outputSynthVoiceElllll+0xcbc>
2000136c:	9b07      	ldr	r3, [sp, #28]
2000136e:	2b06      	cmp	r3, #6
20001370:	d901      	bls.n	20001376 <_ZN6C1ZZL316outputSynthVoiceElllll+0x45e>
20001372:	f000 fc3c 	bl	20001bee <_ZN6C1ZZL316outputSynthVoiceElllll+0xcd6>
20001376:	4a5a      	ldr	r2, [pc, #360]	@ (200014e0 <_ZN6C1ZZL316outputSynthVoiceElllll+0x5c8>)
20001378:	009b      	lsls	r3, r3, #2
2000137a:	58d3      	ldr	r3, [r2, r3]
2000137c:	469f      	mov	pc, r3
2000137e:	4643      	mov	r3, r8
20001380:	005a      	lsls	r2, r3, #1
20001382:	2380      	movs	r3, #128	@ 0x80
20001384:	011b      	lsls	r3, r3, #4
20001386:	4598      	cmp	r8, r3
20001388:	d300      	bcc.n	2000138c <_ZN6C1ZZL316outputSynthVoiceElllll+0x474>
2000138a:	e2d8      	b.n	2000193e <_ZN6C1ZZL316outputSynthVoiceElllll+0xa26>
2000138c:	4b51      	ldr	r3, [pc, #324]	@ (200014d4 <_ZN6C1ZZL316outputSynthVoiceElllll+0x5bc>)
2000138e:	469c      	mov	ip, r3
20001390:	4494      	add	ip, r2
20001392:	00b3      	lsls	r3, r6, #2
20001394:	199b      	adds	r3, r3, r6
20001396:	0d9c      	lsrs	r4, r3, #22
20001398:	0060      	lsls	r0, r4, #1
2000139a:	3401      	adds	r4, #1
2000139c:	05a4      	lsls	r4, r4, #22
2000139e:	0d64      	lsrs	r4, r4, #21
200013a0:	5e38      	ldrsh	r0, [r7, r0]
200013a2:	5f3c      	ldrsh	r4, [r7, r4]
200013a4:	4661      	mov	r1, ip
200013a6:	029b      	lsls	r3, r3, #10
200013a8:	1a24      	subs	r4, r4, r0
200013aa:	0d9b      	lsrs	r3, r3, #22
200013ac:	4363      	muls	r3, r4
200013ae:	129b      	asrs	r3, r3, #10
200013b0:	181b      	adds	r3, r3, r0
200013b2:	4353      	muls	r3, r2
200013b4:	434a      	muls	r2, r1
200013b6:	131b      	asrs	r3, r3, #12
200013b8:	1392      	asrs	r2, r2, #14
200013ba:	189a      	adds	r2, r3, r2
200013bc:	4b45      	ldr	r3, [pc, #276]	@ (200014d4 <_ZN6C1ZZL316outputSynthVoiceElllll+0x5bc>)
200013be:	4691      	mov	r9, r2
200013c0:	429a      	cmp	r2, r3
200013c2:	da00      	bge.n	200013c6 <_ZN6C1ZZL316outputSynthVoiceElllll+0x4ae>
200013c4:	4699      	mov	r9, r3
200013c6:	2380      	movs	r3, #128	@ 0x80
200013c8:	011b      	lsls	r3, r3, #4
200013ca:	4599      	cmp	r9, r3
200013cc:	db01      	blt.n	200013d2 <_ZN6C1ZZL316outputSynthVoiceElllll+0x4ba>
200013ce:	4b42      	ldr	r3, [pc, #264]	@ (200014d8 <_ZN6C1ZZL316outputSynthVoiceElllll+0x5c0>)
200013d0:	4699      	mov	r9, r3
200013d2:	00f3      	lsls	r3, r6, #3
200013d4:	1b9e      	subs	r6, r3, r6
200013d6:	0db2      	lsrs	r2, r6, #22
200013d8:	4694      	mov	ip, r2
200013da:	0051      	lsls	r1, r2, #1
200013dc:	5e78      	ldrsh	r0, [r7, r1]
200013de:	0d99      	lsrs	r1, r3, #22
200013e0:	004c      	lsls	r4, r1, #1
200013e2:	3101      	adds	r1, #1
200013e4:	0589      	lsls	r1, r1, #22
200013e6:	0d49      	lsrs	r1, r1, #21
200013e8:	5f3c      	ldrsh	r4, [r7, r4]
200013ea:	5e79      	ldrsh	r1, [r7, r1]
200013ec:	4662      	mov	r2, ip
200013ee:	3201      	adds	r2, #1
200013f0:	029b      	lsls	r3, r3, #10
200013f2:	0592      	lsls	r2, r2, #22
200013f4:	0d9b      	lsrs	r3, r3, #22
200013f6:	1b09      	subs	r1, r1, r4
200013f8:	0d52      	lsrs	r2, r2, #21
200013fa:	4359      	muls	r1, r3
200013fc:	5eba      	ldrsh	r2, [r7, r2]
200013fe:	02b3      	lsls	r3, r6, #10
20001400:	1a12      	subs	r2, r2, r0
20001402:	0d9b      	lsrs	r3, r3, #22
20001404:	4353      	muls	r3, r2
20001406:	1289      	asrs	r1, r1, #10
20001408:	1909      	adds	r1, r1, r4
2000140a:	129b      	asrs	r3, r3, #10
2000140c:	181b      	adds	r3, r3, r0
2000140e:	1049      	asrs	r1, r1, #1
20001410:	18ce      	adds	r6, r1, r3
20001412:	4643      	mov	r3, r8
20001414:	1076      	asrs	r6, r6, #1
20001416:	2b7f      	cmp	r3, #127	@ 0x7f
20001418:	d800      	bhi.n	2000141c <_ZN6C1ZZL316outputSynthVoiceElllll+0x504>
2000141a:	e268      	b.n	200018ee <_ZN6C1ZZL316outputSynthVoiceElllll+0x9d6>
2000141c:	23c0      	movs	r3, #192	@ 0xc0
2000141e:	009b      	lsls	r3, r3, #2
20001420:	4598      	cmp	r8, r3
20001422:	d200      	bcs.n	20001426 <_ZN6C1ZZL316outputSynthVoiceElllll+0x50e>
20001424:	e263      	b.n	200018ee <_ZN6C1ZZL316outputSynthVoiceElllll+0x9d6>
20001426:	23c0      	movs	r3, #192	@ 0xc0
20001428:	011b      	lsls	r3, r3, #4
2000142a:	4598      	cmp	r8, r3
2000142c:	d200      	bcs.n	20001430 <_ZN6C1ZZL316outputSynthVoiceElllll+0x518>
2000142e:	e34a      	b.n	20001ac6 <_ZN6C1ZZL316outputSynthVoiceElllll+0xbae>
20001430:	4643      	mov	r3, r8
20001432:	0318      	lsls	r0, r3, #12
20001434:	1a18      	subs	r0, r3, r0
20001436:	4b2b      	ldr	r3, [pc, #172]	@ (200014e4 <_ZN6C1ZZL316outputSynthVoiceElllll+0x5cc>)
20001438:	492b      	ldr	r1, [pc, #172]	@ (200014e8 <_ZN6C1ZZL316outputSynthVoiceElllll+0x5d0>)
2000143a:	18c0      	adds	r0, r0, r3
2000143c:	f002 fee8 	bl	20004210 <__wrap___aeabi_idiv>
20001440:	1104      	asrs	r4, r0, #4
20001442:	e25c      	b.n	200018fe <_ZN6C1ZZL316outputSynthVoiceElllll+0x9e6>
20001444:	2190      	movs	r1, #144	@ 0x90
20001446:	0109      	lsls	r1, r1, #4
20001448:	4588      	cmp	r8, r1
2000144a:	d300      	bcc.n	2000144e <_ZN6C1ZZL316outputSynthVoiceElllll+0x536>
2000144c:	e3b6      	b.n	20001bbc <_ZN6C1ZZL316outputSynthVoiceElllll+0xca4>
2000144e:	4643      	mov	r3, r8
20001450:	0318      	lsls	r0, r3, #12
20001452:	1ac0      	subs	r0, r0, r3
20001454:	f002 fedc 	bl	20004210 <__wrap___aeabi_idiv>
20001458:	4b1d      	ldr	r3, [pc, #116]	@ (200014d0 <_ZN6C1ZZL316outputSynthVoiceElllll+0x5b8>)
2000145a:	1a18      	subs	r0, r3, r0
2000145c:	4340      	muls	r0, r0
2000145e:	4b1e      	ldr	r3, [pc, #120]	@ (200014d8 <_ZN6C1ZZL316outputSynthVoiceElllll+0x5c0>)
20001460:	1300      	asrs	r0, r0, #12
20001462:	1a1b      	subs	r3, r3, r0
20001464:	4699      	mov	r9, r3
20001466:	4642      	mov	r2, r8
20001468:	4b19      	ldr	r3, [pc, #100]	@ (200014d0 <_ZN6C1ZZL316outputSynthVoiceElllll+0x5b8>)
2000146a:	1a9b      	subs	r3, r3, r2
2000146c:	9a06      	ldr	r2, [sp, #24]
2000146e:	1994      	adds	r4, r2, r6
20001470:	0064      	lsls	r4, r4, #1
20001472:	0da1      	lsrs	r1, r4, #22
20001474:	004a      	lsls	r2, r1, #1
20001476:	3101      	adds	r1, #1
20001478:	0589      	lsls	r1, r1, #22
2000147a:	0d49      	lsrs	r1, r1, #21
2000147c:	5eba      	ldrsh	r2, [r7, r2]
2000147e:	5e79      	ldrsh	r1, [r7, r1]
20001480:	02a4      	lsls	r4, r4, #10
20001482:	1a89      	subs	r1, r1, r2
20001484:	0da4      	lsrs	r4, r4, #22
20001486:	434c      	muls	r4, r1
20001488:	12a4      	asrs	r4, r4, #10
2000148a:	18a4      	adds	r4, r4, r2
2000148c:	9a05      	ldr	r2, [sp, #20]
2000148e:	435c      	muls	r4, r3
20001490:	4353      	muls	r3, r2
20001492:	1324      	asrs	r4, r4, #12
20001494:	135b      	asrs	r3, r3, #13
20001496:	18e4      	adds	r4, r4, r3
20001498:	4b0e      	ldr	r3, [pc, #56]	@ (200014d4 <_ZN6C1ZZL316outputSynthVoiceElllll+0x5bc>)
2000149a:	429c      	cmp	r4, r3
2000149c:	db00      	blt.n	200014a0 <_ZN6C1ZZL316outputSynthVoiceElllll+0x588>
2000149e:	e6cd      	b.n	2000123c <_ZN6C1ZZL316outputSynthVoiceElllll+0x324>
200014a0:	e6cb      	b.n	2000123a <_ZN6C1ZZL316outputSynthVoiceElllll+0x322>
200014a2:	4643      	mov	r3, r8
200014a4:	2b7f      	cmp	r3, #127	@ 0x7f
200014a6:	d904      	bls.n	200014b2 <_ZN6C1ZZL316outputSynthVoiceElllll+0x59a>
200014a8:	2390      	movs	r3, #144	@ 0x90
200014aa:	011b      	lsls	r3, r3, #4
200014ac:	4598      	cmp	r8, r3
200014ae:	d300      	bcc.n	200014b2 <_ZN6C1ZZL316outputSynthVoiceElllll+0x59a>
200014b0:	e37e      	b.n	20001bb0 <_ZN6C1ZZL316outputSynthVoiceElllll+0xc98>
200014b2:	4643      	mov	r3, r8
200014b4:	2190      	movs	r1, #144	@ 0x90
200014b6:	0318      	lsls	r0, r3, #12
200014b8:	1ac0      	subs	r0, r0, r3
200014ba:	0109      	lsls	r1, r1, #4
200014bc:	f002 fea8 	bl	20004210 <__wrap___aeabi_idiv>
200014c0:	4b03      	ldr	r3, [pc, #12]	@ (200014d0 <_ZN6C1ZZL316outputSynthVoiceElllll+0x5b8>)
200014c2:	46a1      	mov	r9, r4
200014c4:	1a18      	subs	r0, r3, r0
200014c6:	4340      	muls	r0, r0
200014c8:	4c03      	ldr	r4, [pc, #12]	@ (200014d8 <_ZN6C1ZZL316outputSynthVoiceElllll+0x5c0>)
200014ca:	1300      	asrs	r0, r0, #12
200014cc:	1a24      	subs	r4, r4, r0
200014ce:	e6ba      	b.n	20001246 <_ZN6C1ZZL316outputSynthVoiceElllll+0x32e>
200014d0:	00000fff 	.word	0x00000fff
200014d4:	fffff800 	.word	0xfffff800
200014d8:	000007ff 	.word	0x000007ff
200014dc:	000017ff 	.word	0x000017ff
200014e0:	20005b18 	.word	0x20005b18
200014e4:	00ffe001 	.word	0x00ffe001
200014e8:	000003ff 	.word	0x000003ff
200014ec:	2380      	movs	r3, #128	@ 0x80
200014ee:	9901      	ldr	r1, [sp, #4]
200014f0:	011b      	lsls	r3, r3, #4
200014f2:	004a      	lsls	r2, r1, #1
200014f4:	4299      	cmp	r1, r3
200014f6:	d300      	bcc.n	200014fa <_ZN6C1ZZL316outputSynthVoiceElllll+0x5e2>
200014f8:	e23f      	b.n	2000197a <_ZN6C1ZZL316outputSynthVoiceElllll+0xa62>
200014fa:	4bd4      	ldr	r3, [pc, #848]	@ (2000184c <_ZN6C1ZZL316outputSynthVoiceElllll+0x934>)
200014fc:	18d3      	adds	r3, r2, r3
200014fe:	9306      	str	r3, [sp, #24]
20001500:	00b3      	lsls	r3, r6, #2
20001502:	199b      	adds	r3, r3, r6
20001504:	0d9c      	lsrs	r4, r3, #22
20001506:	0060      	lsls	r0, r4, #1
20001508:	3401      	adds	r4, #1
2000150a:	05a4      	lsls	r4, r4, #22
2000150c:	0d64      	lsrs	r4, r4, #21
2000150e:	5e38      	ldrsh	r0, [r7, r0]
20001510:	5f3c      	ldrsh	r4, [r7, r4]
20001512:	1a24      	subs	r4, r4, r0
20001514:	46a4      	mov	ip, r4
20001516:	029c      	lsls	r4, r3, #10
20001518:	4663      	mov	r3, ip
2000151a:	0da4      	lsrs	r4, r4, #22
2000151c:	435c      	muls	r4, r3
2000151e:	9b06      	ldr	r3, [sp, #24]
20001520:	12a4      	asrs	r4, r4, #10
20001522:	1824      	adds	r4, r4, r0
20001524:	4354      	muls	r4, r2
20001526:	435a      	muls	r2, r3
20001528:	1324      	asrs	r4, r4, #12
2000152a:	1392      	asrs	r2, r2, #14
2000152c:	4bc7      	ldr	r3, [pc, #796]	@ (2000184c <_ZN6C1ZZL316outputSynthVoiceElllll+0x934>)
2000152e:	18a4      	adds	r4, r4, r2
20001530:	429c      	cmp	r4, r3
20001532:	da00      	bge.n	20001536 <_ZN6C1ZZL316outputSynthVoiceElllll+0x61e>
20001534:	001c      	movs	r4, r3
20001536:	2380      	movs	r3, #128	@ 0x80
20001538:	011b      	lsls	r3, r3, #4
2000153a:	429c      	cmp	r4, r3
2000153c:	db00      	blt.n	20001540 <_ZN6C1ZZL316outputSynthVoiceElllll+0x628>
2000153e:	4cc4      	ldr	r4, [pc, #784]	@ (20001850 <_ZN6C1ZZL316outputSynthVoiceElllll+0x938>)
20001540:	00f3      	lsls	r3, r6, #3
20001542:	1b9e      	subs	r6, r3, r6
20001544:	0db2      	lsrs	r2, r6, #22
20001546:	0051      	lsls	r1, r2, #1
20001548:	9206      	str	r2, [sp, #24]
2000154a:	5e78      	ldrsh	r0, [r7, r1]
2000154c:	0d99      	lsrs	r1, r3, #22
2000154e:	004a      	lsls	r2, r1, #1
20001550:	9107      	str	r1, [sp, #28]
20001552:	5eba      	ldrsh	r2, [r7, r2]
20001554:	9907      	ldr	r1, [sp, #28]
20001556:	4694      	mov	ip, r2
20001558:	3101      	adds	r1, #1
2000155a:	0589      	lsls	r1, r1, #22
2000155c:	0d49      	lsrs	r1, r1, #21
2000155e:	5e79      	ldrsh	r1, [r7, r1]
20001560:	4662      	mov	r2, ip
20001562:	1a89      	subs	r1, r1, r2
20001564:	9a06      	ldr	r2, [sp, #24]
20001566:	029b      	lsls	r3, r3, #10
20001568:	3201      	adds	r2, #1
2000156a:	0592      	lsls	r2, r2, #22
2000156c:	0d9b      	lsrs	r3, r3, #22
2000156e:	0d52      	lsrs	r2, r2, #21
20001570:	4359      	muls	r1, r3
20001572:	5eba      	ldrsh	r2, [r7, r2]
20001574:	02b3      	lsls	r3, r6, #10
20001576:	1a12      	subs	r2, r2, r0
20001578:	0d9b      	lsrs	r3, r3, #22
2000157a:	4353      	muls	r3, r2
2000157c:	1289      	asrs	r1, r1, #10
2000157e:	4461      	add	r1, ip
20001580:	129b      	asrs	r3, r3, #10
20001582:	181b      	adds	r3, r3, r0
20001584:	1049      	asrs	r1, r1, #1
20001586:	18c9      	adds	r1, r1, r3
20001588:	9b01      	ldr	r3, [sp, #4]
2000158a:	104e      	asrs	r6, r1, #1
2000158c:	2b7f      	cmp	r3, #127	@ 0x7f
2000158e:	d800      	bhi.n	20001592 <_ZN6C1ZZL316outputSynthVoiceElllll+0x67a>
20001590:	e145      	b.n	2000181e <_ZN6C1ZZL316outputSynthVoiceElllll+0x906>
20001592:	9b04      	ldr	r3, [sp, #16]
20001594:	2b7f      	cmp	r3, #127	@ 0x7f
20001596:	d800      	bhi.n	2000159a <_ZN6C1ZZL316outputSynthVoiceElllll+0x682>
20001598:	e298      	b.n	20001acc <_ZN6C1ZZL316outputSynthVoiceElllll+0xbb4>
2000159a:	23c0      	movs	r3, #192	@ 0xc0
2000159c:	9a01      	ldr	r2, [sp, #4]
2000159e:	009b      	lsls	r3, r3, #2
200015a0:	429a      	cmp	r2, r3
200015a2:	d200      	bcs.n	200015a6 <_ZN6C1ZZL316outputSynthVoiceElllll+0x68e>
200015a4:	e13b      	b.n	2000181e <_ZN6C1ZZL316outputSynthVoiceElllll+0x906>
200015a6:	23c0      	movs	r3, #192	@ 0xc0
200015a8:	011b      	lsls	r3, r3, #4
200015aa:	429a      	cmp	r2, r3
200015ac:	d200      	bcs.n	200015b0 <_ZN6C1ZZL316outputSynthVoiceElllll+0x698>
200015ae:	e28d      	b.n	20001acc <_ZN6C1ZZL316outputSynthVoiceElllll+0xbb4>
200015b0:	0310      	lsls	r0, r2, #12
200015b2:	4ba8      	ldr	r3, [pc, #672]	@ (20001854 <_ZN6C1ZZL316outputSynthVoiceElllll+0x93c>)
200015b4:	1a10      	subs	r0, r2, r0
200015b6:	49a8      	ldr	r1, [pc, #672]	@ (20001858 <_ZN6C1ZZL316outputSynthVoiceElllll+0x940>)
200015b8:	18c0      	adds	r0, r0, r3
200015ba:	f002 fe29 	bl	20004210 <__wrap___aeabi_idiv>
200015be:	1102      	asrs	r2, r0, #4
200015c0:	e135      	b.n	2000182e <_ZN6C1ZZL316outputSynthVoiceElllll+0x916>
200015c2:	9b01      	ldr	r3, [sp, #4]
200015c4:	48a5      	ldr	r0, [pc, #660]	@ (2000185c <_ZN6C1ZZL316outputSynthVoiceElllll+0x944>)
200015c6:	1ac0      	subs	r0, r0, r3
200015c8:	9b06      	ldr	r3, [sp, #24]
200015ca:	199b      	adds	r3, r3, r6
200015cc:	005b      	lsls	r3, r3, #1
200015ce:	0d99      	lsrs	r1, r3, #22
200015d0:	004a      	lsls	r2, r1, #1
200015d2:	3101      	adds	r1, #1
200015d4:	0589      	lsls	r1, r1, #22
200015d6:	0d49      	lsrs	r1, r1, #21
200015d8:	5eba      	ldrsh	r2, [r7, r2]
200015da:	5e79      	ldrsh	r1, [r7, r1]
200015dc:	029b      	lsls	r3, r3, #10
200015de:	1a89      	subs	r1, r1, r2
200015e0:	0d9b      	lsrs	r3, r3, #22
200015e2:	434b      	muls	r3, r1
200015e4:	9c04      	ldr	r4, [sp, #16]
200015e6:	129b      	asrs	r3, r3, #10
200015e8:	189b      	adds	r3, r3, r2
200015ea:	4343      	muls	r3, r0
200015ec:	4344      	muls	r4, r0
200015ee:	131b      	asrs	r3, r3, #12
200015f0:	1364      	asrs	r4, r4, #13
200015f2:	191c      	adds	r4, r3, r4
200015f4:	4b95      	ldr	r3, [pc, #596]	@ (2000184c <_ZN6C1ZZL316outputSynthVoiceElllll+0x934>)
200015f6:	429c      	cmp	r4, r3
200015f8:	da00      	bge.n	200015fc <_ZN6C1ZZL316outputSynthVoiceElllll+0x6e4>
200015fa:	001c      	movs	r4, r3
200015fc:	2380      	movs	r3, #128	@ 0x80
200015fe:	011b      	lsls	r3, r3, #4
20001600:	429c      	cmp	r4, r3
20001602:	db00      	blt.n	20001606 <_ZN6C1ZZL316outputSynthVoiceElllll+0x6ee>
20001604:	4c92      	ldr	r4, [pc, #584]	@ (20001850 <_ZN6C1ZZL316outputSynthVoiceElllll+0x938>)
20001606:	2380      	movs	r3, #128	@ 0x80
20001608:	9901      	ldr	r1, [sp, #4]
2000160a:	011b      	lsls	r3, r3, #4
2000160c:	004a      	lsls	r2, r1, #1
2000160e:	4299      	cmp	r1, r3
20001610:	d200      	bcs.n	20001614 <_ZN6C1ZZL316outputSynthVoiceElllll+0x6fc>
20001612:	e1ae      	b.n	20001972 <_ZN6C1ZZL316outputSynthVoiceElllll+0xa5a>
20001614:	4992      	ldr	r1, [pc, #584]	@ (20001860 <_ZN6C1ZZL316outputSynthVoiceElllll+0x948>)
20001616:	1a8b      	subs	r3, r1, r2
20001618:	469c      	mov	ip, r3
2000161a:	0042      	lsls	r2, r0, #1
2000161c:	00b3      	lsls	r3, r6, #2
2000161e:	199b      	adds	r3, r3, r6
20001620:	0d9e      	lsrs	r6, r3, #22
20001622:	0070      	lsls	r0, r6, #1
20001624:	3601      	adds	r6, #1
20001626:	05b6      	lsls	r6, r6, #22
20001628:	0d76      	lsrs	r6, r6, #21
2000162a:	5e38      	ldrsh	r0, [r7, r0]
2000162c:	5fbe      	ldrsh	r6, [r7, r6]
2000162e:	4661      	mov	r1, ip
20001630:	029b      	lsls	r3, r3, #10
20001632:	1a36      	subs	r6, r6, r0
20001634:	0d9b      	lsrs	r3, r3, #22
20001636:	4373      	muls	r3, r6
20001638:	129b      	asrs	r3, r3, #10
2000163a:	181b      	adds	r3, r3, r0
2000163c:	4353      	muls	r3, r2
2000163e:	434a      	muls	r2, r1
20001640:	131b      	asrs	r3, r3, #12
20001642:	1392      	asrs	r2, r2, #14
20001644:	189b      	adds	r3, r3, r2
20001646:	4a81      	ldr	r2, [pc, #516]	@ (2000184c <_ZN6C1ZZL316outputSynthVoiceElllll+0x934>)
20001648:	4293      	cmp	r3, r2
2000164a:	da00      	bge.n	2000164e <_ZN6C1ZZL316outputSynthVoiceElllll+0x736>
2000164c:	0013      	movs	r3, r2
2000164e:	2280      	movs	r2, #128	@ 0x80
20001650:	0112      	lsls	r2, r2, #4
20001652:	4293      	cmp	r3, r2
20001654:	db00      	blt.n	20001658 <_ZN6C1ZZL316outputSynthVoiceElllll+0x740>
20001656:	4b7e      	ldr	r3, [pc, #504]	@ (20001850 <_ZN6C1ZZL316outputSynthVoiceElllll+0x938>)
20001658:	2206      	movs	r2, #6
2000165a:	9207      	str	r2, [sp, #28]
2000165c:	e533      	b.n	200010c6 <_ZN6C1ZZL316outputSynthVoiceElllll+0x1ae>
2000165e:	2190      	movs	r1, #144	@ 0x90
20001660:	9b01      	ldr	r3, [sp, #4]
20001662:	0109      	lsls	r1, r1, #4
20001664:	428b      	cmp	r3, r1
20001666:	d300      	bcc.n	2000166a <_ZN6C1ZZL316outputSynthVoiceElllll+0x752>
20001668:	e2a6      	b.n	20001bb8 <_ZN6C1ZZL316outputSynthVoiceElllll+0xca0>
2000166a:	0318      	lsls	r0, r3, #12
2000166c:	1ac0      	subs	r0, r0, r3
2000166e:	f002 fdcf 	bl	20004210 <__wrap___aeabi_idiv>
20001672:	4b7a      	ldr	r3, [pc, #488]	@ (2000185c <_ZN6C1ZZL316outputSynthVoiceElllll+0x944>)
20001674:	4c76      	ldr	r4, [pc, #472]	@ (20001850 <_ZN6C1ZZL316outputSynthVoiceElllll+0x938>)
20001676:	1a18      	subs	r0, r3, r0
20001678:	4340      	muls	r0, r0
2000167a:	1300      	asrs	r0, r0, #12
2000167c:	1a24      	subs	r4, r4, r0
2000167e:	9a01      	ldr	r2, [sp, #4]
20001680:	4b76      	ldr	r3, [pc, #472]	@ (2000185c <_ZN6C1ZZL316outputSynthVoiceElllll+0x944>)
20001682:	1a9b      	subs	r3, r3, r2
20001684:	9a06      	ldr	r2, [sp, #24]
20001686:	1992      	adds	r2, r2, r6
20001688:	0052      	lsls	r2, r2, #1
2000168a:	0d90      	lsrs	r0, r2, #22
2000168c:	0041      	lsls	r1, r0, #1
2000168e:	3001      	adds	r0, #1
20001690:	0580      	lsls	r0, r0, #22
20001692:	0d40      	lsrs	r0, r0, #21
20001694:	5e79      	ldrsh	r1, [r7, r1]
20001696:	5e38      	ldrsh	r0, [r7, r0]
20001698:	0292      	lsls	r2, r2, #10
2000169a:	1a40      	subs	r0, r0, r1
2000169c:	0d92      	lsrs	r2, r2, #22
2000169e:	4342      	muls	r2, r0
200016a0:	1292      	asrs	r2, r2, #10
200016a2:	1852      	adds	r2, r2, r1
200016a4:	9904      	ldr	r1, [sp, #16]
200016a6:	435a      	muls	r2, r3
200016a8:	434b      	muls	r3, r1
200016aa:	1312      	asrs	r2, r2, #12
200016ac:	135b      	asrs	r3, r3, #13
200016ae:	18d3      	adds	r3, r2, r3
200016b0:	4a66      	ldr	r2, [pc, #408]	@ (2000184c <_ZN6C1ZZL316outputSynthVoiceElllll+0x934>)
200016b2:	4293      	cmp	r3, r2
200016b4:	da00      	bge.n	200016b8 <_ZN6C1ZZL316outputSynthVoiceElllll+0x7a0>
200016b6:	0013      	movs	r3, r2
200016b8:	2280      	movs	r2, #128	@ 0x80
200016ba:	0112      	lsls	r2, r2, #4
200016bc:	4293      	cmp	r3, r2
200016be:	db00      	blt.n	200016c2 <_ZN6C1ZZL316outputSynthVoiceElllll+0x7aa>
200016c0:	4b63      	ldr	r3, [pc, #396]	@ (20001850 <_ZN6C1ZZL316outputSynthVoiceElllll+0x938>)
200016c2:	2205      	movs	r2, #5
200016c4:	9207      	str	r2, [sp, #28]
200016c6:	e4fe      	b.n	200010c6 <_ZN6C1ZZL316outputSynthVoiceElllll+0x1ae>
200016c8:	2190      	movs	r1, #144	@ 0x90
200016ca:	9b01      	ldr	r3, [sp, #4]
200016cc:	0109      	lsls	r1, r1, #4
200016ce:	428b      	cmp	r3, r1
200016d0:	d200      	bcs.n	200016d4 <_ZN6C1ZZL316outputSynthVoiceElllll+0x7bc>
200016d2:	e11c      	b.n	2000190e <_ZN6C1ZZL316outputSynthVoiceElllll+0x9f6>
200016d4:	2304      	movs	r3, #4
200016d6:	9307      	str	r3, [sp, #28]
200016d8:	4b5c      	ldr	r3, [pc, #368]	@ (2000184c <_ZN6C1ZZL316outputSynthVoiceElllll+0x934>)
200016da:	e4f4      	b.n	200010c6 <_ZN6C1ZZL316outputSynthVoiceElllll+0x1ae>
200016dc:	4a5c      	ldr	r2, [pc, #368]	@ (20001850 <_ZN6C1ZZL316outputSynthVoiceElllll+0x938>)
200016de:	4b5b      	ldr	r3, [pc, #364]	@ (2000184c <_ZN6C1ZZL316outputSynthVoiceElllll+0x934>)
200016e0:	4694      	mov	ip, r2
200016e2:	e474      	b.n	20000fce <_ZN6C1ZZL316outputSynthVoiceElllll+0xb6>
200016e4:	22d8      	movs	r2, #216	@ 0xd8
200016e6:	2180      	movs	r1, #128	@ 0x80
200016e8:	0052      	lsls	r2, r2, #1
200016ea:	58ab      	ldr	r3, [r5, r2]
200016ec:	0089      	lsls	r1, r1, #2
200016ee:	3301      	adds	r3, #1
200016f0:	50ab      	str	r3, [r5, r2]
200016f2:	428b      	cmp	r3, r1
200016f4:	d236      	bcs.n	20001764 <_ZN6C1ZZL316outputSynthVoiceElllll+0x84c>
200016f6:	23da      	movs	r3, #218	@ 0xda
200016f8:	005b      	lsls	r3, r3, #1
200016fa:	58eb      	ldr	r3, [r5, r3]
200016fc:	4699      	mov	r9, r3
200016fe:	23dc      	movs	r3, #220	@ 0xdc
20001700:	005b      	lsls	r3, r3, #1
20001702:	58ec      	ldr	r4, [r5, r3]
20001704:	2380      	movs	r3, #128	@ 0x80
20001706:	9833      	ldr	r0, [sp, #204]	@ 0xcc
20001708:	015b      	lsls	r3, r3, #5
2000170a:	4298      	cmp	r0, r3
2000170c:	db00      	blt.n	20001710 <_ZN6C1ZZL316outputSynthVoiceElllll+0x7f8>
2000170e:	4853      	ldr	r0, [pc, #332]	@ (2000185c <_ZN6C1ZZL316outputSynthVoiceElllll+0x944>)
20001710:	4340      	muls	r0, r0
20001712:	0b00      	lsrs	r0, r0, #12
20001714:	0083      	lsls	r3, r0, #2
20001716:	181b      	adds	r3, r3, r0
20001718:	005b      	lsls	r3, r3, #1
2000171a:	1818      	adds	r0, r3, r0
2000171c:	2114      	movs	r1, #20
2000171e:	f002 fd77 	bl	20004210 <__wrap___aeabi_idiv>
20001722:	464b      	mov	r3, r9
20001724:	4343      	muls	r3, r0
20001726:	129b      	asrs	r3, r3, #10
20001728:	4498      	add	r8, r3
2000172a:	2380      	movs	r3, #128	@ 0x80
2000172c:	015b      	lsls	r3, r3, #5
2000172e:	4598      	cmp	r8, r3
20001730:	db05      	blt.n	2000173e <_ZN6C1ZZL316outputSynthVoiceElllll+0x826>
20001732:	4b4a      	ldr	r3, [pc, #296]	@ (2000185c <_ZN6C1ZZL316outputSynthVoiceElllll+0x944>)
20001734:	4698      	mov	r8, r3
20001736:	1180      	asrs	r0, r0, #6
20001738:	4344      	muls	r4, r0
2000173a:	1936      	adds	r6, r6, r4
2000173c:	e4e6      	b.n	2000110c <_ZN6C1ZZL316outputSynthVoiceElllll+0x1f4>
2000173e:	4643      	mov	r3, r8
20001740:	43db      	mvns	r3, r3
20001742:	4642      	mov	r2, r8
20001744:	17db      	asrs	r3, r3, #31
20001746:	401a      	ands	r2, r3
20001748:	4690      	mov	r8, r2
2000174a:	e7f4      	b.n	20001736 <_ZN6C1ZZL316outputSynthVoiceElllll+0x81e>
2000174c:	4940      	ldr	r1, [pc, #256]	@ (20001850 <_ZN6C1ZZL316outputSynthVoiceElllll+0x938>)
2000174e:	2b7f      	cmp	r3, #127	@ 0x7f
20001750:	d900      	bls.n	20001754 <_ZN6C1ZZL316outputSynthVoiceElllll+0x83c>
20001752:	e4fa      	b.n	2000114a <_ZN6C1ZZL316outputSynthVoiceElllll+0x232>
20001754:	4b3d      	ldr	r3, [pc, #244]	@ (2000184c <_ZN6C1ZZL316outputSynthVoiceElllll+0x934>)
20001756:	4699      	mov	r9, r3
20001758:	e4fa      	b.n	20001150 <_ZN6C1ZZL316outputSynthVoiceElllll+0x238>
2000175a:	4840      	ldr	r0, [pc, #256]	@ (2000185c <_ZN6C1ZZL316outputSynthVoiceElllll+0x944>)
2000175c:	e5b6      	b.n	200012cc <_ZN6C1ZZL316outputSynthVoiceElllll+0x3b4>
2000175e:	4b3f      	ldr	r3, [pc, #252]	@ (2000185c <_ZN6C1ZZL316outputSynthVoiceElllll+0x944>)
20001760:	9302      	str	r3, [sp, #8]
20001762:	e5a4      	b.n	200012ae <_ZN6C1ZZL316outputSynthVoiceElllll+0x396>
20001764:	2300      	movs	r3, #0
20001766:	50ab      	str	r3, [r5, r2]
20001768:	22d6      	movs	r2, #214	@ 0xd6
2000176a:	493e      	ldr	r1, [pc, #248]	@ (20001864 <_ZN6C1ZZL316outputSynthVoiceElllll+0x94c>)
2000176c:	0052      	lsls	r2, r2, #1
2000176e:	468c      	mov	ip, r1
20001770:	58ab      	ldr	r3, [r5, r2]
20001772:	4c3d      	ldr	r4, [pc, #244]	@ (20001868 <_ZN6C1ZZL316outputSynthVoiceElllll+0x950>)
20001774:	4363      	muls	r3, r4
20001776:	4463      	add	r3, ip
20001778:	0e19      	lsrs	r1, r3, #24
2000177a:	3980      	subs	r1, #128	@ 0x80
2000177c:	0008      	movs	r0, r1
2000177e:	4689      	mov	r9, r1
20001780:	21da      	movs	r1, #218	@ 0xda
20001782:	435c      	muls	r4, r3
20001784:	23dc      	movs	r3, #220	@ 0xdc
20001786:	4464      	add	r4, ip
20001788:	0049      	lsls	r1, r1, #1
2000178a:	5068      	str	r0, [r5, r1]
2000178c:	50ac      	str	r4, [r5, r2]
2000178e:	0e24      	lsrs	r4, r4, #24
20001790:	3c80      	subs	r4, #128	@ 0x80
20001792:	005b      	lsls	r3, r3, #1
20001794:	50ec      	str	r4, [r5, r3]
20001796:	e7b5      	b.n	20001704 <_ZN6C1ZZL316outputSynthVoiceElllll+0x7ec>
20001798:	4b2d      	ldr	r3, [pc, #180]	@ (20001850 <_ZN6C1ZZL316outputSynthVoiceElllll+0x938>)
2000179a:	4699      	mov	r9, r3
2000179c:	e4d8      	b.n	20001150 <_ZN6C1ZZL316outputSynthVoiceElllll+0x238>
2000179e:	21c0      	movs	r1, #192	@ 0xc0
200017a0:	9b01      	ldr	r3, [sp, #4]
200017a2:	0089      	lsls	r1, r1, #2
200017a4:	428b      	cmp	r3, r1
200017a6:	d300      	bcc.n	200017aa <_ZN6C1ZZL316outputSynthVoiceElllll+0x892>
200017a8:	e0d8      	b.n	2000195c <_ZN6C1ZZL316outputSynthVoiceElllll+0xa44>
200017aa:	0318      	lsls	r0, r3, #12
200017ac:	1ac0      	subs	r0, r0, r3
200017ae:	f002 fd2f 	bl	20004210 <__wrap___aeabi_idiv>
200017b2:	4684      	mov	ip, r0
200017b4:	1103      	asrs	r3, r0, #4
200017b6:	9307      	str	r3, [sp, #28]
200017b8:	00f3      	lsls	r3, r6, #3
200017ba:	1b9e      	subs	r6, r3, r6
200017bc:	0db2      	lsrs	r2, r6, #22
200017be:	0051      	lsls	r1, r2, #1
200017c0:	5e78      	ldrsh	r0, [r7, r1]
200017c2:	0d99      	lsrs	r1, r3, #22
200017c4:	004c      	lsls	r4, r1, #1
200017c6:	3101      	adds	r1, #1
200017c8:	0589      	lsls	r1, r1, #22
200017ca:	0d49      	lsrs	r1, r1, #21
200017cc:	9206      	str	r2, [sp, #24]
200017ce:	5f3c      	ldrsh	r4, [r7, r4]
200017d0:	5e79      	ldrsh	r1, [r7, r1]
200017d2:	029b      	lsls	r3, r3, #10
200017d4:	1b09      	subs	r1, r1, r4
200017d6:	0d9b      	lsrs	r3, r3, #22
200017d8:	434b      	muls	r3, r1
200017da:	129b      	asrs	r3, r3, #10
200017dc:	191b      	adds	r3, r3, r4
200017de:	4664      	mov	r4, ip
200017e0:	9a06      	ldr	r2, [sp, #24]
200017e2:	02b6      	lsls	r6, r6, #10
200017e4:	3201      	adds	r2, #1
200017e6:	0592      	lsls	r2, r2, #22
200017e8:	0d52      	lsrs	r2, r2, #21
200017ea:	5eba      	ldrsh	r2, [r7, r2]
200017ec:	0db6      	lsrs	r6, r6, #22
200017ee:	1a12      	subs	r2, r2, r0
200017f0:	4356      	muls	r6, r2
200017f2:	12b6      	asrs	r6, r6, #10
200017f4:	105b      	asrs	r3, r3, #1
200017f6:	1836      	adds	r6, r6, r0
200017f8:	199e      	adds	r6, r3, r6
200017fa:	1076      	asrs	r6, r6, #1
200017fc:	4374      	muls	r4, r6
200017fe:	9b07      	ldr	r3, [sp, #28]
20001800:	1324      	asrs	r4, r4, #12
20001802:	18e4      	adds	r4, r4, r3
20001804:	4b11      	ldr	r3, [pc, #68]	@ (2000184c <_ZN6C1ZZL316outputSynthVoiceElllll+0x934>)
20001806:	429c      	cmp	r4, r3
20001808:	da00      	bge.n	2000180c <_ZN6C1ZZL316outputSynthVoiceElllll+0x8f4>
2000180a:	001c      	movs	r4, r3
2000180c:	2380      	movs	r3, #128	@ 0x80
2000180e:	011b      	lsls	r3, r3, #4
20001810:	429c      	cmp	r4, r3
20001812:	db00      	blt.n	20001816 <_ZN6C1ZZL316outputSynthVoiceElllll+0x8fe>
20001814:	4c0e      	ldr	r4, [pc, #56]	@ (20001850 <_ZN6C1ZZL316outputSynthVoiceElllll+0x938>)
20001816:	9b01      	ldr	r3, [sp, #4]
20001818:	2b7f      	cmp	r3, #127	@ 0x7f
2000181a:	d900      	bls.n	2000181e <_ZN6C1ZZL316outputSynthVoiceElllll+0x906>
2000181c:	e6b9      	b.n	20001592 <_ZN6C1ZZL316outputSynthVoiceElllll+0x67a>
2000181e:	21c0      	movs	r1, #192	@ 0xc0
20001820:	9b01      	ldr	r3, [sp, #4]
20001822:	0089      	lsls	r1, r1, #2
20001824:	0318      	lsls	r0, r3, #12
20001826:	1ac0      	subs	r0, r0, r3
20001828:	f002 fcf2 	bl	20004210 <__wrap___aeabi_idiv>
2000182c:	1102      	asrs	r2, r0, #4
2000182e:	4346      	muls	r6, r0
20001830:	1333      	asrs	r3, r6, #12
20001832:	189b      	adds	r3, r3, r2
20001834:	4a05      	ldr	r2, [pc, #20]	@ (2000184c <_ZN6C1ZZL316outputSynthVoiceElllll+0x934>)
20001836:	4293      	cmp	r3, r2
20001838:	da00      	bge.n	2000183c <_ZN6C1ZZL316outputSynthVoiceElllll+0x924>
2000183a:	0013      	movs	r3, r2
2000183c:	2280      	movs	r2, #128	@ 0x80
2000183e:	0112      	lsls	r2, r2, #4
20001840:	4293      	cmp	r3, r2
20001842:	db00      	blt.n	20001846 <_ZN6C1ZZL316outputSynthVoiceElllll+0x92e>
20001844:	4b02      	ldr	r3, [pc, #8]	@ (20001850 <_ZN6C1ZZL316outputSynthVoiceElllll+0x938>)
20001846:	2207      	movs	r2, #7
20001848:	9207      	str	r2, [sp, #28]
2000184a:	e43c      	b.n	200010c6 <_ZN6C1ZZL316outputSynthVoiceElllll+0x1ae>
2000184c:	fffff800 	.word	0xfffff800
20001850:	000007ff 	.word	0x000007ff
20001854:	00ffe001 	.word	0x00ffe001
20001858:	000003ff 	.word	0x000003ff
2000185c:	00000fff 	.word	0x00000fff
20001860:	000017ff 	.word	0x000017ff
20001864:	3c6ef35f 	.word	0x3c6ef35f
20001868:	0019660d 	.word	0x0019660d
2000186c:	21c0      	movs	r1, #192	@ 0xc0
2000186e:	0089      	lsls	r1, r1, #2
20001870:	4588      	cmp	r8, r1
20001872:	d25a      	bcs.n	2000192a <_ZN6C1ZZL316outputSynthVoiceElllll+0xa12>
20001874:	4643      	mov	r3, r8
20001876:	0318      	lsls	r0, r3, #12
20001878:	1ac0      	subs	r0, r0, r3
2000187a:	f002 fcc9 	bl	20004210 <__wrap___aeabi_idiv>
2000187e:	1103      	asrs	r3, r0, #4
20001880:	4681      	mov	r9, r0
20001882:	469b      	mov	fp, r3
20001884:	00f3      	lsls	r3, r6, #3
20001886:	1b9e      	subs	r6, r3, r6
20001888:	0db2      	lsrs	r2, r6, #22
2000188a:	0051      	lsls	r1, r2, #1
2000188c:	5e79      	ldrsh	r1, [r7, r1]
2000188e:	3201      	adds	r2, #1
20001890:	468c      	mov	ip, r1
20001892:	0d99      	lsrs	r1, r3, #22
20001894:	004c      	lsls	r4, r1, #1
20001896:	3101      	adds	r1, #1
20001898:	0589      	lsls	r1, r1, #22
2000189a:	0d49      	lsrs	r1, r1, #21
2000189c:	5f3c      	ldrsh	r4, [r7, r4]
2000189e:	5e79      	ldrsh	r1, [r7, r1]
200018a0:	029b      	lsls	r3, r3, #10
200018a2:	0592      	lsls	r2, r2, #22
200018a4:	1b09      	subs	r1, r1, r4
200018a6:	0d9b      	lsrs	r3, r3, #22
200018a8:	0d52      	lsrs	r2, r2, #21
200018aa:	434b      	muls	r3, r1
200018ac:	5eba      	ldrsh	r2, [r7, r2]
200018ae:	4661      	mov	r1, ip
200018b0:	02b6      	lsls	r6, r6, #10
200018b2:	1a52      	subs	r2, r2, r1
200018b4:	0db6      	lsrs	r6, r6, #22
200018b6:	4648      	mov	r0, r9
200018b8:	4356      	muls	r6, r2
200018ba:	12b6      	asrs	r6, r6, #10
200018bc:	4466      	add	r6, ip
200018be:	46dc      	mov	ip, fp
200018c0:	129b      	asrs	r3, r3, #10
200018c2:	191b      	adds	r3, r3, r4
200018c4:	105b      	asrs	r3, r3, #1
200018c6:	199e      	adds	r6, r3, r6
200018c8:	1076      	asrs	r6, r6, #1
200018ca:	4370      	muls	r0, r6
200018cc:	4bdb      	ldr	r3, [pc, #876]	@ (20001c3c <_ZN6C1ZZL316outputSynthVoiceElllll+0xd24>)
200018ce:	1300      	asrs	r0, r0, #12
200018d0:	4484      	add	ip, r0
200018d2:	46e1      	mov	r9, ip
200018d4:	459c      	cmp	ip, r3
200018d6:	da00      	bge.n	200018da <_ZN6C1ZZL316outputSynthVoiceElllll+0x9c2>
200018d8:	4699      	mov	r9, r3
200018da:	2380      	movs	r3, #128	@ 0x80
200018dc:	011b      	lsls	r3, r3, #4
200018de:	4599      	cmp	r9, r3
200018e0:	db01      	blt.n	200018e6 <_ZN6C1ZZL316outputSynthVoiceElllll+0x9ce>
200018e2:	4bd7      	ldr	r3, [pc, #860]	@ (20001c40 <_ZN6C1ZZL316outputSynthVoiceElllll+0xd28>)
200018e4:	4699      	mov	r9, r3
200018e6:	4643      	mov	r3, r8
200018e8:	2b7f      	cmp	r3, #127	@ 0x7f
200018ea:	d900      	bls.n	200018ee <_ZN6C1ZZL316outputSynthVoiceElllll+0x9d6>
200018ec:	e596      	b.n	2000141c <_ZN6C1ZZL316outputSynthVoiceElllll+0x504>
200018ee:	4643      	mov	r3, r8
200018f0:	21c0      	movs	r1, #192	@ 0xc0
200018f2:	0318      	lsls	r0, r3, #12
200018f4:	1ac0      	subs	r0, r0, r3
200018f6:	0089      	lsls	r1, r1, #2
200018f8:	f002 fc8a 	bl	20004210 <__wrap___aeabi_idiv>
200018fc:	1104      	asrs	r4, r0, #4
200018fe:	4370      	muls	r0, r6
20001900:	4bce      	ldr	r3, [pc, #824]	@ (20001c3c <_ZN6C1ZZL316outputSynthVoiceElllll+0xd24>)
20001902:	1300      	asrs	r0, r0, #12
20001904:	1904      	adds	r4, r0, r4
20001906:	429c      	cmp	r4, r3
20001908:	db00      	blt.n	2000190c <_ZN6C1ZZL316outputSynthVoiceElllll+0x9f4>
2000190a:	e497      	b.n	2000123c <_ZN6C1ZZL316outputSynthVoiceElllll+0x324>
2000190c:	e495      	b.n	2000123a <_ZN6C1ZZL316outputSynthVoiceElllll+0x322>
2000190e:	0318      	lsls	r0, r3, #12
20001910:	1ac0      	subs	r0, r0, r3
20001912:	f002 fc7d 	bl	20004210 <__wrap___aeabi_idiv>
20001916:	2204      	movs	r2, #4
20001918:	4bca      	ldr	r3, [pc, #808]	@ (20001c44 <_ZN6C1ZZL316outputSynthVoiceElllll+0xd2c>)
2000191a:	9207      	str	r2, [sp, #28]
2000191c:	1a18      	subs	r0, r3, r0
2000191e:	4340      	muls	r0, r0
20001920:	4bc7      	ldr	r3, [pc, #796]	@ (20001c40 <_ZN6C1ZZL316outputSynthVoiceElllll+0xd28>)
20001922:	1300      	asrs	r0, r0, #12
20001924:	1a1b      	subs	r3, r3, r0
20001926:	f7ff fbce 	bl	200010c6 <_ZN6C1ZZL316outputSynthVoiceElllll+0x1ae>
2000192a:	23c0      	movs	r3, #192	@ 0xc0
2000192c:	011b      	lsls	r3, r3, #4
2000192e:	4598      	cmp	r8, r3
20001930:	d300      	bcc.n	20001934 <_ZN6C1ZZL316outputSynthVoiceElllll+0xa1c>
20001932:	e0c1      	b.n	20001ab8 <_ZN6C1ZZL316outputSynthVoiceElllll+0xba0>
20001934:	23ff      	movs	r3, #255	@ 0xff
20001936:	469b      	mov	fp, r3
20001938:	4bc2      	ldr	r3, [pc, #776]	@ (20001c44 <_ZN6C1ZZL316outputSynthVoiceElllll+0xd2c>)
2000193a:	4699      	mov	r9, r3
2000193c:	e7a2      	b.n	20001884 <_ZN6C1ZZL316outputSynthVoiceElllll+0x96c>
2000193e:	4641      	mov	r1, r8
20001940:	4bc0      	ldr	r3, [pc, #768]	@ (20001c44 <_ZN6C1ZZL316outputSynthVoiceElllll+0xd2c>)
20001942:	1a5b      	subs	r3, r3, r1
20001944:	49c0      	ldr	r1, [pc, #768]	@ (20001c48 <_ZN6C1ZZL316outputSynthVoiceElllll+0xd30>)
20001946:	1a8a      	subs	r2, r1, r2
20001948:	4694      	mov	ip, r2
2000194a:	005a      	lsls	r2, r3, #1
2000194c:	e521      	b.n	20001392 <_ZN6C1ZZL316outputSynthVoiceElllll+0x47a>
2000194e:	9b05      	ldr	r3, [sp, #20]
20001950:	4699      	mov	r9, r3
20001952:	4643      	mov	r3, r8
20001954:	4ab9      	ldr	r2, [pc, #740]	@ (20001c3c <_ZN6C1ZZL316outputSynthVoiceElllll+0xd24>)
20001956:	005b      	lsls	r3, r3, #1
20001958:	189a      	adds	r2, r3, r2
2000195a:	e457      	b.n	2000120c <_ZN6C1ZZL316outputSynthVoiceElllll+0x2f4>
2000195c:	001a      	movs	r2, r3
2000195e:	23c0      	movs	r3, #192	@ 0xc0
20001960:	011b      	lsls	r3, r3, #4
20001962:	429a      	cmp	r2, r3
20001964:	d300      	bcc.n	20001968 <_ZN6C1ZZL316outputSynthVoiceElllll+0xa50>
20001966:	e0a1      	b.n	20001aac <_ZN6C1ZZL316outputSynthVoiceElllll+0xb94>
20001968:	23ff      	movs	r3, #255	@ 0xff
2000196a:	9307      	str	r3, [sp, #28]
2000196c:	4bb5      	ldr	r3, [pc, #724]	@ (20001c44 <_ZN6C1ZZL316outputSynthVoiceElllll+0xd2c>)
2000196e:	469c      	mov	ip, r3
20001970:	e722      	b.n	200017b8 <_ZN6C1ZZL316outputSynthVoiceElllll+0x8a0>
20001972:	4bb2      	ldr	r3, [pc, #712]	@ (20001c3c <_ZN6C1ZZL316outputSynthVoiceElllll+0xd24>)
20001974:	469c      	mov	ip, r3
20001976:	4494      	add	ip, r2
20001978:	e650      	b.n	2000161c <_ZN6C1ZZL316outputSynthVoiceElllll+0x704>
2000197a:	4bb2      	ldr	r3, [pc, #712]	@ (20001c44 <_ZN6C1ZZL316outputSynthVoiceElllll+0xd2c>)
2000197c:	1a5b      	subs	r3, r3, r1
2000197e:	49b2      	ldr	r1, [pc, #712]	@ (20001c48 <_ZN6C1ZZL316outputSynthVoiceElllll+0xd30>)
20001980:	1a8a      	subs	r2, r1, r2
20001982:	9206      	str	r2, [sp, #24]
20001984:	005a      	lsls	r2, r3, #1
20001986:	e5bb      	b.n	20001500 <_ZN6C1ZZL316outputSynthVoiceElllll+0x5e8>
20001988:	2280      	movs	r2, #128	@ 0x80
2000198a:	0038      	movs	r0, r7
2000198c:	49af      	ldr	r1, [pc, #700]	@ (20001c4c <_ZN6C1ZZL316outputSynthVoiceElllll+0xd34>)
2000198e:	f002 fe21 	bl	200045d4 <__wrap___aeabi_memcpy>
20001992:	23ea      	movs	r3, #234	@ 0xea
20001994:	005b      	lsls	r3, r3, #1
20001996:	5cea      	ldrb	r2, [r5, r3]
20001998:	23d6      	movs	r3, #214	@ 0xd6
2000199a:	33ff      	adds	r3, #255	@ 0xff
2000199c:	5ceb      	ldrb	r3, [r5, r3]
2000199e:	4693      	mov	fp, r2
200019a0:	469a      	mov	sl, r3
200019a2:	2a07      	cmp	r2, #7
200019a4:	d900      	bls.n	200019a8 <_ZN6C1ZZL316outputSynthVoiceElllll+0xa90>
200019a6:	e0b0      	b.n	20001b0a <_ZN6C1ZZL316outputSynthVoiceElllll+0xbf2>
200019a8:	00d3      	lsls	r3, r2, #3
200019aa:	18ff      	adds	r7, r7, r3
200019ac:	687e      	ldr	r6, [r7, #4]
200019ae:	2e00      	cmp	r6, #0
200019b0:	d100      	bne.n	200019b4 <_ZN6C1ZZL316outputSynthVoiceElllll+0xa9c>
200019b2:	3601      	adds	r6, #1
200019b4:	22de      	movs	r2, #222	@ 0xde
200019b6:	8839      	ldrh	r1, [r7, #0]
200019b8:	27e6      	movs	r7, #230	@ 0xe6
200019ba:	0052      	lsls	r2, r2, #1
200019bc:	58ab      	ldr	r3, [r5, r2]
200019be:	007f      	lsls	r7, r7, #1
200019c0:	3301      	adds	r3, #1
200019c2:	50ab      	str	r3, [r5, r2]
200019c4:	59ef      	ldr	r7, [r5, r7]
200019c6:	9101      	str	r1, [sp, #4]
200019c8:	1bc8      	subs	r0, r1, r7
200019ca:	4358      	muls	r0, r3
200019cc:	0031      	movs	r1, r6
200019ce:	9300      	str	r3, [sp, #0]
200019d0:	f002 fc1e 	bl	20004210 <__wrap___aeabi_idiv>
200019d4:	23e2      	movs	r3, #226	@ 0xe2
200019d6:	9a00      	ldr	r2, [sp, #0]
200019d8:	19c7      	adds	r7, r0, r7
200019da:	005b      	lsls	r3, r3, #1
200019dc:	50ef      	str	r7, [r5, r3]
200019de:	4296      	cmp	r6, r2
200019e0:	d900      	bls.n	200019e4 <_ZN6C1ZZL316outputSynthVoiceElllll+0xacc>
200019e2:	e0a1      	b.n	20001b28 <_ZN6C1ZZL316outputSynthVoiceElllll+0xc10>
200019e4:	465e      	mov	r6, fp
200019e6:	9901      	ldr	r1, [sp, #4]
200019e8:	1c72      	adds	r2, r6, #1
200019ea:	50e9      	str	r1, [r5, r3]
200019ec:	20de      	movs	r0, #222	@ 0xde
200019ee:	3310      	adds	r3, #16
200019f0:	b2d2      	uxtb	r2, r2
200019f2:	54ea      	strb	r2, [r5, r3]
200019f4:	2300      	movs	r3, #0
200019f6:	0040      	lsls	r0, r0, #1
200019f8:	502b      	str	r3, [r5, r0]
200019fa:	33cd      	adds	r3, #205	@ 0xcd
200019fc:	33ff      	adds	r3, #255	@ 0xff
200019fe:	50e9      	str	r1, [r5, r3]
20001a00:	4653      	mov	r3, sl
20001a02:	2b07      	cmp	r3, #7
20001a04:	d900      	bls.n	20001a08 <_ZN6C1ZZL316outputSynthVoiceElllll+0xaf0>
20001a06:	e0ad      	b.n	20001b64 <_ZN6C1ZZL316outputSynthVoiceElllll+0xc4c>
20001a08:	3a08      	subs	r2, #8
20001a0a:	4253      	negs	r3, r2
20001a0c:	415a      	adcs	r2, r3
20001a0e:	000f      	movs	r7, r1
20001a10:	b2d6      	uxtb	r6, r2
20001a12:	4653      	mov	r3, sl
20001a14:	00da      	lsls	r2, r3, #3
20001a16:	ab18      	add	r3, sp, #96	@ 0x60
20001a18:	189b      	adds	r3, r3, r2
20001a1a:	6859      	ldr	r1, [r3, #4]
20001a1c:	2900      	cmp	r1, #0
20001a1e:	d100      	bne.n	20001a22 <_ZN6C1ZZL316outputSynthVoiceElllll+0xb0a>
20001a20:	3101      	adds	r1, #1
20001a22:	22e0      	movs	r2, #224	@ 0xe0
20001a24:	0052      	lsls	r2, r2, #1
20001a26:	58a8      	ldr	r0, [r5, r2]
20001a28:	881b      	ldrh	r3, [r3, #0]
20001a2a:	3001      	adds	r0, #1
20001a2c:	50a8      	str	r0, [r5, r2]
20001a2e:	4281      	cmp	r1, r0
20001a30:	d800      	bhi.n	20001a34 <_ZN6C1ZZL316outputSynthVoiceElllll+0xb1c>
20001a32:	e082      	b.n	20001b3a <_ZN6C1ZZL316outputSynthVoiceElllll+0xc22>
20001a34:	3210      	adds	r2, #16
20001a36:	58ae      	ldr	r6, [r5, r2]
20001a38:	1b9b      	subs	r3, r3, r6
20001a3a:	4358      	muls	r0, r3
20001a3c:	f002 fbe8 	bl	20004210 <__wrap___aeabi_idiv>
20001a40:	22e4      	movs	r2, #228	@ 0xe4
20001a42:	1983      	adds	r3, r0, r6
20001a44:	0052      	lsls	r2, r2, #1
20001a46:	50ab      	str	r3, [r5, r2]
20001a48:	2280      	movs	r2, #128	@ 0x80
20001a4a:	0152      	lsls	r2, r2, #5
20001a4c:	4297      	cmp	r7, r2
20001a4e:	db56      	blt.n	20001afe <_ZN6C1ZZL316outputSynthVoiceElllll+0xbe6>
20001a50:	4a7c      	ldr	r2, [pc, #496]	@ (20001c44 <_ZN6C1ZZL316outputSynthVoiceElllll+0xd2c>)
20001a52:	9202      	str	r2, [sp, #8]
20001a54:	f7ff fa7b 	bl	20000f4e <_ZN6C1ZZL316outputSynthVoiceElllll+0x36>
20001a58:	2280      	movs	r2, #128	@ 0x80
20001a5a:	0038      	movs	r0, r7
20001a5c:	497c      	ldr	r1, [pc, #496]	@ (20001c50 <_ZN6C1ZZL316outputSynthVoiceElllll+0xd38>)
20001a5e:	f002 fdb9 	bl	200045d4 <__wrap___aeabi_memcpy>
20001a62:	e796      	b.n	20001992 <_ZN6C1ZZL316outputSynthVoiceElllll+0xa7a>
20001a64:	2280      	movs	r2, #128	@ 0x80
20001a66:	0038      	movs	r0, r7
20001a68:	497a      	ldr	r1, [pc, #488]	@ (20001c54 <_ZN6C1ZZL316outputSynthVoiceElllll+0xd3c>)
20001a6a:	f002 fdb3 	bl	200045d4 <__wrap___aeabi_memcpy>
20001a6e:	e790      	b.n	20001992 <_ZN6C1ZZL316outputSynthVoiceElllll+0xa7a>
20001a70:	2280      	movs	r2, #128	@ 0x80
20001a72:	0038      	movs	r0, r7
20001a74:	4978      	ldr	r1, [pc, #480]	@ (20001c58 <_ZN6C1ZZL316outputSynthVoiceElllll+0xd40>)
20001a76:	f002 fdad 	bl	200045d4 <__wrap___aeabi_memcpy>
20001a7a:	e78a      	b.n	20001992 <_ZN6C1ZZL316outputSynthVoiceElllll+0xa7a>
20001a7c:	2280      	movs	r2, #128	@ 0x80
20001a7e:	0038      	movs	r0, r7
20001a80:	4976      	ldr	r1, [pc, #472]	@ (20001c5c <_ZN6C1ZZL316outputSynthVoiceElllll+0xd44>)
20001a82:	f002 fda7 	bl	200045d4 <__wrap___aeabi_memcpy>
20001a86:	e784      	b.n	20001992 <_ZN6C1ZZL316outputSynthVoiceElllll+0xa7a>
20001a88:	2280      	movs	r2, #128	@ 0x80
20001a8a:	0038      	movs	r0, r7
20001a8c:	4974      	ldr	r1, [pc, #464]	@ (20001c60 <_ZN6C1ZZL316outputSynthVoiceElllll+0xd48>)
20001a8e:	f002 fda1 	bl	200045d4 <__wrap___aeabi_memcpy>
20001a92:	e77e      	b.n	20001992 <_ZN6C1ZZL316outputSynthVoiceElllll+0xa7a>
20001a94:	2280      	movs	r2, #128	@ 0x80
20001a96:	0038      	movs	r0, r7
20001a98:	4972      	ldr	r1, [pc, #456]	@ (20001c64 <_ZN6C1ZZL316outputSynthVoiceElllll+0xd4c>)
20001a9a:	f002 fd9b 	bl	200045d4 <__wrap___aeabi_memcpy>
20001a9e:	e778      	b.n	20001992 <_ZN6C1ZZL316outputSynthVoiceElllll+0xa7a>
20001aa0:	2280      	movs	r2, #128	@ 0x80
20001aa2:	0038      	movs	r0, r7
20001aa4:	4970      	ldr	r1, [pc, #448]	@ (20001c68 <_ZN6C1ZZL316outputSynthVoiceElllll+0xd50>)
20001aa6:	f002 fd95 	bl	200045d4 <__wrap___aeabi_memcpy>
20001aaa:	e772      	b.n	20001992 <_ZN6C1ZZL316outputSynthVoiceElllll+0xa7a>
20001aac:	4b6f      	ldr	r3, [pc, #444]	@ (20001c6c <_ZN6C1ZZL316outputSynthVoiceElllll+0xd54>)
20001aae:	0310      	lsls	r0, r2, #12
20001ab0:	1a10      	subs	r0, r2, r0
20001ab2:	496f      	ldr	r1, [pc, #444]	@ (20001c70 <_ZN6C1ZZL316outputSynthVoiceElllll+0xd58>)
20001ab4:	18c0      	adds	r0, r0, r3
20001ab6:	e67a      	b.n	200017ae <_ZN6C1ZZL316outputSynthVoiceElllll+0x896>
20001ab8:	4643      	mov	r3, r8
20001aba:	0318      	lsls	r0, r3, #12
20001abc:	1a18      	subs	r0, r3, r0
20001abe:	4b6b      	ldr	r3, [pc, #428]	@ (20001c6c <_ZN6C1ZZL316outputSynthVoiceElllll+0xd54>)
20001ac0:	496b      	ldr	r1, [pc, #428]	@ (20001c70 <_ZN6C1ZZL316outputSynthVoiceElllll+0xd58>)
20001ac2:	18c0      	adds	r0, r0, r3
20001ac4:	e6d9      	b.n	2000187a <_ZN6C1ZZL316outputSynthVoiceElllll+0x962>
20001ac6:	24ff      	movs	r4, #255	@ 0xff
20001ac8:	485e      	ldr	r0, [pc, #376]	@ (20001c44 <_ZN6C1ZZL316outputSynthVoiceElllll+0xd2c>)
20001aca:	e718      	b.n	200018fe <_ZN6C1ZZL316outputSynthVoiceElllll+0x9e6>
20001acc:	22ff      	movs	r2, #255	@ 0xff
20001ace:	485d      	ldr	r0, [pc, #372]	@ (20001c44 <_ZN6C1ZZL316outputSynthVoiceElllll+0xd2c>)
20001ad0:	e6ad      	b.n	2000182e <_ZN6C1ZZL316outputSynthVoiceElllll+0x916>
20001ad2:	4c5b      	ldr	r4, [pc, #364]	@ (20001c40 <_ZN6C1ZZL316outputSynthVoiceElllll+0xd28>)
20001ad4:	9b05      	ldr	r3, [sp, #20]
20001ad6:	4699      	mov	r9, r3
20001ad8:	f7ff fbb5 	bl	20001246 <_ZN6C1ZZL316outputSynthVoiceElllll+0x32e>
20001adc:	9b05      	ldr	r3, [sp, #20]
20001ade:	000c      	movs	r4, r1
20001ae0:	4699      	mov	r9, r3
20001ae2:	f7ff fbb0 	bl	20001246 <_ZN6C1ZZL316outputSynthVoiceElllll+0x32e>
20001ae6:	9b05      	ldr	r3, [sp, #20]
20001ae8:	4699      	mov	r9, r3
20001aea:	e4bc      	b.n	20001466 <_ZN6C1ZZL316outputSynthVoiceElllll+0x54e>
20001aec:	9c05      	ldr	r4, [sp, #20]
20001aee:	e4db      	b.n	200014a8 <_ZN6C1ZZL316outputSynthVoiceElllll+0x590>
20001af0:	9b05      	ldr	r3, [sp, #20]
20001af2:	4699      	mov	r9, r3
20001af4:	f7ff fb7e 	bl	200011f4 <_ZN6C1ZZL316outputSynthVoiceElllll+0x2dc>
20001af8:	9b01      	ldr	r3, [sp, #4]
20001afa:	10dc      	asrs	r4, r3, #3
20001afc:	e7ea      	b.n	20001ad4 <_ZN6C1ZZL316outputSynthVoiceElllll+0xbbc>
20001afe:	43fa      	mvns	r2, r7
20001b00:	17d2      	asrs	r2, r2, #31
20001b02:	4017      	ands	r7, r2
20001b04:	9702      	str	r7, [sp, #8]
20001b06:	f7ff fa22 	bl	20000f4e <_ZN6C1ZZL316outputSynthVoiceElllll+0x36>
20001b0a:	23e2      	movs	r3, #226	@ 0xe2
20001b0c:	005b      	lsls	r3, r3, #1
20001b0e:	58ef      	ldr	r7, [r5, r3]
20001b10:	4653      	mov	r3, sl
20001b12:	2b07      	cmp	r3, #7
20001b14:	d800      	bhi.n	20001b18 <_ZN6C1ZZL316outputSynthVoiceElllll+0xc00>
20001b16:	e77c      	b.n	20001a12 <_ZN6C1ZZL316outputSynthVoiceElllll+0xafa>
20001b18:	23e4      	movs	r3, #228	@ 0xe4
20001b1a:	005b      	lsls	r3, r3, #1
20001b1c:	58eb      	ldr	r3, [r5, r3]
20001b1e:	22eb      	movs	r2, #235	@ 0xeb
20001b20:	2100      	movs	r1, #0
20001b22:	0052      	lsls	r2, r2, #1
20001b24:	54a9      	strb	r1, [r5, r2]
20001b26:	e78f      	b.n	20001a48 <_ZN6C1ZZL316outputSynthVoiceElllll+0xb30>
20001b28:	4653      	mov	r3, sl
20001b2a:	2600      	movs	r6, #0
20001b2c:	2b07      	cmp	r3, #7
20001b2e:	d800      	bhi.n	20001b32 <_ZN6C1ZZL316outputSynthVoiceElllll+0xc1a>
20001b30:	e76f      	b.n	20001a12 <_ZN6C1ZZL316outputSynthVoiceElllll+0xafa>
20001b32:	23e4      	movs	r3, #228	@ 0xe4
20001b34:	005b      	lsls	r3, r3, #1
20001b36:	58eb      	ldr	r3, [r5, r3]
20001b38:	e786      	b.n	20001a48 <_ZN6C1ZZL316outputSynthVoiceElllll+0xb30>
20001b3a:	21e4      	movs	r1, #228	@ 0xe4
20001b3c:	0049      	lsls	r1, r1, #1
20001b3e:	506b      	str	r3, [r5, r1]
20001b40:	4651      	mov	r1, sl
20001b42:	20d6      	movs	r0, #214	@ 0xd6
20001b44:	3101      	adds	r1, #1
20001b46:	30ff      	adds	r0, #255	@ 0xff
20001b48:	b2c9      	uxtb	r1, r1
20001b4a:	5429      	strb	r1, [r5, r0]
20001b4c:	2000      	movs	r0, #0
20001b4e:	50a8      	str	r0, [r5, r2]
20001b50:	22e8      	movs	r2, #232	@ 0xe8
20001b52:	0052      	lsls	r2, r2, #1
20001b54:	50ab      	str	r3, [r5, r2]
20001b56:	2e00      	cmp	r6, #0
20001b58:	d100      	bne.n	20001b5c <_ZN6C1ZZL316outputSynthVoiceElllll+0xc44>
20001b5a:	e775      	b.n	20001a48 <_ZN6C1ZZL316outputSynthVoiceElllll+0xb30>
20001b5c:	2908      	cmp	r1, #8
20001b5e:	d000      	beq.n	20001b62 <_ZN6C1ZZL316outputSynthVoiceElllll+0xc4a>
20001b60:	e772      	b.n	20001a48 <_ZN6C1ZZL316outputSynthVoiceElllll+0xb30>
20001b62:	e7dc      	b.n	20001b1e <_ZN6C1ZZL316outputSynthVoiceElllll+0xc06>
20001b64:	23e4      	movs	r3, #228	@ 0xe4
20001b66:	005b      	lsls	r3, r3, #1
20001b68:	000f      	movs	r7, r1
20001b6a:	58eb      	ldr	r3, [r5, r3]
20001b6c:	2a08      	cmp	r2, #8
20001b6e:	d0d6      	beq.n	20001b1e <_ZN6C1ZZL316outputSynthVoiceElllll+0xc06>
20001b70:	e76a      	b.n	20001a48 <_ZN6C1ZZL316outputSynthVoiceElllll+0xb30>
20001b72:	2280      	movs	r2, #128	@ 0x80
20001b74:	0038      	movs	r0, r7
20001b76:	493f      	ldr	r1, [pc, #252]	@ (20001c74 <_ZN6C1ZZL316outputSynthVoiceElllll+0xd5c>)
20001b78:	f002 fd2c 	bl	200045d4 <__wrap___aeabi_memcpy>
20001b7c:	e709      	b.n	20001992 <_ZN6C1ZZL316outputSynthVoiceElllll+0xa7a>
20001b7e:	001c      	movs	r4, r3
20001b80:	2302      	movs	r3, #2
20001b82:	9307      	str	r3, [sp, #28]
20001b84:	4b2e      	ldr	r3, [pc, #184]	@ (20001c40 <_ZN6C1ZZL316outputSynthVoiceElllll+0xd28>)
20001b86:	f7ff fa9e 	bl	200010c6 <_ZN6C1ZZL316outputSynthVoiceElllll+0x1ae>
20001b8a:	9b07      	ldr	r3, [sp, #28]
20001b8c:	2b06      	cmp	r3, #6
20001b8e:	d900      	bls.n	20001b92 <_ZN6C1ZZL316outputSynthVoiceElllll+0xc7a>
20001b90:	e09d      	b.n	20001cce <_ZN6C1ZZL316outputSynthVoiceElllll+0xdb6>
20001b92:	4a39      	ldr	r2, [pc, #228]	@ (20001c78 <_ZN6C1ZZL316outputSynthVoiceElllll+0xd60>)
20001b94:	009b      	lsls	r3, r3, #2
20001b96:	58d3      	ldr	r3, [r2, r3]
20001b98:	469f      	mov	pc, r3
20001b9a:	9c05      	ldr	r4, [sp, #20]
20001b9c:	e489      	b.n	200014b2 <_ZN6C1ZZL316outputSynthVoiceElllll+0x59a>
20001b9e:	4689      	mov	r9, r1
20001ba0:	4c27      	ldr	r4, [pc, #156]	@ (20001c40 <_ZN6C1ZZL316outputSynthVoiceElllll+0xd28>)
20001ba2:	f7ff fb50 	bl	20001246 <_ZN6C1ZZL316outputSynthVoiceElllll+0x32e>
20001ba6:	4a25      	ldr	r2, [pc, #148]	@ (20001c3c <_ZN6C1ZZL316outputSynthVoiceElllll+0xd24>)
20001ba8:	4b25      	ldr	r3, [pc, #148]	@ (20001c40 <_ZN6C1ZZL316outputSynthVoiceElllll+0xd28>)
20001baa:	4694      	mov	ip, r2
20001bac:	f7ff fa0f 	bl	20000fce <_ZN6C1ZZL316outputSynthVoiceElllll+0xb6>
20001bb0:	46a1      	mov	r9, r4
20001bb2:	4c22      	ldr	r4, [pc, #136]	@ (20001c3c <_ZN6C1ZZL316outputSynthVoiceElllll+0xd24>)
20001bb4:	f7ff fb47 	bl	20001246 <_ZN6C1ZZL316outputSynthVoiceElllll+0x32e>
20001bb8:	4c20      	ldr	r4, [pc, #128]	@ (20001c3c <_ZN6C1ZZL316outputSynthVoiceElllll+0xd24>)
20001bba:	e560      	b.n	2000167e <_ZN6C1ZZL316outputSynthVoiceElllll+0x766>
20001bbc:	4b1f      	ldr	r3, [pc, #124]	@ (20001c3c <_ZN6C1ZZL316outputSynthVoiceElllll+0xd24>)
20001bbe:	4699      	mov	r9, r3
20001bc0:	e451      	b.n	20001466 <_ZN6C1ZZL316outputSynthVoiceElllll+0x54e>
20001bc2:	4689      	mov	r9, r1
20001bc4:	4c1d      	ldr	r4, [pc, #116]	@ (20001c3c <_ZN6C1ZZL316outputSynthVoiceElllll+0xd24>)
20001bc6:	f7ff fb3e 	bl	20001246 <_ZN6C1ZZL316outputSynthVoiceElllll+0x32e>
20001bca:	2302      	movs	r3, #2
20001bcc:	9307      	str	r3, [sp, #28]
20001bce:	4b1b      	ldr	r3, [pc, #108]	@ (20001c3c <_ZN6C1ZZL316outputSynthVoiceElllll+0xd24>)
20001bd0:	f7ff fa79 	bl	200010c6 <_ZN6C1ZZL316outputSynthVoiceElllll+0x1ae>
20001bd4:	9b07      	ldr	r3, [sp, #28]
20001bd6:	2b06      	cmp	r3, #6
20001bd8:	d852      	bhi.n	20001c80 <_ZN6C1ZZL316outputSynthVoiceElllll+0xd68>
20001bda:	4a28      	ldr	r2, [pc, #160]	@ (20001c7c <_ZN6C1ZZL316outputSynthVoiceElllll+0xd64>)
20001bdc:	009b      	lsls	r3, r3, #2
20001bde:	58d3      	ldr	r3, [r2, r3]
20001be0:	469f      	mov	pc, r3
20001be2:	9b05      	ldr	r3, [sp, #20]
20001be4:	4699      	mov	r9, r3
20001be6:	f7ff fb0a 	bl	200011fe <_ZN6C1ZZL316outputSynthVoiceElllll+0x2e6>
20001bea:	4c14      	ldr	r4, [pc, #80]	@ (20001c3c <_ZN6C1ZZL316outputSynthVoiceElllll+0xd24>)
20001bec:	e772      	b.n	20001ad4 <_ZN6C1ZZL316outputSynthVoiceElllll+0xbbc>
20001bee:	2207      	movs	r2, #7
20001bf0:	4372      	muls	r2, r6
20001bf2:	0d91      	lsrs	r1, r2, #22
20001bf4:	004b      	lsls	r3, r1, #1
20001bf6:	5efb      	ldrsh	r3, [r7, r3]
20001bf8:	469c      	mov	ip, r3
20001bfa:	00f3      	lsls	r3, r6, #3
20001bfc:	0d98      	lsrs	r0, r3, #22
20001bfe:	0044      	lsls	r4, r0, #1
20001c00:	3001      	adds	r0, #1
20001c02:	0580      	lsls	r0, r0, #22
20001c04:	0d40      	lsrs	r0, r0, #21
20001c06:	5f3c      	ldrsh	r4, [r7, r4]
20001c08:	5e38      	ldrsh	r0, [r7, r0]
20001c0a:	029b      	lsls	r3, r3, #10
20001c0c:	1b00      	subs	r0, r0, r4
20001c0e:	0d9b      	lsrs	r3, r3, #22
20001c10:	4343      	muls	r3, r0
20001c12:	129e      	asrs	r6, r3, #10
20001c14:	1c4b      	adds	r3, r1, #1
20001c16:	059b      	lsls	r3, r3, #22
20001c18:	0d5b      	lsrs	r3, r3, #21
20001c1a:	5ef9      	ldrsh	r1, [r7, r3]
20001c1c:	4663      	mov	r3, ip
20001c1e:	1ac9      	subs	r1, r1, r3
20001c20:	0293      	lsls	r3, r2, #10
20001c22:	0d9b      	lsrs	r3, r3, #22
20001c24:	434b      	muls	r3, r1
20001c26:	1936      	adds	r6, r6, r4
20001c28:	129b      	asrs	r3, r3, #10
20001c2a:	4463      	add	r3, ip
20001c2c:	1076      	asrs	r6, r6, #1
20001c2e:	18f6      	adds	r6, r6, r3
20001c30:	9b05      	ldr	r3, [sp, #20]
20001c32:	1076      	asrs	r6, r6, #1
20001c34:	4699      	mov	r9, r3
20001c36:	f7ff fbf1 	bl	2000141c <_ZN6C1ZZL316outputSynthVoiceElllll+0x504>
20001c3a:	46c0      	nop			@ (mov r8, r8)
20001c3c:	fffff800 	.word	0xfffff800
20001c40:	000007ff 	.word	0x000007ff
20001c44:	00000fff 	.word	0x00000fff
20001c48:	000017ff 	.word	0x000017ff
20001c4c:	20005bc0 	.word	0x20005bc0
20001c50:	20005c40 	.word	0x20005c40
20001c54:	20005cc0 	.word	0x20005cc0
20001c58:	20005d40 	.word	0x20005d40
20001c5c:	20005dc0 	.word	0x20005dc0
20001c60:	20005e40 	.word	0x20005e40
20001c64:	20005ec0 	.word	0x20005ec0
20001c68:	20005f40 	.word	0x20005f40
20001c6c:	00ffe001 	.word	0x00ffe001
20001c70:	000003ff 	.word	0x000003ff
20001c74:	20005fc0 	.word	0x20005fc0
20001c78:	20005b34 	.word	0x20005b34
20001c7c:	20005b50 	.word	0x20005b50
20001c80:	2207      	movs	r2, #7
20001c82:	4372      	muls	r2, r6
20001c84:	0d91      	lsrs	r1, r2, #22
20001c86:	004b      	lsls	r3, r1, #1
20001c88:	5efb      	ldrsh	r3, [r7, r3]
20001c8a:	469c      	mov	ip, r3
20001c8c:	00f3      	lsls	r3, r6, #3
20001c8e:	0d98      	lsrs	r0, r3, #22
20001c90:	0044      	lsls	r4, r0, #1
20001c92:	3001      	adds	r0, #1
20001c94:	0580      	lsls	r0, r0, #22
20001c96:	0d40      	lsrs	r0, r0, #21
20001c98:	5f3c      	ldrsh	r4, [r7, r4]
20001c9a:	5e38      	ldrsh	r0, [r7, r0]
20001c9c:	029b      	lsls	r3, r3, #10
20001c9e:	1b00      	subs	r0, r0, r4
20001ca0:	0d9b      	lsrs	r3, r3, #22
20001ca2:	4343      	muls	r3, r0
20001ca4:	129e      	asrs	r6, r3, #10
20001ca6:	1c4b      	adds	r3, r1, #1
20001ca8:	059b      	lsls	r3, r3, #22
20001caa:	0d5b      	lsrs	r3, r3, #21
20001cac:	5ef9      	ldrsh	r1, [r7, r3]
20001cae:	4663      	mov	r3, ip
20001cb0:	1ac9      	subs	r1, r1, r3
20001cb2:	0293      	lsls	r3, r2, #10
20001cb4:	0d9b      	lsrs	r3, r3, #22
20001cb6:	434b      	muls	r3, r1
20001cb8:	1936      	adds	r6, r6, r4
20001cba:	129b      	asrs	r3, r3, #10
20001cbc:	4463      	add	r3, ip
20001cbe:	1076      	asrs	r6, r6, #1
20001cc0:	18f6      	adds	r6, r6, r3
20001cc2:	9b05      	ldr	r3, [sp, #20]
20001cc4:	24ff      	movs	r4, #255	@ 0xff
20001cc6:	4699      	mov	r9, r3
20001cc8:	4812      	ldr	r0, [pc, #72]	@ (20001d14 <_ZN6C1ZZL316outputSynthVoiceElllll+0xdfc>)
20001cca:	1076      	asrs	r6, r6, #1
20001ccc:	e617      	b.n	200018fe <_ZN6C1ZZL316outputSynthVoiceElllll+0x9e6>
20001cce:	2207      	movs	r2, #7
20001cd0:	4372      	muls	r2, r6
20001cd2:	0d91      	lsrs	r1, r2, #22
20001cd4:	004b      	lsls	r3, r1, #1
20001cd6:	5efb      	ldrsh	r3, [r7, r3]
20001cd8:	3101      	adds	r1, #1
20001cda:	469c      	mov	ip, r3
20001cdc:	00f3      	lsls	r3, r6, #3
20001cde:	0d98      	lsrs	r0, r3, #22
20001ce0:	0044      	lsls	r4, r0, #1
20001ce2:	3001      	adds	r0, #1
20001ce4:	0040      	lsls	r0, r0, #1
20001ce6:	5f3c      	ldrsh	r4, [r7, r4]
20001ce8:	5e38      	ldrsh	r0, [r7, r0]
20001cea:	029b      	lsls	r3, r3, #10
20001cec:	1b00      	subs	r0, r0, r4
20001cee:	0d9b      	lsrs	r3, r3, #22
20001cf0:	4343      	muls	r3, r0
20001cf2:	0049      	lsls	r1, r1, #1
20001cf4:	129e      	asrs	r6, r3, #10
20001cf6:	5e79      	ldrsh	r1, [r7, r1]
20001cf8:	4663      	mov	r3, ip
20001cfa:	1ac9      	subs	r1, r1, r3
20001cfc:	0293      	lsls	r3, r2, #10
20001cfe:	0d9b      	lsrs	r3, r3, #22
20001d00:	434b      	muls	r3, r1
20001d02:	1936      	adds	r6, r6, r4
20001d04:	129b      	asrs	r3, r3, #10
20001d06:	4463      	add	r3, ip
20001d08:	1076      	asrs	r6, r6, #1
20001d0a:	18f6      	adds	r6, r6, r3
20001d0c:	9b05      	ldr	r3, [sp, #20]
20001d0e:	1076      	asrs	r6, r6, #1
20001d10:	4699      	mov	r9, r3
20001d12:	e5ec      	b.n	200018ee <_ZN6C1ZZL316outputSynthVoiceElllll+0x9d6>
20001d14:	00000fff 	.word	0x00000fff

20001d18 <_ZN6C1ZZL329savePerformanceStateIfChangedEv>:
20001d18:	b5f0      	push	{r4, r5, r6, r7, lr}
20001d1a:	4647      	mov	r7, r8
20001d1c:	46ce      	mov	lr, r9
20001d1e:	b580      	push	{r7, lr}
20001d20:	4b40      	ldr	r3, [pc, #256]	@ (20001e24 <_ZN6C1ZZL329savePerformanceStateIfChangedEv+0x10c>)
20001d22:	b0c9      	sub	sp, #292	@ 0x124
20001d24:	9300      	str	r3, [sp, #0]
20001d26:	4b40      	ldr	r3, [pc, #256]	@ (20001e28 <_ZN6C1ZZL329savePerformanceStateIfChangedEv+0x110>)
20001d28:	466c      	mov	r4, sp
20001d2a:	9301      	str	r3, [sp, #4]
20001d2c:	23fc      	movs	r3, #252	@ 0xfc
20001d2e:	005b      	lsls	r3, r3, #1
20001d30:	58c3      	ldr	r3, [r0, r3]
20001d32:	4669      	mov	r1, sp
20001d34:	9302      	str	r3, [sp, #8]
20001d36:	4698      	mov	r8, r3
20001d38:	23fe      	movs	r3, #254	@ 0xfe
20001d3a:	005b      	lsls	r3, r3, #1
20001d3c:	58c7      	ldr	r7, [r0, r3]
20001d3e:	3304      	adds	r3, #4
20001d40:	58c6      	ldr	r6, [r0, r3]
20001d42:	3304      	adds	r3, #4
20001d44:	58c5      	ldr	r5, [r0, r3]
20001d46:	23d8      	movs	r3, #216	@ 0xd8
20001d48:	9703      	str	r7, [sp, #12]
20001d4a:	9604      	str	r6, [sp, #16]
20001d4c:	9505      	str	r5, [sp, #20]
20001d4e:	33ff      	adds	r3, #255	@ 0xff
20001d50:	5cc3      	ldrb	r3, [r0, r3]
20001d52:	4a36      	ldr	r2, [pc, #216]	@ (20001e2c <_ZN6C1ZZL329savePerformanceStateIfChangedEv+0x114>)
20001d54:	469c      	mov	ip, r3
20001d56:	7623      	strb	r3, [r4, #24]
20001d58:	2300      	movs	r3, #0
20001d5a:	a807      	add	r0, sp, #28
20001d5c:	7663      	strb	r3, [r4, #25]
20001d5e:	8363      	strh	r3, [r4, #26]
20001d60:	9307      	str	r3, [sp, #28]
20001d62:	780b      	ldrb	r3, [r1, #0]
20001d64:	3101      	adds	r1, #1
20001d66:	405a      	eors	r2, r3
20001d68:	0413      	lsls	r3, r2, #16
20001d6a:	189b      	adds	r3, r3, r2
20001d6c:	005b      	lsls	r3, r3, #1
20001d6e:	189b      	adds	r3, r3, r2
20001d70:	00db      	lsls	r3, r3, #3
20001d72:	189b      	adds	r3, r3, r2
20001d74:	00db      	lsls	r3, r3, #3
20001d76:	189b      	adds	r3, r3, r2
20001d78:	005b      	lsls	r3, r3, #1
20001d7a:	189a      	adds	r2, r3, r2
20001d7c:	4288      	cmp	r0, r1
20001d7e:	d1f0      	bne.n	20001d62 <_ZN6C1ZZL329savePerformanceStateIfChangedEv+0x4a>
20001d80:	492b      	ldr	r1, [pc, #172]	@ (20001e30 <_ZN6C1ZZL329savePerformanceStateIfChangedEv+0x118>)
20001d82:	61e2      	str	r2, [r4, #28]
20001d84:	4b27      	ldr	r3, [pc, #156]	@ (20001e24 <_ZN6C1ZZL329savePerformanceStateIfChangedEv+0x10c>)
20001d86:	680a      	ldr	r2, [r1, #0]
20001d88:	429a      	cmp	r2, r3
20001d8a:	d01e      	beq.n	20001dca <_ZN6C1ZZL329savePerformanceStateIfChangedEv+0xb2>
20001d8c:	22e0      	movs	r2, #224	@ 0xe0
20001d8e:	21ff      	movs	r1, #255	@ 0xff
20001d90:	a810      	add	r0, sp, #64	@ 0x40
20001d92:	f002 fc19 	bl	200045c8 <__wrap_memset>
20001d96:	2220      	movs	r2, #32
20001d98:	0021      	movs	r1, r4
20001d9a:	a808      	add	r0, sp, #32
20001d9c:	f002 fc1a 	bl	200045d4 <__wrap___aeabi_memcpy>
20001da0:	f3ef 8410 	mrs	r4, PRIMASK
20001da4:	b672      	cpsid	i
20001da6:	2180      	movs	r1, #128	@ 0x80
20001da8:	4822      	ldr	r0, [pc, #136]	@ (20001e34 <_ZN6C1ZZL329savePerformanceStateIfChangedEv+0x11c>)
20001daa:	0149      	lsls	r1, r1, #5
20001dac:	f003 fd64 	bl	20005878 <flash_range_erase>
20001db0:	2280      	movs	r2, #128	@ 0x80
20001db2:	4820      	ldr	r0, [pc, #128]	@ (20001e34 <_ZN6C1ZZL329savePerformanceStateIfChangedEv+0x11c>)
20001db4:	0052      	lsls	r2, r2, #1
20001db6:	a908      	add	r1, sp, #32
20001db8:	f003 fda6 	bl	20005908 <flash_range_program>
20001dbc:	f384 8810 	msr	PRIMASK, r4
20001dc0:	b049      	add	sp, #292	@ 0x124
20001dc2:	bcc0      	pop	{r6, r7}
20001dc4:	46b9      	mov	r9, r7
20001dc6:	46b0      	mov	r8, r6
20001dc8:	bdf0      	pop	{r4, r5, r6, r7, pc}
20001dca:	888b      	ldrh	r3, [r1, #4]
20001dcc:	2b02      	cmp	r3, #2
20001dce:	d1dd      	bne.n	20001d8c <_ZN6C1ZZL329savePerformanceStateIfChangedEv+0x74>
20001dd0:	88cb      	ldrh	r3, [r1, #6]
20001dd2:	2b20      	cmp	r3, #32
20001dd4:	d1da      	bne.n	20001d8c <_ZN6C1ZZL329savePerformanceStateIfChangedEv+0x74>
20001dd6:	69cb      	ldr	r3, [r1, #28]
20001dd8:	4a14      	ldr	r2, [pc, #80]	@ (20001e2c <_ZN6C1ZZL329savePerformanceStateIfChangedEv+0x114>)
20001dda:	4699      	mov	r9, r3
20001ddc:	4816      	ldr	r0, [pc, #88]	@ (20001e38 <_ZN6C1ZZL329savePerformanceStateIfChangedEv+0x120>)
20001dde:	780b      	ldrb	r3, [r1, #0]
20001de0:	3101      	adds	r1, #1
20001de2:	405a      	eors	r2, r3
20001de4:	0413      	lsls	r3, r2, #16
20001de6:	189b      	adds	r3, r3, r2
20001de8:	005b      	lsls	r3, r3, #1
20001dea:	189b      	adds	r3, r3, r2
20001dec:	00db      	lsls	r3, r3, #3
20001dee:	189b      	adds	r3, r3, r2
20001df0:	00db      	lsls	r3, r3, #3
20001df2:	189b      	adds	r3, r3, r2
20001df4:	005b      	lsls	r3, r3, #1
20001df6:	189a      	adds	r2, r3, r2
20001df8:	4281      	cmp	r1, r0
20001dfa:	d1f0      	bne.n	20001dde <_ZN6C1ZZL329savePerformanceStateIfChangedEv+0xc6>
20001dfc:	4591      	cmp	r9, r2
20001dfe:	d1c5      	bne.n	20001d8c <_ZN6C1ZZL329savePerformanceStateIfChangedEv+0x74>
20001e00:	4b0b      	ldr	r3, [pc, #44]	@ (20001e30 <_ZN6C1ZZL329savePerformanceStateIfChangedEv+0x118>)
20001e02:	689a      	ldr	r2, [r3, #8]
20001e04:	4590      	cmp	r8, r2
20001e06:	d1c1      	bne.n	20001d8c <_ZN6C1ZZL329savePerformanceStateIfChangedEv+0x74>
20001e08:	68da      	ldr	r2, [r3, #12]
20001e0a:	4297      	cmp	r7, r2
20001e0c:	d1be      	bne.n	20001d8c <_ZN6C1ZZL329savePerformanceStateIfChangedEv+0x74>
20001e0e:	691a      	ldr	r2, [r3, #16]
20001e10:	4296      	cmp	r6, r2
20001e12:	d1bb      	bne.n	20001d8c <_ZN6C1ZZL329savePerformanceStateIfChangedEv+0x74>
20001e14:	695a      	ldr	r2, [r3, #20]
20001e16:	4295      	cmp	r5, r2
20001e18:	d1b8      	bne.n	20001d8c <_ZN6C1ZZL329savePerformanceStateIfChangedEv+0x74>
20001e1a:	7e1b      	ldrb	r3, [r3, #24]
20001e1c:	4563      	cmp	r3, ip
20001e1e:	d1b5      	bne.n	20001d8c <_ZN6C1ZZL329savePerformanceStateIfChangedEv+0x74>
20001e20:	e7ce      	b.n	20001dc0 <_ZN6C1ZZL329savePerformanceStateIfChangedEv+0xa8>
20001e22:	46c0      	nop			@ (mov r8, r8)
20001e24:	43315a33 	.word	0x43315a33
20001e28:	00200002 	.word	0x00200002
20001e2c:	811c9dc5 	.word	0x811c9dc5
20001e30:	101ff000 	.word	0x101ff000
20001e34:	001ff000 	.word	0x001ff000
20001e38:	101ff01c 	.word	0x101ff01c

20001e3c <_ZN6C1ZZL313ProcessSampleEv>:
20001e3c:	b5f0      	push	{r4, r5, r6, r7, lr}
20001e3e:	4645      	mov	r5, r8
20001e40:	4657      	mov	r7, sl
20001e42:	464e      	mov	r6, r9
20001e44:	46de      	mov	lr, fp
20001e46:	238a      	movs	r3, #138	@ 0x8a
20001e48:	b5e0      	push	{r5, r6, r7, lr}
20001e4a:	005b      	lsls	r3, r3, #1
20001e4c:	5ac5      	ldrh	r5, [r0, r3]
20001e4e:	b08b      	sub	sp, #44	@ 0x2c
20001e50:	b22b      	sxth	r3, r5
20001e52:	9303      	str	r3, [sp, #12]
20001e54:	238b      	movs	r3, #139	@ 0x8b
20001e56:	005b      	lsls	r3, r3, #1
20001e58:	5ac3      	ldrh	r3, [r0, r3]
20001e5a:	22fc      	movs	r2, #252	@ 0xfc
20001e5c:	b21b      	sxth	r3, r3
20001e5e:	9305      	str	r3, [sp, #20]
20001e60:	2386      	movs	r3, #134	@ 0x86
20001e62:	005b      	lsls	r3, r3, #1
20001e64:	58c3      	ldr	r3, [r0, r3]
20001e66:	0004      	movs	r4, r0
20001e68:	9302      	str	r3, [sp, #8]
20001e6a:	2388      	movs	r3, #136	@ 0x88
20001e6c:	005b      	lsls	r3, r3, #1
20001e6e:	58c3      	ldr	r3, [r0, r3]
20001e70:	9307      	str	r3, [sp, #28]
20001e72:	233c      	movs	r3, #60	@ 0x3c
20001e74:	33ff      	adds	r3, #255	@ 0xff
20001e76:	5cc3      	ldrb	r3, [r0, r3]
20001e78:	4698      	mov	r8, r3
20001e7a:	23f8      	movs	r3, #248	@ 0xf8
20001e7c:	58c3      	ldr	r3, [r0, r3]
20001e7e:	5887      	ldr	r7, [r0, r2]
20001e80:	3204      	adds	r2, #4
20001e82:	5882      	ldr	r2, [r0, r2]
20001e84:	4691      	mov	r9, r2
20001e86:	4ad6      	ldr	r2, [pc, #856]	@ (200021e0 <_ZN6C1ZZL313ProcessSampleEv+0x3a4>)
20001e88:	5c81      	ldrb	r1, [r0, r2]
20001e8a:	20f0      	movs	r0, #240	@ 0xf0
20001e8c:	0040      	lsls	r0, r0, #1
20001e8e:	4694      	mov	ip, r2
20001e90:	5c22      	ldrb	r2, [r4, r0]
20001e92:	2a00      	cmp	r2, #0
20001e94:	d000      	beq.n	20001e98 <_ZN6C1ZZL313ProcessSampleEv+0x5c>
20001e96:	e1c7      	b.n	20002228 <_ZN6C1ZZL313ProcessSampleEv+0x3ec>
20001e98:	25ec      	movs	r5, #236	@ 0xec
20001e9a:	006d      	lsls	r5, r5, #1
20001e9c:	5962      	ldr	r2, [r4, r5]
20001e9e:	4ed1      	ldr	r6, [pc, #836]	@ (200021e4 <_ZN6C1ZZL313ProcessSampleEv+0x3a8>)
20001ea0:	42b2      	cmp	r2, r6
20001ea2:	d900      	bls.n	20001ea6 <_ZN6C1ZZL313ProcessSampleEv+0x6a>
20001ea4:	e1be      	b.n	20002224 <_ZN6C1ZZL313ProcessSampleEv+0x3e8>
20001ea6:	48d0      	ldr	r0, [pc, #832]	@ (200021e8 <_ZN6C1ZZL313ProcessSampleEv+0x3ac>)
20001ea8:	3201      	adds	r2, #1
20001eaa:	5162      	str	r2, [r4, r5]
20001eac:	4282      	cmp	r2, r0
20001eae:	d800      	bhi.n	20001eb2 <_ZN6C1ZZL313ProcessSampleEv+0x76>
20001eb0:	e1ba      	b.n	20002228 <_ZN6C1ZZL313ProcessSampleEv+0x3ec>
20001eb2:	4642      	mov	r2, r8
20001eb4:	2a00      	cmp	r2, #0
20001eb6:	d101      	bne.n	20001ebc <_ZN6C1ZZL313ProcessSampleEv+0x80>
20001eb8:	f000 fd48 	bl	2000294c <_ZN6C1ZZL313ProcessSampleEv+0xb10>
20001ebc:	22e2      	movs	r2, #226	@ 0xe2
20001ebe:	32ff      	adds	r2, #255	@ 0xff
20001ec0:	5ca2      	ldrb	r2, [r4, r2]
20001ec2:	2a00      	cmp	r2, #0
20001ec4:	d001      	beq.n	20001eca <_ZN6C1ZZL313ProcessSampleEv+0x8e>
20001ec6:	f000 fd48 	bl	2000295a <_ZN6C1ZZL313ProcessSampleEv+0xb1e>
20001eca:	4662      	mov	r2, ip
20001ecc:	4641      	mov	r1, r8
20001ece:	54a1      	strb	r1, [r4, r2]
20001ed0:	2902      	cmp	r1, #2
20001ed2:	d100      	bne.n	20001ed6 <_ZN6C1ZZL313ProcessSampleEv+0x9a>
20001ed4:	e269      	b.n	200023aa <_ZN6C1ZZL313ProcessSampleEv+0x56e>
20001ed6:	22f4      	movs	r2, #244	@ 0xf4
20001ed8:	4649      	mov	r1, r9
20001eda:	0052      	lsls	r2, r2, #1
20001edc:	50a3      	str	r3, [r4, r2]
20001ede:	3204      	adds	r2, #4
20001ee0:	50a7      	str	r7, [r4, r2]
20001ee2:	3204      	adds	r2, #4
20001ee4:	50a1      	str	r1, [r4, r2]
20001ee6:	3210      	adds	r2, #16
20001ee8:	58a2      	ldr	r2, [r4, r2]
20001eea:	4693      	mov	fp, r2
20001eec:	2281      	movs	r2, #129	@ 0x81
20001eee:	0092      	lsls	r2, r2, #2
20001ef0:	58a2      	ldr	r2, [r4, r2]
20001ef2:	4692      	mov	sl, r2
20001ef4:	466a      	mov	r2, sp
20001ef6:	2108      	movs	r1, #8
20001ef8:	5e52      	ldrsh	r2, [r2, r1]
20001efa:	9208      	str	r2, [sp, #32]
20001efc:	2280      	movs	r2, #128	@ 0x80
20001efe:	0152      	lsls	r2, r2, #5
20001f00:	4293      	cmp	r3, r2
20001f02:	da00      	bge.n	20001f06 <_ZN6C1ZZL313ProcessSampleEv+0xca>
20001f04:	e20f      	b.n	20002326 <_ZN6C1ZZL313ProcessSampleEv+0x4ea>
20001f06:	4bb9      	ldr	r3, [pc, #740]	@ (200021ec <_ZN6C1ZZL313ProcessSampleEv+0x3b0>)
20001f08:	0098      	lsls	r0, r3, #2
20001f0a:	18c0      	adds	r0, r0, r3
20001f0c:	49b7      	ldr	r1, [pc, #732]	@ (200021ec <_ZN6C1ZZL313ProcessSampleEv+0x3b0>)
20001f0e:	0300      	lsls	r0, r0, #12
20001f10:	f002 f97e 	bl	20004210 <__wrap___aeabi_idiv>
20001f14:	2156      	movs	r1, #86	@ 0x56
20001f16:	9b03      	ldr	r3, [sp, #12]
20001f18:	0005      	movs	r5, r0
20001f1a:	31ff      	adds	r1, #255	@ 0xff
20001f1c:	0318      	lsls	r0, r3, #12
20001f1e:	f002 f977 	bl	20004210 <__wrap___aeabi_idiv>
20001f22:	23e0      	movs	r3, #224	@ 0xe0
20001f24:	182d      	adds	r5, r5, r0
20001f26:	01db      	lsls	r3, r3, #7
20001f28:	429d      	cmp	r5, r3
20001f2a:	dd00      	ble.n	20001f2e <_ZN6C1ZZL313ProcessSampleEv+0xf2>
20001f2c:	001d      	movs	r5, r3
20001f2e:	4bb0      	ldr	r3, [pc, #704]	@ (200021f0 <_ZN6C1ZZL313ProcessSampleEv+0x3b4>)
20001f30:	429d      	cmp	r5, r3
20001f32:	da00      	bge.n	20001f36 <_ZN6C1ZZL313ProcessSampleEv+0xfa>
20001f34:	001d      	movs	r5, r3
20001f36:	17eb      	asrs	r3, r5, #31
20001f38:	051a      	lsls	r2, r3, #20
20001f3a:	0d12      	lsrs	r2, r2, #20
20001f3c:	0d1b      	lsrs	r3, r3, #20
20001f3e:	1952      	adds	r2, r2, r5
20001f40:	18ed      	adds	r5, r5, r3
20001f42:	052d      	lsls	r5, r5, #20
20001f44:	1312      	asrs	r2, r2, #12
20001f46:	0d2d      	lsrs	r5, r5, #20
20001f48:	9206      	str	r2, [sp, #24]
20001f4a:	1aed      	subs	r5, r5, r3
20001f4c:	d504      	bpl.n	20001f58 <_ZN6C1ZZL313ProcessSampleEv+0x11c>
20001f4e:	2380      	movs	r3, #128	@ 0x80
20001f50:	3a01      	subs	r2, #1
20001f52:	015b      	lsls	r3, r3, #5
20001f54:	18ed      	adds	r5, r5, r3
20001f56:	9206      	str	r2, [sp, #24]
20001f58:	006b      	lsls	r3, r5, #1
20001f5a:	195b      	adds	r3, r3, r5
20001f5c:	129b      	asrs	r3, r3, #10
20001f5e:	0318      	lsls	r0, r3, #12
20001f60:	210c      	movs	r1, #12
20001f62:	0006      	movs	r6, r0
20001f64:	9302      	str	r3, [sp, #8]
20001f66:	f002 f953 	bl	20004210 <__wrap___aeabi_idiv>
20001f6a:	9004      	str	r0, [sp, #16]
20001f6c:	1a2d      	subs	r5, r5, r0
20001f6e:	0030      	movs	r0, r6
20001f70:	2680      	movs	r6, #128	@ 0x80
20001f72:	9b02      	ldr	r3, [sp, #8]
20001f74:	4a9f      	ldr	r2, [pc, #636]	@ (200021f4 <_ZN6C1ZZL313ProcessSampleEv+0x3b8>)
20001f76:	009b      	lsls	r3, r3, #2
20001f78:	5899      	ldr	r1, [r3, r2]
20001f7a:	0176      	lsls	r6, r6, #5
20001f7c:	9109      	str	r1, [sp, #36]	@ 0x24
20001f7e:	1980      	adds	r0, r0, r6
20001f80:	210c      	movs	r1, #12
20001f82:	9203      	str	r2, [sp, #12]
20001f84:	f002 f944 	bl	20004210 <__wrap___aeabi_idiv>
20001f88:	9904      	ldr	r1, [sp, #16]
20001f8a:	1a41      	subs	r1, r0, r1
20001f8c:	03e8      	lsls	r0, r5, #15
20001f8e:	f002 f93f 	bl	20004210 <__wrap___aeabi_idiv>
20001f92:	9b02      	ldr	r3, [sp, #8]
20001f94:	9a03      	ldr	r2, [sp, #12]
20001f96:	3301      	adds	r3, #1
20001f98:	009b      	lsls	r3, r3, #2
20001f9a:	589a      	ldr	r2, [r3, r2]
20001f9c:	9b09      	ldr	r3, [sp, #36]	@ 0x24
20001f9e:	2100      	movs	r1, #0
20001fa0:	1ad2      	subs	r2, r2, r3
20001fa2:	4350      	muls	r0, r2
20001fa4:	13c0      	asrs	r0, r0, #15
20001fa6:	18c0      	adds	r0, r0, r3
20001fa8:	4a93      	ldr	r2, [pc, #588]	@ (200021f8 <_ZN6C1ZZL313ProcessSampleEv+0x3bc>)
20001faa:	2300      	movs	r3, #0
20001fac:	f002 f9e6 	bl	2000437c <__wrap___aeabi_lmul>
20001fb0:	044b      	lsls	r3, r1, #17
20001fb2:	0bc1      	lsrs	r1, r0, #15
20001fb4:	1859      	adds	r1, r3, r1
20001fb6:	9b06      	ldr	r3, [sp, #24]
20001fb8:	2b00      	cmp	r3, #0
20001fba:	da01      	bge.n	20001fc0 <_ZN6C1ZZL313ProcessSampleEv+0x184>
20001fbc:	f000 fcc2 	bl	20002944 <_ZN6C1ZZL313ProcessSampleEv+0xb08>
20001fc0:	4099      	lsls	r1, r3
20001fc2:	23fa      	movs	r3, #250	@ 0xfa
20001fc4:	005b      	lsls	r3, r3, #1
20001fc6:	58e3      	ldr	r3, [r4, r3]
20001fc8:	2b00      	cmp	r3, #0
20001fca:	d005      	beq.n	20001fd8 <_ZN6C1ZZL313ProcessSampleEv+0x19c>
20001fcc:	1aca      	subs	r2, r1, r3
20001fce:	1251      	asrs	r1, r2, #9
20001fd0:	d101      	bne.n	20001fd6 <_ZN6C1ZZL313ProcessSampleEv+0x19a>
20001fd2:	f000 fe76 	bl	20002cc2 <_ZN6C1ZZL313ProcessSampleEv+0xe86>
20001fd6:	1859      	adds	r1, r3, r1
20001fd8:	23fa      	movs	r3, #250	@ 0xfa
20001fda:	005b      	lsls	r3, r3, #1
20001fdc:	50e1      	str	r1, [r4, r3]
20001fde:	9b05      	ldr	r3, [sp, #20]
20001fe0:	005d      	lsls	r5, r3, #1
20001fe2:	2380      	movs	r3, #128	@ 0x80
20001fe4:	19ed      	adds	r5, r5, r7
20001fe6:	015b      	lsls	r3, r3, #5
20001fe8:	429d      	cmp	r5, r3
20001fea:	da01      	bge.n	20001ff0 <_ZN6C1ZZL313ProcessSampleEv+0x1b4>
20001fec:	f000 fc1c 	bl	20002828 <_ZN6C1ZZL313ProcessSampleEv+0x9ec>
20001ff0:	4d7e      	ldr	r5, [pc, #504]	@ (200021ec <_ZN6C1ZZL313ProcessSampleEv+0x3b0>)
20001ff2:	9b08      	ldr	r3, [sp, #32]
20001ff4:	005f      	lsls	r7, r3, #1
20001ff6:	2380      	movs	r3, #128	@ 0x80
20001ff8:	444f      	add	r7, r9
20001ffa:	015b      	lsls	r3, r3, #5
20001ffc:	429f      	cmp	r7, r3
20001ffe:	da00      	bge.n	20002002 <_ZN6C1ZZL313ProcessSampleEv+0x1c6>
20002000:	e3cb      	b.n	2000279a <_ZN6C1ZZL313ProcessSampleEv+0x95e>
20002002:	4643      	mov	r3, r8
20002004:	4f79      	ldr	r7, [pc, #484]	@ (200021ec <_ZN6C1ZZL313ProcessSampleEv+0x3b0>)
20002006:	2b00      	cmp	r3, #0
20002008:	d000      	beq.n	2000200c <_ZN6C1ZZL313ProcessSampleEv+0x1d0>
2000200a:	e3cd      	b.n	200027a8 <_ZN6C1ZZL313ProcessSampleEv+0x96c>
2000200c:	466b      	mov	r3, sp
2000200e:	221c      	movs	r2, #28
20002010:	5e9a      	ldrsh	r2, [r3, r2]
20002012:	2a00      	cmp	r2, #0
20002014:	dc01      	bgt.n	2000201a <_ZN6C1ZZL313ProcessSampleEv+0x1de>
20002016:	f000 fd62 	bl	20002ade <_ZN6C1ZZL313ProcessSampleEv+0xca2>
2000201a:	465b      	mov	r3, fp
2000201c:	0052      	lsls	r2, r2, #1
2000201e:	18d3      	adds	r3, r2, r3
20002020:	2280      	movs	r2, #128	@ 0x80
20002022:	0152      	lsls	r2, r2, #5
20002024:	4293      	cmp	r3, r2
20002026:	db01      	blt.n	2000202c <_ZN6C1ZZL313ProcessSampleEv+0x1f0>
20002028:	f000 fc03 	bl	20002832 <_ZN6C1ZZL313ProcessSampleEv+0x9f6>
2000202c:	43da      	mvns	r2, r3
2000202e:	17d2      	asrs	r2, r2, #31
20002030:	4013      	ands	r3, r2
20002032:	2280      	movs	r2, #128	@ 0x80
20002034:	0152      	lsls	r2, r2, #5
20002036:	4592      	cmp	sl, r2
20002038:	db00      	blt.n	2000203c <_ZN6C1ZZL313ProcessSampleEv+0x200>
2000203a:	e3c2      	b.n	200027c2 <_ZN6C1ZZL313ProcessSampleEv+0x986>
2000203c:	4650      	mov	r0, sl
2000203e:	43c2      	mvns	r2, r0
20002040:	17d2      	asrs	r2, r2, #31
20002042:	4002      	ands	r2, r0
20002044:	200a      	movs	r0, #10
20002046:	30ff      	adds	r0, #255	@ 0xff
20002048:	5c20      	ldrb	r0, [r4, r0]
2000204a:	2800      	cmp	r0, #0
2000204c:	d000      	beq.n	20002050 <_ZN6C1ZZL313ProcessSampleEv+0x214>
2000204e:	e3bf      	b.n	200027d0 <_ZN6C1ZZL313ProcessSampleEv+0x994>
20002050:	9201      	str	r2, [sp, #4]
20002052:	9300      	str	r3, [sp, #0]
20002054:	002a      	movs	r2, r5
20002056:	003b      	movs	r3, r7
20002058:	0020      	movs	r0, r4
2000205a:	f7fe ff5d 	bl	20000f18 <_ZN6C1ZZL316outputSynthVoiceElllll>
2000205e:	23c0      	movs	r3, #192	@ 0xc0
20002060:	2180      	movs	r1, #128	@ 0x80
20002062:	005b      	lsls	r3, r3, #1
20002064:	58e2      	ldr	r2, [r4, r3]
20002066:	0109      	lsls	r1, r1, #4
20002068:	1c13      	adds	r3, r2, #0
2000206a:	b212      	sxth	r2, r2
2000206c:	428a      	cmp	r2, r1
2000206e:	db00      	blt.n	20002072 <_ZN6C1ZZL313ProcessSampleEv+0x236>
20002070:	4b62      	ldr	r3, [pc, #392]	@ (200021fc <_ZN6C1ZZL313ProcessSampleEv+0x3c0>)
20002072:	4a63      	ldr	r2, [pc, #396]	@ (20002200 <_ZN6C1ZZL313ProcessSampleEv+0x3c4>)
20002074:	b21b      	sxth	r3, r3
20002076:	4293      	cmp	r3, r2
20002078:	da00      	bge.n	2000207c <_ZN6C1ZZL313ProcessSampleEv+0x240>
2000207a:	0013      	movs	r3, r2
2000207c:	485f      	ldr	r0, [pc, #380]	@ (200021fc <_ZN6C1ZZL313ProcessSampleEv+0x3c0>)
2000207e:	4961      	ldr	r1, [pc, #388]	@ (20002204 <_ZN6C1ZZL313ProcessSampleEv+0x3c8>)
20002080:	1ac3      	subs	r3, r0, r3
20002082:	015a      	lsls	r2, r3, #5
20002084:	1ad2      	subs	r2, r2, r3
20002086:	0092      	lsls	r2, r2, #2
20002088:	18d3      	adds	r3, r2, r3
2000208a:	600b      	str	r3, [r1, #0]
2000208c:	23c2      	movs	r3, #194	@ 0xc2
2000208e:	2680      	movs	r6, #128	@ 0x80
20002090:	005b      	lsls	r3, r3, #1
20002092:	58e2      	ldr	r2, [r4, r3]
20002094:	0136      	lsls	r6, r6, #4
20002096:	1c13      	adds	r3, r2, #0
20002098:	b212      	sxth	r2, r2
2000209a:	42b2      	cmp	r2, r6
2000209c:	db00      	blt.n	200020a0 <_ZN6C1ZZL313ProcessSampleEv+0x264>
2000209e:	1c03      	adds	r3, r0, #0
200020a0:	4a57      	ldr	r2, [pc, #348]	@ (20002200 <_ZN6C1ZZL313ProcessSampleEv+0x3c4>)
200020a2:	b21b      	sxth	r3, r3
200020a4:	4293      	cmp	r3, r2
200020a6:	da00      	bge.n	200020aa <_ZN6C1ZZL313ProcessSampleEv+0x26e>
200020a8:	0013      	movs	r3, r2
200020aa:	4a54      	ldr	r2, [pc, #336]	@ (200021fc <_ZN6C1ZZL313ProcessSampleEv+0x3c0>)
200020ac:	1ad2      	subs	r2, r2, r3
200020ae:	0153      	lsls	r3, r2, #5
200020b0:	1a9b      	subs	r3, r3, r2
200020b2:	009b      	lsls	r3, r3, #2
200020b4:	189b      	adds	r3, r3, r2
200020b6:	604b      	str	r3, [r1, #4]
200020b8:	23d4      	movs	r3, #212	@ 0xd4
200020ba:	005b      	lsls	r3, r3, #1
200020bc:	5ce3      	ldrb	r3, [r4, r3]
200020be:	2b00      	cmp	r3, #0
200020c0:	d001      	beq.n	200020c6 <_ZN6C1ZZL313ProcessSampleEv+0x28a>
200020c2:	f000 fc2c 	bl	2000291e <_ZN6C1ZZL313ProcessSampleEv+0xae2>
200020c6:	23d0      	movs	r3, #208	@ 0xd0
200020c8:	2280      	movs	r2, #128	@ 0x80
200020ca:	061b      	lsls	r3, r3, #24
200020cc:	0052      	lsls	r2, r2, #1
200020ce:	615a      	str	r2, [r3, #20]
200020d0:	23aa      	movs	r3, #170	@ 0xaa
200020d2:	33ff      	adds	r3, #255	@ 0xff
200020d4:	5ce3      	ldrb	r3, [r4, r3]
200020d6:	2b00      	cmp	r3, #0
200020d8:	d001      	beq.n	200020de <_ZN6C1ZZL313ProcessSampleEv+0x2a2>
200020da:	f000 fc2c 	bl	20002936 <_ZN6C1ZZL313ProcessSampleEv+0xafa>
200020de:	23d0      	movs	r3, #208	@ 0xd0
200020e0:	2280      	movs	r2, #128	@ 0x80
200020e2:	061b      	lsls	r3, r3, #24
200020e4:	0092      	lsls	r2, r2, #2
200020e6:	615a      	str	r2, [r3, #20]
200020e8:	436d      	muls	r5, r5
200020ea:	4a47      	ldr	r2, [pc, #284]	@ (20002208 <_ZN6C1ZZL313ProcessSampleEv+0x3cc>)
200020ec:	122b      	asrs	r3, r5, #8
200020ee:	6811      	ldr	r1, [r2, #0]
200020f0:	437f      	muls	r7, r7
200020f2:	404b      	eors	r3, r1
200020f4:	041b      	lsls	r3, r3, #16
200020f6:	4945      	ldr	r1, [pc, #276]	@ (2000220c <_ZN6C1ZZL313ProcessSampleEv+0x3d0>)
200020f8:	0c1b      	lsrs	r3, r3, #16
200020fa:	600b      	str	r3, [r1, #0]
200020fc:	6810      	ldr	r0, [r2, #0]
200020fe:	123b      	asrs	r3, r7, #8
20002100:	041b      	lsls	r3, r3, #16
20002102:	4043      	eors	r3, r0
20002104:	0c1b      	lsrs	r3, r3, #16
20002106:	041b      	lsls	r3, r3, #16
20002108:	600b      	str	r3, [r1, #0]
2000210a:	23fe      	movs	r3, #254	@ 0xfe
2000210c:	005b      	lsls	r3, r3, #1
2000210e:	5ae3      	ldrh	r3, [r4, r3]
20002110:	4f3f      	ldr	r7, [pc, #252]	@ (20002210 <_ZN6C1ZZL313ProcessSampleEv+0x3d4>)
20002112:	435b      	muls	r3, r3
20002114:	6838      	ldr	r0, [r7, #0]
20002116:	021b      	lsls	r3, r3, #8
20002118:	0c1b      	lsrs	r3, r3, #16
2000211a:	4043      	eors	r3, r0
2000211c:	4d3d      	ldr	r5, [pc, #244]	@ (20002214 <_ZN6C1ZZL313ProcessSampleEv+0x3d8>)
2000211e:	041b      	lsls	r3, r3, #16
20002120:	0c1b      	lsrs	r3, r3, #16
20002122:	602b      	str	r3, [r5, #0]
20002124:	2380      	movs	r3, #128	@ 0x80
20002126:	009b      	lsls	r3, r3, #2
20002128:	5ae3      	ldrh	r3, [r4, r3]
2000212a:	6838      	ldr	r0, [r7, #0]
2000212c:	435b      	muls	r3, r3
2000212e:	121b      	asrs	r3, r3, #8
20002130:	041b      	lsls	r3, r3, #16
20002132:	4043      	eors	r3, r0
20002134:	0c1b      	lsrs	r3, r3, #16
20002136:	041b      	lsls	r3, r3, #16
20002138:	602b      	str	r3, [r5, #0]
2000213a:	2381      	movs	r3, #129	@ 0x81
2000213c:	009b      	lsls	r3, r3, #2
2000213e:	5ae3      	ldrh	r3, [r4, r3]
20002140:	4835      	ldr	r0, [pc, #212]	@ (20002218 <_ZN6C1ZZL313ProcessSampleEv+0x3dc>)
20002142:	435b      	muls	r3, r3
20002144:	6806      	ldr	r6, [r0, #0]
20002146:	021b      	lsls	r3, r3, #8
20002148:	0c1b      	lsrs	r3, r3, #16
2000214a:	4073      	eors	r3, r6
2000214c:	041b      	lsls	r3, r3, #16
2000214e:	4e33      	ldr	r6, [pc, #204]	@ (2000221c <_ZN6C1ZZL313ProcessSampleEv+0x3e0>)
20002150:	0c1b      	lsrs	r3, r3, #16
20002152:	6033      	str	r3, [r6, #0]
20002154:	4643      	mov	r3, r8
20002156:	46b4      	mov	ip, r6
20002158:	2b00      	cmp	r3, #0
2000215a:	d100      	bne.n	2000215e <_ZN6C1ZZL313ProcessSampleEv+0x322>
2000215c:	e38c      	b.n	20002878 <_ZN6C1ZZL313ProcessSampleEv+0xa3c>
2000215e:	6803      	ldr	r3, [r0, #0]
20002160:	0c1b      	lsrs	r3, r3, #16
20002162:	041b      	lsls	r3, r3, #16
20002164:	6033      	str	r3, [r6, #0]
20002166:	2386      	movs	r3, #134	@ 0x86
20002168:	2600      	movs	r6, #0
2000216a:	009b      	lsls	r3, r3, #2
2000216c:	50e6      	str	r6, [r4, r3]
2000216e:	3308      	adds	r3, #8
20002170:	52e6      	strh	r6, [r4, r3]
20002172:	2687      	movs	r6, #135	@ 0x87
20002174:	00b6      	lsls	r6, r6, #2
20002176:	59a3      	ldr	r3, [r4, r6]
20002178:	2b00      	cmp	r3, #0
2000217a:	d02a      	beq.n	200021d2 <_ZN6C1ZZL313ProcessSampleEv+0x396>
2000217c:	3b01      	subs	r3, #1
2000217e:	51a3      	str	r3, [r4, r6]
20002180:	04db      	lsls	r3, r3, #19
20002182:	4c27      	ldr	r4, [pc, #156]	@ (20002220 <_ZN6C1ZZL313ProcessSampleEv+0x3e4>)
20002184:	0fdb      	lsrs	r3, r3, #31
20002186:	3b01      	subs	r3, #1
20002188:	4023      	ands	r3, r4
2000218a:	4c18      	ldr	r4, [pc, #96]	@ (200021ec <_ZN6C1ZZL313ProcessSampleEv+0x3b0>)
2000218c:	191b      	adds	r3, r3, r4
2000218e:	435b      	muls	r3, r3
20002190:	6814      	ldr	r4, [r2, #0]
20002192:	121b      	asrs	r3, r3, #8
20002194:	405c      	eors	r4, r3
20002196:	0424      	lsls	r4, r4, #16
20002198:	0c24      	lsrs	r4, r4, #16
2000219a:	600c      	str	r4, [r1, #0]
2000219c:	6812      	ldr	r2, [r2, #0]
2000219e:	041c      	lsls	r4, r3, #16
200021a0:	4062      	eors	r2, r4
200021a2:	0c12      	lsrs	r2, r2, #16
200021a4:	0412      	lsls	r2, r2, #16
200021a6:	600a      	str	r2, [r1, #0]
200021a8:	683a      	ldr	r2, [r7, #0]
200021aa:	405a      	eors	r2, r3
200021ac:	0412      	lsls	r2, r2, #16
200021ae:	0c12      	lsrs	r2, r2, #16
200021b0:	602a      	str	r2, [r5, #0]
200021b2:	683a      	ldr	r2, [r7, #0]
200021b4:	4062      	eors	r2, r4
200021b6:	0c12      	lsrs	r2, r2, #16
200021b8:	0412      	lsls	r2, r2, #16
200021ba:	602a      	str	r2, [r5, #0]
200021bc:	6802      	ldr	r2, [r0, #0]
200021be:	4053      	eors	r3, r2
200021c0:	4662      	mov	r2, ip
200021c2:	041b      	lsls	r3, r3, #16
200021c4:	0c1b      	lsrs	r3, r3, #16
200021c6:	6013      	str	r3, [r2, #0]
200021c8:	6803      	ldr	r3, [r0, #0]
200021ca:	405c      	eors	r4, r3
200021cc:	0c24      	lsrs	r4, r4, #16
200021ce:	0424      	lsls	r4, r4, #16
200021d0:	6014      	str	r4, [r2, #0]
200021d2:	b00b      	add	sp, #44	@ 0x2c
200021d4:	bcf0      	pop	{r4, r5, r6, r7}
200021d6:	46bb      	mov	fp, r7
200021d8:	46b2      	mov	sl, r6
200021da:	46a9      	mov	r9, r5
200021dc:	46a0      	mov	r8, r4
200021de:	bdf0      	pop	{r4, r5, r6, r7, pc}
200021e0:	00000222 	.word	0x00000222
200021e4:	00008c9f 	.word	0x00008c9f
200021e8:	00002edf 	.word	0x00002edf
200021ec:	00000fff 	.word	0x00000fff
200021f0:	ffffe000 	.word	0xffffe000
200021f4:	20005b84 	.word	0x20005b84
200021f8:	00594d31 	.word	0x00594d31
200021fc:	000007ff 	.word	0x000007ff
20002200:	fffff800 	.word	0xfffff800
20002204:	20006958 	.word	0x20006958
20002208:	40050070 	.word	0x40050070
2000220c:	40051070 	.word	0x40051070
20002210:	40050084 	.word	0x40050084
20002214:	40051084 	.word	0x40051084
20002218:	40050098 	.word	0x40050098
2000221c:	40051098 	.word	0x40051098
20002220:	fffff001 	.word	0xfffff001
20002224:	2201      	movs	r2, #1
20002226:	5422      	strb	r2, [r4, r0]
20002228:	22e2      	movs	r2, #226	@ 0xe2
2000222a:	32ff      	adds	r2, #255	@ 0xff
2000222c:	5ca2      	ldrb	r2, [r4, r2]
2000222e:	2a00      	cmp	r2, #0
20002230:	d000      	beq.n	20002234 <_ZN6C1ZZL313ProcessSampleEv+0x3f8>
20002232:	e392      	b.n	2000295a <_ZN6C1ZZL313ProcessSampleEv+0xb1e>
20002234:	2902      	cmp	r1, #2
20002236:	d07a      	beq.n	2000232e <_ZN6C1ZZL313ProcessSampleEv+0x4f2>
20002238:	4640      	mov	r0, r8
2000223a:	4aa7      	ldr	r2, [pc, #668]	@ (200024d8 <_ZN6C1ZZL313ProcessSampleEv+0x69c>)
2000223c:	54a0      	strb	r0, [r4, r2]
2000223e:	2802      	cmp	r0, #2
20002240:	d100      	bne.n	20002244 <_ZN6C1ZZL313ProcessSampleEv+0x408>
20002242:	e0b2      	b.n	200023aa <_ZN6C1ZZL313ProcessSampleEv+0x56e>
20002244:	2800      	cmp	r0, #0
20002246:	d000      	beq.n	2000224a <_ZN6C1ZZL313ProcessSampleEv+0x40e>
20002248:	e645      	b.n	20001ed6 <_ZN6C1ZZL313ProcessSampleEv+0x9a>
2000224a:	2900      	cmp	r1, #0
2000224c:	d000      	beq.n	20002250 <_ZN6C1ZZL313ProcessSampleEv+0x414>
2000224e:	e08a      	b.n	20002366 <_ZN6C1ZZL313ProcessSampleEv+0x52a>
20002250:	2285      	movs	r2, #133	@ 0x85
20002252:	0092      	lsls	r2, r2, #2
20002254:	5ca2      	ldrb	r2, [r4, r2]
20002256:	2a00      	cmp	r2, #0
20002258:	d101      	bne.n	2000225e <_ZN6C1ZZL313ProcessSampleEv+0x422>
2000225a:	f000 fd47 	bl	20002cec <_ZN6C1ZZL313ProcessSampleEv+0xeb0>
2000225e:	4a9f      	ldr	r2, [pc, #636]	@ (200024dc <_ZN6C1ZZL313ProcessSampleEv+0x6a0>)
20002260:	189a      	adds	r2, r3, r2
20002262:	2a3e      	cmp	r2, #62	@ 0x3e
20002264:	d801      	bhi.n	2000226a <_ZN6C1ZZL313ProcessSampleEv+0x42e>
20002266:	f000 fcb9 	bl	20002bdc <_ZN6C1ZZL313ProcessSampleEv+0xda0>
2000226a:	4a9d      	ldr	r2, [pc, #628]	@ (200024e0 <_ZN6C1ZZL313ProcessSampleEv+0x6a4>)
2000226c:	189b      	adds	r3, r3, r2
2000226e:	22fc      	movs	r2, #252	@ 0xfc
20002270:	0052      	lsls	r2, r2, #1
20002272:	50a3      	str	r3, [r4, r2]
20002274:	17da      	asrs	r2, r3, #31
20002276:	189b      	adds	r3, r3, r2
20002278:	4053      	eors	r3, r2
2000227a:	2280      	movs	r2, #128	@ 0x80
2000227c:	005b      	lsls	r3, r3, #1
2000227e:	0152      	lsls	r2, r2, #5
20002280:	4293      	cmp	r3, r2
20002282:	da01      	bge.n	20002288 <_ZN6C1ZZL313ProcessSampleEv+0x44c>
20002284:	f000 fd26 	bl	20002cd4 <_ZN6C1ZZL313ProcessSampleEv+0xe98>
20002288:	23fe      	movs	r3, #254	@ 0xfe
2000228a:	4a96      	ldr	r2, [pc, #600]	@ (200024e4 <_ZN6C1ZZL313ProcessSampleEv+0x6a8>)
2000228c:	005b      	lsls	r3, r3, #1
2000228e:	50e2      	str	r2, [r4, r3]
20002290:	4a95      	ldr	r2, [pc, #596]	@ (200024e8 <_ZN6C1ZZL313ProcessSampleEv+0x6ac>)
20002292:	5ca3      	ldrb	r3, [r4, r2]
20002294:	2b00      	cmp	r3, #0
20002296:	d17d      	bne.n	20002394 <_ZN6C1ZZL313ProcessSampleEv+0x558>
20002298:	2380      	movs	r3, #128	@ 0x80
2000229a:	009b      	lsls	r3, r3, #2
2000229c:	58e0      	ldr	r0, [r4, r3]
2000229e:	330c      	adds	r3, #12
200022a0:	58e3      	ldr	r3, [r4, r3]
200022a2:	4683      	mov	fp, r0
200022a4:	1afb      	subs	r3, r7, r3
200022a6:	17d9      	asrs	r1, r3, #31
200022a8:	185b      	adds	r3, r3, r1
200022aa:	404b      	eors	r3, r1
200022ac:	2b3f      	cmp	r3, #63	@ 0x3f
200022ae:	dd07      	ble.n	200022c0 <_ZN6C1ZZL313ProcessSampleEv+0x484>
200022b0:	1a3b      	subs	r3, r7, r0
200022b2:	17d9      	asrs	r1, r3, #31
200022b4:	185b      	adds	r3, r3, r1
200022b6:	404b      	eors	r3, r1
200022b8:	2b60      	cmp	r3, #96	@ 0x60
200022ba:	dc01      	bgt.n	200022c0 <_ZN6C1ZZL313ProcessSampleEv+0x484>
200022bc:	f000 fcda 	bl	20002c74 <_ZN6C1ZZL313ProcessSampleEv+0xe38>
200022c0:	4a8a      	ldr	r2, [pc, #552]	@ (200024ec <_ZN6C1ZZL313ProcessSampleEv+0x6b0>)
200022c2:	5ca3      	ldrb	r3, [r4, r2]
200022c4:	2b00      	cmp	r3, #0
200022c6:	d118      	bne.n	200022fa <_ZN6C1ZZL313ProcessSampleEv+0x4be>
200022c8:	2381      	movs	r3, #129	@ 0x81
200022ca:	464d      	mov	r5, r9
200022cc:	009b      	lsls	r3, r3, #2
200022ce:	58e0      	ldr	r0, [r4, r3]
200022d0:	330c      	adds	r3, #12
200022d2:	58e3      	ldr	r3, [r4, r3]
200022d4:	4682      	mov	sl, r0
200022d6:	1aeb      	subs	r3, r5, r3
200022d8:	17d9      	asrs	r1, r3, #31
200022da:	185b      	adds	r3, r3, r1
200022dc:	404b      	eors	r3, r1
200022de:	2b3f      	cmp	r3, #63	@ 0x3f
200022e0:	dc01      	bgt.n	200022e6 <_ZN6C1ZZL313ProcessSampleEv+0x4aa>
200022e2:	f000 fc50 	bl	20002b86 <_ZN6C1ZZL313ProcessSampleEv+0xd4a>
200022e6:	1a2b      	subs	r3, r5, r0
200022e8:	17d9      	asrs	r1, r3, #31
200022ea:	185b      	adds	r3, r3, r1
200022ec:	404b      	eors	r3, r1
200022ee:	2b60      	cmp	r3, #96	@ 0x60
200022f0:	dd01      	ble.n	200022f6 <_ZN6C1ZZL313ProcessSampleEv+0x4ba>
200022f2:	f000 fc48 	bl	20002b86 <_ZN6C1ZZL313ProcessSampleEv+0xd4a>
200022f6:	2301      	movs	r3, #1
200022f8:	54a3      	strb	r3, [r4, r2]
200022fa:	2381      	movs	r3, #129	@ 0x81
200022fc:	4649      	mov	r1, r9
200022fe:	22f6      	movs	r2, #246	@ 0xf6
20002300:	009b      	lsls	r3, r3, #2
20002302:	50e1      	str	r1, [r4, r3]
20002304:	0052      	lsls	r2, r2, #1
20002306:	58a7      	ldr	r7, [r4, r2]
20002308:	3204      	adds	r2, #4
2000230a:	58a2      	ldr	r2, [r4, r2]
2000230c:	46ca      	mov	sl, r9
2000230e:	4691      	mov	r9, r2
20002310:	466a      	mov	r2, sp
20002312:	2108      	movs	r1, #8
20002314:	5e52      	ldrsh	r2, [r2, r1]
20002316:	3b1c      	subs	r3, #28
20002318:	9208      	str	r2, [sp, #32]
2000231a:	2280      	movs	r2, #128	@ 0x80
2000231c:	58e3      	ldr	r3, [r4, r3]
2000231e:	0152      	lsls	r2, r2, #5
20002320:	4293      	cmp	r3, r2
20002322:	db00      	blt.n	20002326 <_ZN6C1ZZL313ProcessSampleEv+0x4ea>
20002324:	e5ef      	b.n	20001f06 <_ZN6C1ZZL313ProcessSampleEv+0xca>
20002326:	43da      	mvns	r2, r3
20002328:	17d2      	asrs	r2, r2, #31
2000232a:	4013      	ands	r3, r2
2000232c:	e5ec      	b.n	20001f08 <_ZN6C1ZZL313ProcessSampleEv+0xcc>
2000232e:	4642      	mov	r2, r8
20002330:	2a00      	cmp	r2, #0
20002332:	d134      	bne.n	2000239e <_ZN6C1ZZL313ProcessSampleEv+0x562>
20002334:	486e      	ldr	r0, [pc, #440]	@ (200024f0 <_ZN6C1ZZL313ProcessSampleEv+0x6b4>)
20002336:	3289      	adds	r2, #137	@ 0x89
20002338:	4684      	mov	ip, r0
2000233a:	32ff      	adds	r2, #255	@ 0xff
2000233c:	58a2      	ldr	r2, [r4, r2]
2000233e:	486d      	ldr	r0, [pc, #436]	@ (200024f4 <_ZN6C1ZZL313ProcessSampleEv+0x6b8>)
20002340:	4494      	add	ip, r2
20002342:	4584      	cmp	ip, r0
20002344:	d809      	bhi.n	2000235a <_ZN6C1ZZL313ProcessSampleEv+0x51e>
20002346:	20c8      	movs	r0, #200	@ 0xc8
20002348:	0040      	lsls	r0, r0, #1
2000234a:	5022      	str	r2, [r4, r0]
2000234c:	3804      	subs	r0, #4
2000234e:	5022      	str	r2, [r4, r0]
20002350:	22d5      	movs	r2, #213	@ 0xd5
20002352:	388c      	subs	r0, #140	@ 0x8c
20002354:	0052      	lsls	r2, r2, #1
20002356:	38ff      	subs	r0, #255	@ 0xff
20002358:	54a0      	strb	r0, [r4, r2]
2000235a:	22c4      	movs	r2, #196	@ 0xc4
2000235c:	2000      	movs	r0, #0
2000235e:	0052      	lsls	r2, r2, #1
20002360:	50a0      	str	r0, [r4, r2]
20002362:	4a5d      	ldr	r2, [pc, #372]	@ (200024d8 <_ZN6C1ZZL313ProcessSampleEv+0x69c>)
20002364:	54a0      	strb	r0, [r4, r2]
20002366:	3901      	subs	r1, #1
20002368:	424a      	negs	r2, r1
2000236a:	4151      	adcs	r1, r2
2000236c:	2288      	movs	r2, #136	@ 0x88
2000236e:	0092      	lsls	r2, r2, #2
20002370:	54a1      	strb	r1, [r4, r2]
20002372:	2100      	movs	r1, #0
20002374:	3a0c      	subs	r2, #12
20002376:	52a1      	strh	r1, [r4, r2]
20002378:	4a5c      	ldr	r2, [pc, #368]	@ (200024ec <_ZN6C1ZZL313ProcessSampleEv+0x6b0>)
2000237a:	54a1      	strb	r1, [r4, r2]
2000237c:	3a0e      	subs	r2, #14
2000237e:	50a3      	str	r3, [r4, r2]
20002380:	2383      	movs	r3, #131	@ 0x83
20002382:	464a      	mov	r2, r9
20002384:	009b      	lsls	r3, r3, #2
20002386:	50e7      	str	r7, [r4, r3]
20002388:	3304      	adds	r3, #4
2000238a:	50e2      	str	r2, [r4, r3]
2000238c:	4a56      	ldr	r2, [pc, #344]	@ (200024e8 <_ZN6C1ZZL313ProcessSampleEv+0x6ac>)
2000238e:	5ca3      	ldrb	r3, [r4, r2]
20002390:	2b00      	cmp	r3, #0
20002392:	d081      	beq.n	20002298 <_ZN6C1ZZL313ProcessSampleEv+0x45c>
20002394:	2380      	movs	r3, #128	@ 0x80
20002396:	009b      	lsls	r3, r3, #2
20002398:	46bb      	mov	fp, r7
2000239a:	50e7      	str	r7, [r4, r3]
2000239c:	e790      	b.n	200022c0 <_ZN6C1ZZL313ProcessSampleEv+0x484>
2000239e:	4641      	mov	r1, r8
200023a0:	4a4d      	ldr	r2, [pc, #308]	@ (200024d8 <_ZN6C1ZZL313ProcessSampleEv+0x69c>)
200023a2:	54a1      	strb	r1, [r4, r2]
200023a4:	2902      	cmp	r1, #2
200023a6:	d000      	beq.n	200023aa <_ZN6C1ZZL313ProcessSampleEv+0x56e>
200023a8:	e595      	b.n	20001ed6 <_ZN6C1ZZL313ProcessSampleEv+0x9a>
200023aa:	2186      	movs	r1, #134	@ 0x86
200023ac:	2200      	movs	r2, #0
200023ae:	0089      	lsls	r1, r1, #2
200023b0:	5062      	str	r2, [r4, r1]
200023b2:	3108      	adds	r1, #8
200023b4:	5262      	strh	r2, [r4, r1]
200023b6:	00fa      	lsls	r2, r7, #3
200023b8:	1bd2      	subs	r2, r2, r7
200023ba:	0052      	lsls	r2, r2, #1
200023bc:	1312      	asrs	r2, r2, #12
200023be:	3202      	adds	r2, #2
200023c0:	2a10      	cmp	r2, #16
200023c2:	d900      	bls.n	200023c6 <_ZN6C1ZZL313ProcessSampleEv+0x58a>
200023c4:	e381      	b.n	20002aca <_ZN6C1ZZL313ProcessSampleEv+0xc8e>
200023c6:	21d0      	movs	r1, #208	@ 0xd0
200023c8:	0049      	lsls	r1, r1, #1
200023ca:	5062      	str	r2, [r4, r1]
200023cc:	3998      	subs	r1, #152	@ 0x98
200023ce:	5c61      	ldrb	r1, [r4, r1]
200023d0:	2900      	cmp	r1, #0
200023d2:	d100      	bne.n	200023d6 <_ZN6C1ZZL313ProcessSampleEv+0x59a>
200023d4:	e096      	b.n	20002504 <_ZN6C1ZZL313ProcessSampleEv+0x6c8>
200023d6:	2185      	movs	r1, #133	@ 0x85
200023d8:	0049      	lsls	r1, r1, #1
200023da:	5c61      	ldrb	r1, [r4, r1]
200023dc:	b2c8      	uxtb	r0, r1
200023de:	2900      	cmp	r1, #0
200023e0:	d000      	beq.n	200023e4 <_ZN6C1ZZL313ProcessSampleEv+0x5a8>
200023e2:	e08f      	b.n	20002504 <_ZN6C1ZZL313ProcessSampleEv+0x6c8>
200023e4:	21d2      	movs	r1, #210	@ 0xd2
200023e6:	0049      	lsls	r1, r1, #1
200023e8:	5060      	str	r0, [r4, r1]
200023ea:	2101      	movs	r1, #1
200023ec:	4091      	lsls	r1, r2
200023ee:	483c      	ldr	r0, [pc, #240]	@ (200024e0 <_ZN6C1ZZL313ProcessSampleEv+0x6a4>)
200023f0:	3901      	subs	r1, #1
200023f2:	1818      	adds	r0, r3, r0
200023f4:	d502      	bpl.n	200023fc <_ZN6C1ZZL313ProcessSampleEv+0x5c0>
200023f6:	2080      	movs	r0, #128	@ 0x80
200023f8:	0100      	lsls	r0, r0, #4
200023fa:	1ac0      	subs	r0, r0, r3
200023fc:	10c3      	asrs	r3, r0, #3
200023fe:	20bc      	movs	r0, #188	@ 0xbc
20002400:	0040      	lsls	r0, r0, #1
20002402:	5825      	ldr	r5, [r4, r0]
20002404:	3878      	subs	r0, #120	@ 0x78
20002406:	38ff      	subs	r0, #255	@ 0xff
20002408:	0006      	movs	r6, r0
2000240a:	4680      	mov	r8, r0
2000240c:	30ac      	adds	r0, #172	@ 0xac
2000240e:	30ff      	adds	r0, #255	@ 0xff
20002410:	5820      	ldr	r0, [r4, r0]
20002412:	402e      	ands	r6, r5
20002414:	0007      	movs	r7, r0
20002416:	4838      	ldr	r0, [pc, #224]	@ (200024f8 <_ZN6C1ZZL313ProcessSampleEv+0x6bc>)
20002418:	4378      	muls	r0, r7
2000241a:	4f38      	ldr	r7, [pc, #224]	@ (200024fc <_ZN6C1ZZL313ProcessSampleEv+0x6c0>)
2000241c:	19c0      	adds	r0, r0, r7
2000241e:	2bff      	cmp	r3, #255	@ 0xff
20002420:	dc06      	bgt.n	20002430 <_ZN6C1ZZL313ProcessSampleEv+0x5f4>
20002422:	43db      	mvns	r3, r3
20002424:	b2db      	uxtb	r3, r3
20002426:	0e07      	lsrs	r7, r0, #24
20002428:	42bb      	cmp	r3, r7
2000242a:	d901      	bls.n	20002430 <_ZN6C1ZZL313ProcessSampleEv+0x5f4>
2000242c:	4646      	mov	r6, r8
2000242e:	43ae      	bics	r6, r5
20002430:	23d6      	movs	r3, #214	@ 0xd6
20002432:	005b      	lsls	r3, r3, #1
20002434:	50e0      	str	r0, [r4, r3]
20002436:	0033      	movs	r3, r6
20002438:	3a01      	subs	r2, #1
2000243a:	4093      	lsls	r3, r2
2000243c:	22bc      	movs	r2, #188	@ 0xbc
2000243e:	20aa      	movs	r0, #170	@ 0xaa
20002440:	086d      	lsrs	r5, r5, #1
20002442:	432b      	orrs	r3, r5
20002444:	400b      	ands	r3, r1
20002446:	0052      	lsls	r2, r2, #1
20002448:	50a3      	str	r3, [r4, r2]
2000244a:	3230      	adds	r2, #48	@ 0x30
2000244c:	54a6      	strb	r6, [r4, r2]
2000244e:	079a      	lsls	r2, r3, #30
20002450:	0fd2      	lsrs	r2, r2, #31
20002452:	30ff      	adds	r0, #255	@ 0xff
20002454:	5422      	strb	r2, [r4, r0]
20002456:	22cc      	movs	r2, #204	@ 0xcc
20002458:	2000      	movs	r0, #0
2000245a:	0052      	lsls	r2, r2, #1
2000245c:	50a0      	str	r0, [r4, r2]
2000245e:	0318      	lsls	r0, r3, #12
20002460:	1ac0      	subs	r0, r0, r3
20002462:	f001 fefd 	bl	20004260 <__wrap___aeabi_uidiv>
20002466:	4b1e      	ldr	r3, [pc, #120]	@ (200024e0 <_ZN6C1ZZL313ProcessSampleEv+0x6a4>)
20002468:	18c0      	adds	r0, r0, r3
2000246a:	2380      	movs	r3, #128	@ 0x80
2000246c:	0045      	lsls	r5, r0, #1
2000246e:	182d      	adds	r5, r5, r0
20002470:	02ad      	lsls	r5, r5, #10
20002472:	009b      	lsls	r3, r3, #2
20002474:	132d      	asrs	r5, r5, #12
20002476:	18ed      	adds	r5, r5, r3
20002478:	2380      	movs	r3, #128	@ 0x80
2000247a:	011b      	lsls	r3, r3, #4
2000247c:	429d      	cmp	r5, r3
2000247e:	db00      	blt.n	20002482 <_ZN6C1ZZL313ProcessSampleEv+0x646>
20002480:	4d1f      	ldr	r5, [pc, #124]	@ (20002500 <_ZN6C1ZZL313ProcessSampleEv+0x6c4>)
20002482:	23c0      	movs	r3, #192	@ 0xc0
20002484:	005b      	lsls	r3, r3, #1
20002486:	50e5      	str	r5, [r4, r3]
20002488:	3b04      	subs	r3, #4
2000248a:	58e2      	ldr	r2, [r4, r3]
2000248c:	0110      	lsls	r0, r2, #4
2000248e:	1a80      	subs	r0, r0, r2
20002490:	1940      	adds	r0, r0, r5
20002492:	1100      	asrs	r0, r0, #4
20002494:	50e0      	str	r0, [r4, r3]
20002496:	3308      	adds	r3, #8
20002498:	50e0      	str	r0, [r4, r3]
2000249a:	2e00      	cmp	r6, #0
2000249c:	d100      	bne.n	200024a0 <_ZN6C1ZZL313ProcessSampleEv+0x664>
2000249e:	e3ac      	b.n	20002bfa <_ZN6C1ZZL313ProcessSampleEv+0xdbe>
200024a0:	23d8      	movs	r3, #216	@ 0xd8
200024a2:	33ff      	adds	r3, #255	@ 0xff
200024a4:	5ce3      	ldrb	r3, [r4, r3]
200024a6:	2b00      	cmp	r3, #0
200024a8:	d100      	bne.n	200024ac <_ZN6C1ZZL313ProcessSampleEv+0x670>
200024aa:	e3e7      	b.n	20002c7c <_ZN6C1ZZL313ProcessSampleEv+0xe40>
200024ac:	22de      	movs	r2, #222	@ 0xde
200024ae:	2300      	movs	r3, #0
200024b0:	0052      	lsls	r2, r2, #1
200024b2:	50a3      	str	r3, [r4, r2]
200024b4:	3208      	adds	r2, #8
200024b6:	50a3      	str	r3, [r4, r2]
200024b8:	3208      	adds	r2, #8
200024ba:	50a3      	str	r3, [r4, r2]
200024bc:	3208      	adds	r2, #8
200024be:	52a3      	strh	r3, [r4, r2]
200024c0:	3a14      	subs	r2, #20
200024c2:	50a3      	str	r3, [r4, r2]
200024c4:	3208      	adds	r2, #8
200024c6:	50a3      	str	r3, [r4, r2]
200024c8:	3208      	adds	r2, #8
200024ca:	50a3      	str	r3, [r4, r2]
200024cc:	3301      	adds	r3, #1
200024ce:	3206      	adds	r2, #6
200024d0:	54a3      	strb	r3, [r4, r2]
200024d2:	3a3a      	subs	r2, #58	@ 0x3a
200024d4:	50a3      	str	r3, [r4, r2]
200024d6:	e035      	b.n	20002544 <_ZN6C1ZZL313ProcessSampleEv+0x708>
200024d8:	00000222 	.word	0x00000222
200024dc:	fffff81f 	.word	0xfffff81f
200024e0:	fffff800 	.word	0xfffff800
200024e4:	00000fff 	.word	0x00000fff
200024e8:	00000215 	.word	0x00000215
200024ec:	00000216 	.word	0x00000216
200024f0:	fffff69f 	.word	0xfffff69f
200024f4:	00016d9e 	.word	0x00016d9e
200024f8:	0019660d 	.word	0x0019660d
200024fc:	3c6ef35f 	.word	0x3c6ef35f
20002500:	000007ff 	.word	0x000007ff
20002504:	20d2      	movs	r0, #210	@ 0xd2
20002506:	0040      	lsls	r0, r0, #1
20002508:	5821      	ldr	r1, [r4, r0]
2000250a:	4dcb      	ldr	r5, [pc, #812]	@ (20002838 <_ZN6C1ZZL313ProcessSampleEv+0x9fc>)
2000250c:	42a9      	cmp	r1, r5
2000250e:	d900      	bls.n	20002512 <_ZN6C1ZZL313ProcessSampleEv+0x6d6>
20002510:	e304      	b.n	20002b1c <_ZN6C1ZZL313ProcessSampleEv+0xce0>
20002512:	3101      	adds	r1, #1
20002514:	5021      	str	r1, [r4, r0]
20002516:	22ce      	movs	r2, #206	@ 0xce
20002518:	20c0      	movs	r0, #192	@ 0xc0
2000251a:	21d4      	movs	r1, #212	@ 0xd4
2000251c:	2696      	movs	r6, #150	@ 0x96
2000251e:	0052      	lsls	r2, r2, #1
20002520:	0040      	lsls	r0, r0, #1
20002522:	58a3      	ldr	r3, [r4, r2]
20002524:	5825      	ldr	r5, [r4, r0]
20002526:	0049      	lsls	r1, r1, #1
20002528:	3004      	adds	r0, #4
2000252a:	5c61      	ldrb	r1, [r4, r1]
2000252c:	5820      	ldr	r0, [r4, r0]
2000252e:	00f6      	lsls	r6, r6, #3
20002530:	42b3      	cmp	r3, r6
20002532:	d200      	bcs.n	20002536 <_ZN6C1ZZL313ProcessSampleEv+0x6fa>
20002534:	e3b9      	b.n	20002caa <_ZN6C1ZZL313ProcessSampleEv+0xe6e>
20002536:	2900      	cmp	r1, #0
20002538:	d104      	bne.n	20002544 <_ZN6C1ZZL313ProcessSampleEv+0x708>
2000253a:	23aa      	movs	r3, #170	@ 0xaa
2000253c:	33ff      	adds	r3, #255	@ 0xff
2000253e:	5ce3      	ldrb	r3, [r4, r3]
20002540:	2b00      	cmp	r3, #0
20002542:	d00c      	beq.n	2000255e <_ZN6C1ZZL313ProcessSampleEv+0x722>
20002544:	22cc      	movs	r2, #204	@ 0xcc
20002546:	0052      	lsls	r2, r2, #1
20002548:	58a3      	ldr	r3, [r4, r2]
2000254a:	3301      	adds	r3, #1
2000254c:	50a3      	str	r3, [r4, r2]
2000254e:	2296      	movs	r2, #150	@ 0x96
20002550:	00d2      	lsls	r2, r2, #3
20002552:	4293      	cmp	r3, r2
20002554:	d903      	bls.n	2000255e <_ZN6C1ZZL313ProcessSampleEv+0x722>
20002556:	23d4      	movs	r3, #212	@ 0xd4
20002558:	2200      	movs	r2, #0
2000255a:	005b      	lsls	r3, r3, #1
2000255c:	52e2      	strh	r2, [r4, r3]
2000255e:	2280      	movs	r2, #128	@ 0x80
20002560:	b229      	sxth	r1, r5
20002562:	1c2b      	adds	r3, r5, #0
20002564:	0112      	lsls	r2, r2, #4
20002566:	4291      	cmp	r1, r2
20002568:	db00      	blt.n	2000256c <_ZN6C1ZZL313ProcessSampleEv+0x730>
2000256a:	4bb4      	ldr	r3, [pc, #720]	@ (2000283c <_ZN6C1ZZL313ProcessSampleEv+0xa00>)
2000256c:	4ab4      	ldr	r2, [pc, #720]	@ (20002840 <_ZN6C1ZZL313ProcessSampleEv+0xa04>)
2000256e:	b21b      	sxth	r3, r3
20002570:	4293      	cmp	r3, r2
20002572:	da00      	bge.n	20002576 <_ZN6C1ZZL313ProcessSampleEv+0x73a>
20002574:	0013      	movs	r3, r2
20002576:	4eb1      	ldr	r6, [pc, #708]	@ (2000283c <_ZN6C1ZZL313ProcessSampleEv+0xa00>)
20002578:	49b2      	ldr	r1, [pc, #712]	@ (20002844 <_ZN6C1ZZL313ProcessSampleEv+0xa08>)
2000257a:	1af3      	subs	r3, r6, r3
2000257c:	015a      	lsls	r2, r3, #5
2000257e:	1ad2      	subs	r2, r2, r3
20002580:	0092      	lsls	r2, r2, #2
20002582:	18d3      	adds	r3, r2, r3
20002584:	2280      	movs	r2, #128	@ 0x80
20002586:	600b      	str	r3, [r1, #0]
20002588:	1c03      	adds	r3, r0, #0
2000258a:	b200      	sxth	r0, r0
2000258c:	0112      	lsls	r2, r2, #4
2000258e:	4290      	cmp	r0, r2
20002590:	db00      	blt.n	20002594 <_ZN6C1ZZL313ProcessSampleEv+0x758>
20002592:	1c33      	adds	r3, r6, #0
20002594:	4aaa      	ldr	r2, [pc, #680]	@ (20002840 <_ZN6C1ZZL313ProcessSampleEv+0xa04>)
20002596:	b21b      	sxth	r3, r3
20002598:	4293      	cmp	r3, r2
2000259a:	da00      	bge.n	2000259e <_ZN6C1ZZL313ProcessSampleEv+0x762>
2000259c:	0013      	movs	r3, r2
2000259e:	4aa7      	ldr	r2, [pc, #668]	@ (2000283c <_ZN6C1ZZL313ProcessSampleEv+0xa00>)
200025a0:	1ad2      	subs	r2, r2, r3
200025a2:	0153      	lsls	r3, r2, #5
200025a4:	1a9b      	subs	r3, r3, r2
200025a6:	009b      	lsls	r3, r3, #2
200025a8:	189b      	adds	r3, r3, r2
200025aa:	604b      	str	r3, [r1, #4]
200025ac:	23f4      	movs	r3, #244	@ 0xf4
200025ae:	2280      	movs	r2, #128	@ 0x80
200025b0:	005b      	lsls	r3, r3, #1
200025b2:	58e3      	ldr	r3, [r4, r3]
200025b4:	0152      	lsls	r2, r2, #5
200025b6:	4293      	cmp	r3, r2
200025b8:	da00      	bge.n	200025bc <_ZN6C1ZZL313ProcessSampleEv+0x780>
200025ba:	e2f7      	b.n	20002bac <_ZN6C1ZZL313ProcessSampleEv+0xd70>
200025bc:	4ba2      	ldr	r3, [pc, #648]	@ (20002848 <_ZN6C1ZZL313ProcessSampleEv+0xa0c>)
200025be:	0098      	lsls	r0, r3, #2
200025c0:	18c0      	adds	r0, r0, r3
200025c2:	49a1      	ldr	r1, [pc, #644]	@ (20002848 <_ZN6C1ZZL313ProcessSampleEv+0xa0c>)
200025c4:	0300      	lsls	r0, r0, #12
200025c6:	f001 fe23 	bl	20004210 <__wrap___aeabi_idiv>
200025ca:	00ab      	lsls	r3, r5, #2
200025cc:	195b      	adds	r3, r3, r5
200025ce:	02db      	lsls	r3, r3, #11
200025d0:	131b      	asrs	r3, r3, #12
200025d2:	18c0      	adds	r0, r0, r3
200025d4:	23e0      	movs	r3, #224	@ 0xe0
200025d6:	01db      	lsls	r3, r3, #7
200025d8:	4298      	cmp	r0, r3
200025da:	dd00      	ble.n	200025de <_ZN6C1ZZL313ProcessSampleEv+0x7a2>
200025dc:	0018      	movs	r0, r3
200025de:	4b9b      	ldr	r3, [pc, #620]	@ (2000284c <_ZN6C1ZZL313ProcessSampleEv+0xa10>)
200025e0:	4298      	cmp	r0, r3
200025e2:	da00      	bge.n	200025e6 <_ZN6C1ZZL313ProcessSampleEv+0x7aa>
200025e4:	0018      	movs	r0, r3
200025e6:	17c3      	asrs	r3, r0, #31
200025e8:	051f      	lsls	r7, r3, #20
200025ea:	0d1b      	lsrs	r3, r3, #20
200025ec:	18c5      	adds	r5, r0, r3
200025ee:	0d3f      	lsrs	r7, r7, #20
200025f0:	052d      	lsls	r5, r5, #20
200025f2:	183f      	adds	r7, r7, r0
200025f4:	0d2d      	lsrs	r5, r5, #20
200025f6:	133f      	asrs	r7, r7, #12
200025f8:	1aed      	subs	r5, r5, r3
200025fa:	d503      	bpl.n	20002604 <_ZN6C1ZZL313ProcessSampleEv+0x7c8>
200025fc:	2380      	movs	r3, #128	@ 0x80
200025fe:	015b      	lsls	r3, r3, #5
20002600:	18ed      	adds	r5, r5, r3
20002602:	3f01      	subs	r7, #1
20002604:	006e      	lsls	r6, r5, #1
20002606:	1976      	adds	r6, r6, r5
20002608:	12b6      	asrs	r6, r6, #10
2000260a:	0330      	lsls	r0, r6, #12
2000260c:	210c      	movs	r1, #12
2000260e:	4680      	mov	r8, r0
20002610:	f001 fdfe 	bl	20004210 <__wrap___aeabi_idiv>
20002614:	4a8e      	ldr	r2, [pc, #568]	@ (20002850 <_ZN6C1ZZL313ProcessSampleEv+0xa14>)
20002616:	00b3      	lsls	r3, r6, #2
20002618:	589b      	ldr	r3, [r3, r2]
2000261a:	9003      	str	r0, [sp, #12]
2000261c:	9304      	str	r3, [sp, #16]
2000261e:	2380      	movs	r3, #128	@ 0x80
20002620:	1a2d      	subs	r5, r5, r0
20002622:	4640      	mov	r0, r8
20002624:	015b      	lsls	r3, r3, #5
20002626:	18c0      	adds	r0, r0, r3
20002628:	210c      	movs	r1, #12
2000262a:	9202      	str	r2, [sp, #8]
2000262c:	f001 fdf0 	bl	20004210 <__wrap___aeabi_idiv>
20002630:	9903      	ldr	r1, [sp, #12]
20002632:	3601      	adds	r6, #1
20002634:	1a41      	subs	r1, r0, r1
20002636:	03e8      	lsls	r0, r5, #15
20002638:	f001 fdea 	bl	20004210 <__wrap___aeabi_idiv>
2000263c:	9a02      	ldr	r2, [sp, #8]
2000263e:	00b6      	lsls	r6, r6, #2
20002640:	9b04      	ldr	r3, [sp, #16]
20002642:	58b2      	ldr	r2, [r6, r2]
20002644:	2100      	movs	r1, #0
20002646:	1ad2      	subs	r2, r2, r3
20002648:	4350      	muls	r0, r2
2000264a:	13c0      	asrs	r0, r0, #15
2000264c:	18c0      	adds	r0, r0, r3
2000264e:	4a81      	ldr	r2, [pc, #516]	@ (20002854 <_ZN6C1ZZL313ProcessSampleEv+0xa18>)
20002650:	2300      	movs	r3, #0
20002652:	f001 fe93 	bl	2000437c <__wrap___aeabi_lmul>
20002656:	044b      	lsls	r3, r1, #17
20002658:	0bc1      	lsrs	r1, r0, #15
2000265a:	1859      	adds	r1, r3, r1
2000265c:	2f00      	cmp	r7, #0
2000265e:	da00      	bge.n	20002662 <_ZN6C1ZZL313ProcessSampleEv+0x826>
20002660:	e2b4      	b.n	20002bcc <_ZN6C1ZZL313ProcessSampleEv+0xd90>
20002662:	40b9      	lsls	r1, r7
20002664:	23fa      	movs	r3, #250	@ 0xfa
20002666:	005b      	lsls	r3, r3, #1
20002668:	58e3      	ldr	r3, [r4, r3]
2000266a:	2b00      	cmp	r3, #0
2000266c:	d004      	beq.n	20002678 <_ZN6C1ZZL313ProcessSampleEv+0x83c>
2000266e:	1aca      	subs	r2, r1, r3
20002670:	1251      	asrs	r1, r2, #9
20002672:	d100      	bne.n	20002676 <_ZN6C1ZZL313ProcessSampleEv+0x83a>
20002674:	e32a      	b.n	20002ccc <_ZN6C1ZZL313ProcessSampleEv+0xe90>
20002676:	1859      	adds	r1, r3, r1
20002678:	23fa      	movs	r3, #250	@ 0xfa
2000267a:	2280      	movs	r2, #128	@ 0x80
2000267c:	005b      	lsls	r3, r3, #1
2000267e:	50e1      	str	r1, [r4, r3]
20002680:	3b04      	subs	r3, #4
20002682:	58e3      	ldr	r3, [r4, r3]
20002684:	0152      	lsls	r2, r2, #5
20002686:	4293      	cmp	r3, r2
20002688:	da00      	bge.n	2000268c <_ZN6C1ZZL313ProcessSampleEv+0x850>
2000268a:	e28b      	b.n	20002ba4 <_ZN6C1ZZL313ProcessSampleEv+0xd68>
2000268c:	4b6e      	ldr	r3, [pc, #440]	@ (20002848 <_ZN6C1ZZL313ProcessSampleEv+0xa0c>)
2000268e:	22f6      	movs	r2, #246	@ 0xf6
20002690:	2080      	movs	r0, #128	@ 0x80
20002692:	0052      	lsls	r2, r2, #1
20002694:	58a2      	ldr	r2, [r4, r2]
20002696:	0140      	lsls	r0, r0, #5
20002698:	4282      	cmp	r2, r0
2000269a:	da00      	bge.n	2000269e <_ZN6C1ZZL313ProcessSampleEv+0x862>
2000269c:	e27e      	b.n	20002b9c <_ZN6C1ZZL313ProcessSampleEv+0xd60>
2000269e:	4a6a      	ldr	r2, [pc, #424]	@ (20002848 <_ZN6C1ZZL313ProcessSampleEv+0xa0c>)
200026a0:	2081      	movs	r0, #129	@ 0x81
200026a2:	0080      	lsls	r0, r0, #2
200026a4:	5820      	ldr	r0, [r4, r0]
200026a6:	9001      	str	r0, [sp, #4]
200026a8:	2080      	movs	r0, #128	@ 0x80
200026aa:	0080      	lsls	r0, r0, #2
200026ac:	5820      	ldr	r0, [r4, r0]
200026ae:	9000      	str	r0, [sp, #0]
200026b0:	0020      	movs	r0, r4
200026b2:	f7fe fc31 	bl	20000f18 <_ZN6C1ZZL316outputSynthVoiceElllll>
200026b6:	23d4      	movs	r3, #212	@ 0xd4
200026b8:	005b      	lsls	r3, r3, #1
200026ba:	5ce3      	ldrb	r3, [r4, r3]
200026bc:	2b00      	cmp	r3, #0
200026be:	d000      	beq.n	200026c2 <_ZN6C1ZZL313ProcessSampleEv+0x886>
200026c0:	e27e      	b.n	20002bc0 <_ZN6C1ZZL313ProcessSampleEv+0xd84>
200026c2:	23d0      	movs	r3, #208	@ 0xd0
200026c4:	2280      	movs	r2, #128	@ 0x80
200026c6:	061b      	lsls	r3, r3, #24
200026c8:	0052      	lsls	r2, r2, #1
200026ca:	615a      	str	r2, [r3, #20]
200026cc:	23aa      	movs	r3, #170	@ 0xaa
200026ce:	33ff      	adds	r3, #255	@ 0xff
200026d0:	5ce3      	ldrb	r3, [r4, r3]
200026d2:	2b00      	cmp	r3, #0
200026d4:	d000      	beq.n	200026d8 <_ZN6C1ZZL313ProcessSampleEv+0x89c>
200026d6:	e26d      	b.n	20002bb4 <_ZN6C1ZZL313ProcessSampleEv+0xd78>
200026d8:	23d0      	movs	r3, #208	@ 0xd0
200026da:	2280      	movs	r2, #128	@ 0x80
200026dc:	061b      	lsls	r3, r3, #24
200026de:	0092      	lsls	r2, r2, #2
200026e0:	615a      	str	r2, [r3, #20]
200026e2:	22bc      	movs	r2, #188	@ 0xbc
200026e4:	0052      	lsls	r2, r2, #1
200026e6:	58a2      	ldr	r2, [r4, r2]
200026e8:	2301      	movs	r3, #1
200026ea:	0011      	movs	r1, r2
200026ec:	4019      	ands	r1, r3
200026ee:	421a      	tst	r2, r3
200026f0:	d000      	beq.n	200026f4 <_ZN6C1ZZL313ProcessSampleEv+0x8b8>
200026f2:	4959      	ldr	r1, [pc, #356]	@ (20002858 <_ZN6C1ZZL313ProcessSampleEv+0xa1c>)
200026f4:	4b59      	ldr	r3, [pc, #356]	@ (2000285c <_ZN6C1ZZL313ProcessSampleEv+0xa20>)
200026f6:	4a5a      	ldr	r2, [pc, #360]	@ (20002860 <_ZN6C1ZZL313ProcessSampleEv+0xa24>)
200026f8:	681b      	ldr	r3, [r3, #0]
200026fa:	404b      	eors	r3, r1
200026fc:	041b      	lsls	r3, r3, #16
200026fe:	0c1b      	lsrs	r3, r3, #16
20002700:	6013      	str	r3, [r2, #0]
20002702:	22bc      	movs	r2, #188	@ 0xbc
20002704:	0052      	lsls	r2, r2, #1
20002706:	58a2      	ldr	r2, [r4, r2]
20002708:	2302      	movs	r3, #2
2000270a:	0011      	movs	r1, r2
2000270c:	4019      	ands	r1, r3
2000270e:	421a      	tst	r2, r3
20002710:	d000      	beq.n	20002714 <_ZN6C1ZZL313ProcessSampleEv+0x8d8>
20002712:	4954      	ldr	r1, [pc, #336]	@ (20002864 <_ZN6C1ZZL313ProcessSampleEv+0xa28>)
20002714:	4b51      	ldr	r3, [pc, #324]	@ (2000285c <_ZN6C1ZZL313ProcessSampleEv+0xa20>)
20002716:	4a52      	ldr	r2, [pc, #328]	@ (20002860 <_ZN6C1ZZL313ProcessSampleEv+0xa24>)
20002718:	681b      	ldr	r3, [r3, #0]
2000271a:	404b      	eors	r3, r1
2000271c:	0c1b      	lsrs	r3, r3, #16
2000271e:	041b      	lsls	r3, r3, #16
20002720:	6013      	str	r3, [r2, #0]
20002722:	22bc      	movs	r2, #188	@ 0xbc
20002724:	0052      	lsls	r2, r2, #1
20002726:	58a2      	ldr	r2, [r4, r2]
20002728:	2304      	movs	r3, #4
2000272a:	0010      	movs	r0, r2
2000272c:	4018      	ands	r0, r3
2000272e:	421a      	tst	r2, r3
20002730:	d000      	beq.n	20002734 <_ZN6C1ZZL313ProcessSampleEv+0x8f8>
20002732:	4849      	ldr	r0, [pc, #292]	@ (20002858 <_ZN6C1ZZL313ProcessSampleEv+0xa1c>)
20002734:	494c      	ldr	r1, [pc, #304]	@ (20002868 <_ZN6C1ZZL313ProcessSampleEv+0xa2c>)
20002736:	4a4d      	ldr	r2, [pc, #308]	@ (2000286c <_ZN6C1ZZL313ProcessSampleEv+0xa30>)
20002738:	680b      	ldr	r3, [r1, #0]
2000273a:	4043      	eors	r3, r0
2000273c:	041b      	lsls	r3, r3, #16
2000273e:	0c1b      	lsrs	r3, r3, #16
20002740:	6013      	str	r3, [r2, #0]
20002742:	2384      	movs	r3, #132	@ 0x84
20002744:	005b      	lsls	r3, r3, #1
20002746:	5ce3      	ldrb	r3, [r4, r3]
20002748:	680b      	ldr	r3, [r1, #0]
2000274a:	2096      	movs	r0, #150	@ 0x96
2000274c:	0c1b      	lsrs	r3, r3, #16
2000274e:	041b      	lsls	r3, r3, #16
20002750:	6013      	str	r3, [r2, #0]
20002752:	23d0      	movs	r3, #208	@ 0xd0
20002754:	005b      	lsls	r3, r3, #1
20002756:	58e2      	ldr	r2, [r4, r3]
20002758:	00c0      	lsls	r0, r0, #3
2000275a:	0313      	lsls	r3, r2, #12
2000275c:	1a9b      	subs	r3, r3, r2
2000275e:	031b      	lsls	r3, r3, #12
20002760:	0c1b      	lsrs	r3, r3, #16
20002762:	435b      	muls	r3, r3
20002764:	4a42      	ldr	r2, [pc, #264]	@ (20002870 <_ZN6C1ZZL313ProcessSampleEv+0xa34>)
20002766:	021b      	lsls	r3, r3, #8
20002768:	6811      	ldr	r1, [r2, #0]
2000276a:	0c1b      	lsrs	r3, r3, #16
2000276c:	404b      	eors	r3, r1
2000276e:	041b      	lsls	r3, r3, #16
20002770:	4940      	ldr	r1, [pc, #256]	@ (20002874 <_ZN6C1ZZL313ProcessSampleEv+0xa38>)
20002772:	0c1b      	lsrs	r3, r3, #16
20002774:	600b      	str	r3, [r1, #0]
20002776:	23ce      	movs	r3, #206	@ 0xce
20002778:	005b      	lsls	r3, r3, #1
2000277a:	58e4      	ldr	r4, [r4, r3]
2000277c:	2300      	movs	r3, #0
2000277e:	4284      	cmp	r4, r0
20002780:	415b      	adcs	r3, r3
20002782:	2080      	movs	r0, #128	@ 0x80
20002784:	425b      	negs	r3, r3
20002786:	0380      	lsls	r0, r0, #14
20002788:	4003      	ands	r3, r0
2000278a:	4836      	ldr	r0, [pc, #216]	@ (20002864 <_ZN6C1ZZL313ProcessSampleEv+0xa28>)
2000278c:	6812      	ldr	r2, [r2, #0]
2000278e:	181b      	adds	r3, r3, r0
20002790:	4053      	eors	r3, r2
20002792:	0c1b      	lsrs	r3, r3, #16
20002794:	041b      	lsls	r3, r3, #16
20002796:	600b      	str	r3, [r1, #0]
20002798:	e51b      	b.n	200021d2 <_ZN6C1ZZL313ProcessSampleEv+0x396>
2000279a:	43fb      	mvns	r3, r7
2000279c:	17db      	asrs	r3, r3, #31
2000279e:	401f      	ands	r7, r3
200027a0:	4643      	mov	r3, r8
200027a2:	2b00      	cmp	r3, #0
200027a4:	d100      	bne.n	200027a8 <_ZN6C1ZZL313ProcessSampleEv+0x96c>
200027a6:	e431      	b.n	2000200c <_ZN6C1ZZL313ProcessSampleEv+0x1d0>
200027a8:	2380      	movs	r3, #128	@ 0x80
200027aa:	015b      	lsls	r3, r3, #5
200027ac:	459b      	cmp	fp, r3
200027ae:	da40      	bge.n	20002832 <_ZN6C1ZZL313ProcessSampleEv+0x9f6>
200027b0:	465a      	mov	r2, fp
200027b2:	43d3      	mvns	r3, r2
200027b4:	17db      	asrs	r3, r3, #31
200027b6:	4013      	ands	r3, r2
200027b8:	2280      	movs	r2, #128	@ 0x80
200027ba:	0152      	lsls	r2, r2, #5
200027bc:	4592      	cmp	sl, r2
200027be:	da00      	bge.n	200027c2 <_ZN6C1ZZL313ProcessSampleEv+0x986>
200027c0:	e43c      	b.n	2000203c <_ZN6C1ZZL313ProcessSampleEv+0x200>
200027c2:	200a      	movs	r0, #10
200027c4:	30ff      	adds	r0, #255	@ 0xff
200027c6:	5c20      	ldrb	r0, [r4, r0]
200027c8:	4a1f      	ldr	r2, [pc, #124]	@ (20002848 <_ZN6C1ZZL313ProcessSampleEv+0xa0c>)
200027ca:	2800      	cmp	r0, #0
200027cc:	d100      	bne.n	200027d0 <_ZN6C1ZZL313ProcessSampleEv+0x994>
200027ce:	e43f      	b.n	20002050 <_ZN6C1ZZL313ProcessSampleEv+0x214>
200027d0:	200c      	movs	r0, #12
200027d2:	30ff      	adds	r0, #255	@ 0xff
200027d4:	5c20      	ldrb	r0, [r4, r0]
200027d6:	b2c6      	uxtb	r6, r0
200027d8:	46b4      	mov	ip, r6
200027da:	2800      	cmp	r0, #0
200027dc:	d000      	beq.n	200027e0 <_ZN6C1ZZL313ProcessSampleEv+0x9a4>
200027de:	e437      	b.n	20002050 <_ZN6C1ZZL313ProcessSampleEv+0x214>
200027e0:	20d8      	movs	r0, #216	@ 0xd8
200027e2:	30ff      	adds	r0, #255	@ 0xff
200027e4:	5c20      	ldrb	r0, [r4, r0]
200027e6:	2800      	cmp	r0, #0
200027e8:	d100      	bne.n	200027ec <_ZN6C1ZZL313ProcessSampleEv+0x9b0>
200027ea:	e431      	b.n	20002050 <_ZN6C1ZZL313ProcessSampleEv+0x214>
200027ec:	20b6      	movs	r0, #182	@ 0xb6
200027ee:	0040      	lsls	r0, r0, #1
200027f0:	5026      	str	r6, [r4, r0]
200027f2:	3004      	adds	r0, #4
200027f4:	5026      	str	r6, [r4, r0]
200027f6:	2660      	movs	r6, #96	@ 0x60
200027f8:	3004      	adds	r0, #4
200027fa:	5026      	str	r6, [r4, r0]
200027fc:	4666      	mov	r6, ip
200027fe:	3048      	adds	r0, #72	@ 0x48
20002800:	5026      	str	r6, [r4, r0]
20002802:	3008      	adds	r0, #8
20002804:	5026      	str	r6, [r4, r0]
20002806:	3008      	adds	r0, #8
20002808:	5026      	str	r6, [r4, r0]
2000280a:	3008      	adds	r0, #8
2000280c:	5226      	strh	r6, [r4, r0]
2000280e:	3814      	subs	r0, #20
20002810:	5026      	str	r6, [r4, r0]
20002812:	3008      	adds	r0, #8
20002814:	5026      	str	r6, [r4, r0]
20002816:	3008      	adds	r0, #8
20002818:	5026      	str	r6, [r4, r0]
2000281a:	26eb      	movs	r6, #235	@ 0xeb
2000281c:	38d0      	subs	r0, #208	@ 0xd0
2000281e:	38ff      	subs	r0, #255	@ 0xff
20002820:	0076      	lsls	r6, r6, #1
20002822:	55a0      	strb	r0, [r4, r6]
20002824:	f7ff fc14 	bl	20002050 <_ZN6C1ZZL313ProcessSampleEv+0x214>
20002828:	43eb      	mvns	r3, r5
2000282a:	17db      	asrs	r3, r3, #31
2000282c:	401d      	ands	r5, r3
2000282e:	f7ff fbe0 	bl	20001ff2 <_ZN6C1ZZL313ProcessSampleEv+0x1b6>
20002832:	4b05      	ldr	r3, [pc, #20]	@ (20002848 <_ZN6C1ZZL313ProcessSampleEv+0xa0c>)
20002834:	e7c0      	b.n	200027b8 <_ZN6C1ZZL313ProcessSampleEv+0x97c>
20002836:	46c0      	nop			@ (mov r8, r8)
20002838:	000176ff 	.word	0x000176ff
2000283c:	000007ff 	.word	0x000007ff
20002840:	fffff800 	.word	0xfffff800
20002844:	20006958 	.word	0x20006958
20002848:	00000fff 	.word	0x00000fff
2000284c:	ffffe000 	.word	0xffffe000
20002850:	20005b84 	.word	0x20005b84
20002854:	00594d31 	.word	0x00594d31
20002858:	0000ffe0 	.word	0x0000ffe0
2000285c:	40050070 	.word	0x40050070
20002860:	40051070 	.word	0x40051070
20002864:	ffe00000 	.word	0xffe00000
20002868:	40050084 	.word	0x40050084
2000286c:	40051084 	.word	0x40051084
20002870:	40050098 	.word	0x40050098
20002874:	40051098 	.word	0x40051098
20002878:	6802      	ldr	r2, [r0, #0]
2000287a:	4be2      	ldr	r3, [pc, #904]	@ (20002c04 <_ZN6C1ZZL313ProcessSampleEv+0xdc8>)
2000287c:	4053      	eors	r3, r2
2000287e:	0c1b      	lsrs	r3, r3, #16
20002880:	041b      	lsls	r3, r3, #16
20002882:	6033      	str	r3, [r6, #0]
20002884:	2388      	movs	r3, #136	@ 0x88
20002886:	009b      	lsls	r3, r3, #2
20002888:	5ce5      	ldrb	r5, [r4, r3]
2000288a:	2d00      	cmp	r5, #0
2000288c:	d00c      	beq.n	200028a8 <_ZN6C1ZZL313ProcessSampleEv+0xa6c>
2000288e:	2286      	movs	r2, #134	@ 0x86
20002890:	0092      	lsls	r2, r2, #2
20002892:	58a3      	ldr	r3, [r4, r2]
20002894:	49dc      	ldr	r1, [pc, #880]	@ (20002c08 <_ZN6C1ZZL313ProcessSampleEv+0xdcc>)
20002896:	428b      	cmp	r3, r1
20002898:	d900      	bls.n	2000289c <_ZN6C1ZZL313ProcessSampleEv+0xa60>
2000289a:	e12d      	b.n	20002af8 <_ZN6C1ZZL313ProcessSampleEv+0xcbc>
2000289c:	3301      	adds	r3, #1
2000289e:	50a3      	str	r3, [r4, r2]
200028a0:	4ada      	ldr	r2, [pc, #872]	@ (20002c0c <_ZN6C1ZZL313ProcessSampleEv+0xdd0>)
200028a2:	4293      	cmp	r3, r2
200028a4:	d100      	bne.n	200028a8 <_ZN6C1ZZL313ProcessSampleEv+0xa6c>
200028a6:	e127      	b.n	20002af8 <_ZN6C1ZZL313ProcessSampleEv+0xcbc>
200028a8:	2387      	movs	r3, #135	@ 0x87
200028aa:	009b      	lsls	r3, r3, #2
200028ac:	58e3      	ldr	r3, [r4, r3]
200028ae:	2b00      	cmp	r3, #0
200028b0:	d100      	bne.n	200028b4 <_ZN6C1ZZL313ProcessSampleEv+0xa78>
200028b2:	e48e      	b.n	200021d2 <_ZN6C1ZZL313ProcessSampleEv+0x396>
200028b4:	3b01      	subs	r3, #1
200028b6:	04dd      	lsls	r5, r3, #19
200028b8:	0fed      	lsrs	r5, r5, #31
200028ba:	2287      	movs	r2, #135	@ 0x87
200028bc:	0092      	lsls	r2, r2, #2
200028be:	50a3      	str	r3, [r4, r2]
200028c0:	426b      	negs	r3, r5
200028c2:	415d      	adcs	r5, r3
200028c4:	4ad2      	ldr	r2, [pc, #840]	@ (20002c10 <_ZN6C1ZZL313ProcessSampleEv+0xdd4>)
200028c6:	426b      	negs	r3, r5
200028c8:	4013      	ands	r3, r2
200028ca:	4ad2      	ldr	r2, [pc, #840]	@ (20002c14 <_ZN6C1ZZL313ProcessSampleEv+0xdd8>)
200028cc:	49d2      	ldr	r1, [pc, #840]	@ (20002c18 <_ZN6C1ZZL313ProcessSampleEv+0xddc>)
200028ce:	189b      	adds	r3, r3, r2
200028d0:	435b      	muls	r3, r3
200028d2:	680a      	ldr	r2, [r1, #0]
200028d4:	121b      	asrs	r3, r3, #8
200028d6:	405a      	eors	r2, r3
200028d8:	48d0      	ldr	r0, [pc, #832]	@ (20002c1c <_ZN6C1ZZL313ProcessSampleEv+0xde0>)
200028da:	0412      	lsls	r2, r2, #16
200028dc:	0c12      	lsrs	r2, r2, #16
200028de:	6002      	str	r2, [r0, #0]
200028e0:	6809      	ldr	r1, [r1, #0]
200028e2:	041a      	lsls	r2, r3, #16
200028e4:	4051      	eors	r1, r2
200028e6:	0c09      	lsrs	r1, r1, #16
200028e8:	4ccd      	ldr	r4, [pc, #820]	@ (20002c20 <_ZN6C1ZZL313ProcessSampleEv+0xde4>)
200028ea:	0409      	lsls	r1, r1, #16
200028ec:	6001      	str	r1, [r0, #0]
200028ee:	6821      	ldr	r1, [r4, #0]
200028f0:	48cc      	ldr	r0, [pc, #816]	@ (20002c24 <_ZN6C1ZZL313ProcessSampleEv+0xde8>)
200028f2:	4059      	eors	r1, r3
200028f4:	0409      	lsls	r1, r1, #16
200028f6:	0c09      	lsrs	r1, r1, #16
200028f8:	6001      	str	r1, [r0, #0]
200028fa:	6821      	ldr	r1, [r4, #0]
200028fc:	4051      	eors	r1, r2
200028fe:	0c09      	lsrs	r1, r1, #16
20002900:	0409      	lsls	r1, r1, #16
20002902:	6001      	str	r1, [r0, #0]
20002904:	48c8      	ldr	r0, [pc, #800]	@ (20002c28 <_ZN6C1ZZL313ProcessSampleEv+0xdec>)
20002906:	6801      	ldr	r1, [r0, #0]
20002908:	404b      	eors	r3, r1
2000290a:	041b      	lsls	r3, r3, #16
2000290c:	49c7      	ldr	r1, [pc, #796]	@ (20002c2c <_ZN6C1ZZL313ProcessSampleEv+0xdf0>)
2000290e:	0c1b      	lsrs	r3, r3, #16
20002910:	600b      	str	r3, [r1, #0]
20002912:	6803      	ldr	r3, [r0, #0]
20002914:	405a      	eors	r2, r3
20002916:	0c12      	lsrs	r2, r2, #16
20002918:	0412      	lsls	r2, r2, #16
2000291a:	600a      	str	r2, [r1, #0]
2000291c:	e459      	b.n	200021d2 <_ZN6C1ZZL313ProcessSampleEv+0x396>
2000291e:	23d0      	movs	r3, #208	@ 0xd0
20002920:	2280      	movs	r2, #128	@ 0x80
20002922:	061b      	lsls	r3, r3, #24
20002924:	0052      	lsls	r2, r2, #1
20002926:	619a      	str	r2, [r3, #24]
20002928:	23aa      	movs	r3, #170	@ 0xaa
2000292a:	33ff      	adds	r3, #255	@ 0xff
2000292c:	5ce3      	ldrb	r3, [r4, r3]
2000292e:	2b00      	cmp	r3, #0
20002930:	d101      	bne.n	20002936 <_ZN6C1ZZL313ProcessSampleEv+0xafa>
20002932:	f7ff fbd4 	bl	200020de <_ZN6C1ZZL313ProcessSampleEv+0x2a2>
20002936:	23d0      	movs	r3, #208	@ 0xd0
20002938:	2280      	movs	r2, #128	@ 0x80
2000293a:	061b      	lsls	r3, r3, #24
2000293c:	0092      	lsls	r2, r2, #2
2000293e:	619a      	str	r2, [r3, #24]
20002940:	f7ff fbd2 	bl	200020e8 <_ZN6C1ZZL313ProcessSampleEv+0x2ac>
20002944:	425b      	negs	r3, r3
20002946:	40d9      	lsrs	r1, r3
20002948:	f7ff fb3b 	bl	20001fc2 <_ZN6C1ZZL313ProcessSampleEv+0x186>
2000294c:	22e2      	movs	r2, #226	@ 0xe2
2000294e:	2001      	movs	r0, #1
20002950:	32ff      	adds	r2, #255	@ 0xff
20002952:	54a0      	strb	r0, [r4, r2]
20002954:	4640      	mov	r0, r8
20002956:	3201      	adds	r2, #1
20002958:	54a0      	strb	r0, [r4, r2]
2000295a:	2200      	movs	r2, #0
2000295c:	20f2      	movs	r0, #242	@ 0xf2
2000295e:	5222      	strh	r2, [r4, r0]
20002960:	3002      	adds	r0, #2
20002962:	5222      	strh	r2, [r4, r0]
20002964:	4ab2      	ldr	r2, [pc, #712]	@ (20002c30 <_ZN6C1ZZL313ProcessSampleEv+0xdf4>)
20002966:	48b3      	ldr	r0, [pc, #716]	@ (20002c34 <_ZN6C1ZZL313ProcessSampleEv+0xdf8>)
20002968:	6010      	str	r0, [r2, #0]
2000296a:	6050      	str	r0, [r2, #4]
2000296c:	22d0      	movs	r2, #208	@ 0xd0
2000296e:	2080      	movs	r0, #128	@ 0x80
20002970:	0612      	lsls	r2, r2, #24
20002972:	0040      	lsls	r0, r0, #1
20002974:	6150      	str	r0, [r2, #20]
20002976:	1800      	adds	r0, r0, r0
20002978:	6150      	str	r0, [r2, #20]
2000297a:	2280      	movs	r2, #128	@ 0x80
2000297c:	0152      	lsls	r2, r2, #5
2000297e:	4293      	cmp	r3, r2
20002980:	db00      	blt.n	20002984 <_ZN6C1ZZL313ProcessSampleEv+0xb48>
20002982:	e0c5      	b.n	20002b10 <_ZN6C1ZZL313ProcessSampleEv+0xcd4>
20002984:	43da      	mvns	r2, r3
20002986:	17d2      	asrs	r2, r2, #31
20002988:	401a      	ands	r2, r3
2000298a:	00d0      	lsls	r0, r2, #3
2000298c:	1880      	adds	r0, r0, r2
2000298e:	22d8      	movs	r2, #216	@ 0xd8
20002990:	2501      	movs	r5, #1
20002992:	0b03      	lsrs	r3, r0, #12
20002994:	32ff      	adds	r2, #255	@ 0xff
20002996:	54a3      	strb	r3, [r4, r2]
20002998:	002a      	movs	r2, r5
2000299a:	401a      	ands	r2, r3
2000299c:	421d      	tst	r5, r3
2000299e:	d000      	beq.n	200029a2 <_ZN6C1ZZL313ProcessSampleEv+0xb66>
200029a0:	4aa5      	ldr	r2, [pc, #660]	@ (20002c38 <_ZN6C1ZZL313ProcessSampleEv+0xdfc>)
200029a2:	4b9d      	ldr	r3, [pc, #628]	@ (20002c18 <_ZN6C1ZZL313ProcessSampleEv+0xddc>)
200029a4:	681b      	ldr	r3, [r3, #0]
200029a6:	405a      	eors	r2, r3
200029a8:	0412      	lsls	r2, r2, #16
200029aa:	4b9c      	ldr	r3, [pc, #624]	@ (20002c1c <_ZN6C1ZZL313ProcessSampleEv+0xde0>)
200029ac:	0c12      	lsrs	r2, r2, #16
200029ae:	601a      	str	r2, [r3, #0]
200029b0:	2280      	movs	r2, #128	@ 0x80
200029b2:	0003      	movs	r3, r0
200029b4:	0192      	lsls	r2, r2, #6
200029b6:	4013      	ands	r3, r2
200029b8:	4210      	tst	r0, r2
200029ba:	d000      	beq.n	200029be <_ZN6C1ZZL313ProcessSampleEv+0xb82>
200029bc:	4b9e      	ldr	r3, [pc, #632]	@ (20002c38 <_ZN6C1ZZL313ProcessSampleEv+0xdfc>)
200029be:	4a96      	ldr	r2, [pc, #600]	@ (20002c18 <_ZN6C1ZZL313ProcessSampleEv+0xddc>)
200029c0:	041b      	lsls	r3, r3, #16
200029c2:	6812      	ldr	r2, [r2, #0]
200029c4:	4053      	eors	r3, r2
200029c6:	0c1b      	lsrs	r3, r3, #16
200029c8:	4a94      	ldr	r2, [pc, #592]	@ (20002c1c <_ZN6C1ZZL313ProcessSampleEv+0xde0>)
200029ca:	041b      	lsls	r3, r3, #16
200029cc:	6013      	str	r3, [r2, #0]
200029ce:	2380      	movs	r3, #128	@ 0x80
200029d0:	0002      	movs	r2, r0
200029d2:	01db      	lsls	r3, r3, #7
200029d4:	401a      	ands	r2, r3
200029d6:	4218      	tst	r0, r3
200029d8:	d000      	beq.n	200029dc <_ZN6C1ZZL313ProcessSampleEv+0xba0>
200029da:	4a97      	ldr	r2, [pc, #604]	@ (20002c38 <_ZN6C1ZZL313ProcessSampleEv+0xdfc>)
200029dc:	4d90      	ldr	r5, [pc, #576]	@ (20002c20 <_ZN6C1ZZL313ProcessSampleEv+0xde4>)
200029de:	0bc0      	lsrs	r0, r0, #15
200029e0:	682b      	ldr	r3, [r5, #0]
200029e2:	4053      	eors	r3, r2
200029e4:	041b      	lsls	r3, r3, #16
200029e6:	4a8f      	ldr	r2, [pc, #572]	@ (20002c24 <_ZN6C1ZZL313ProcessSampleEv+0xde8>)
200029e8:	0c1b      	lsrs	r3, r3, #16
200029ea:	6013      	str	r3, [r2, #0]
200029ec:	2800      	cmp	r0, #0
200029ee:	d000      	beq.n	200029f2 <_ZN6C1ZZL313ProcessSampleEv+0xbb6>
200029f0:	e090      	b.n	20002b14 <_ZN6C1ZZL313ProcessSampleEv+0xcd8>
200029f2:	682b      	ldr	r3, [r5, #0]
200029f4:	0c1b      	lsrs	r3, r3, #16
200029f6:	041b      	lsls	r3, r3, #16
200029f8:	6013      	str	r3, [r2, #0]
200029fa:	4b8b      	ldr	r3, [pc, #556]	@ (20002c28 <_ZN6C1ZZL313ProcessSampleEv+0xdec>)
200029fc:	4a8b      	ldr	r2, [pc, #556]	@ (20002c2c <_ZN6C1ZZL313ProcessSampleEv+0xdf0>)
200029fe:	681b      	ldr	r3, [r3, #0]
20002a00:	041b      	lsls	r3, r3, #16
20002a02:	0c1b      	lsrs	r3, r3, #16
20002a04:	6013      	str	r3, [r2, #0]
20002a06:	4b88      	ldr	r3, [pc, #544]	@ (20002c28 <_ZN6C1ZZL313ProcessSampleEv+0xdec>)
20002a08:	4a88      	ldr	r2, [pc, #544]	@ (20002c2c <_ZN6C1ZZL313ProcessSampleEv+0xdf0>)
20002a0a:	681b      	ldr	r3, [r3, #0]
20002a0c:	0c1b      	lsrs	r3, r3, #16
20002a0e:	041b      	lsls	r3, r3, #16
20002a10:	6013      	str	r3, [r2, #0]
20002a12:	23f1      	movs	r3, #241	@ 0xf1
20002a14:	005b      	lsls	r3, r3, #1
20002a16:	5ce2      	ldrb	r2, [r4, r3]
20002a18:	2a00      	cmp	r2, #0
20002a1a:	d100      	bne.n	20002a1e <_ZN6C1ZZL313ProcessSampleEv+0xbe2>
20002a1c:	e0e6      	b.n	20002bec <_ZN6C1ZZL313ProcessSampleEv+0xdb0>
20002a1e:	23e4      	movs	r3, #228	@ 0xe4
20002a20:	4642      	mov	r2, r8
20002a22:	33ff      	adds	r3, #255	@ 0xff
20002a24:	5ce5      	ldrb	r5, [r4, r3]
20002a26:	2a00      	cmp	r2, #0
20002a28:	d000      	beq.n	20002a2c <_ZN6C1ZZL313ProcessSampleEv+0xbf0>
20002a2a:	e131      	b.n	20002c90 <_ZN6C1ZZL313ProcessSampleEv+0xe54>
20002a2c:	2d00      	cmp	r5, #0
20002a2e:	d100      	bne.n	20002a32 <_ZN6C1ZZL313ProcessSampleEv+0xbf6>
20002a30:	e097      	b.n	20002b62 <_ZN6C1ZZL313ProcessSampleEv+0xd26>
20002a32:	2900      	cmp	r1, #0
20002a34:	d000      	beq.n	20002a38 <_ZN6C1ZZL313ProcessSampleEv+0xbfc>
20002a36:	e094      	b.n	20002b62 <_ZN6C1ZZL313ProcessSampleEv+0xd26>
20002a38:	22ee      	movs	r2, #238	@ 0xee
20002a3a:	0052      	lsls	r2, r2, #1
20002a3c:	58a3      	ldr	r3, [r4, r2]
20002a3e:	4972      	ldr	r1, [pc, #456]	@ (20002c08 <_ZN6C1ZZL313ProcessSampleEv+0xdcc>)
20002a40:	428b      	cmp	r3, r1
20002a42:	d800      	bhi.n	20002a46 <_ZN6C1ZZL313ProcessSampleEv+0xc0a>
20002a44:	e14b      	b.n	20002cde <_ZN6C1ZZL313ProcessSampleEv+0xea2>
20002a46:	27f2      	movs	r7, #242	@ 0xf2
20002a48:	007f      	lsls	r7, r7, #1
20002a4a:	5de3      	ldrb	r3, [r4, r7]
20002a4c:	2b00      	cmp	r3, #0
20002a4e:	d000      	beq.n	20002a52 <_ZN6C1ZZL313ProcessSampleEv+0xc16>
20002a50:	e090      	b.n	20002b74 <_ZN6C1ZZL313ProcessSampleEv+0xd38>
20002a52:	0020      	movs	r0, r4
20002a54:	f7ff f960 	bl	20001d18 <_ZN6C1ZZL329savePerformanceStateIfChangedEv>
20002a58:	2301      	movs	r3, #1
20002a5a:	55e3      	strb	r3, [r4, r7]
20002a5c:	4b77      	ldr	r3, [pc, #476]	@ (20002c3c <_ZN6C1ZZL313ProcessSampleEv+0xe00>)
20002a5e:	2287      	movs	r2, #135	@ 0x87
20002a60:	0092      	lsls	r2, r2, #2
20002a62:	50a3      	str	r3, [r4, r2]
20002a64:	426b      	negs	r3, r5
20002a66:	415d      	adcs	r5, r3
20002a68:	4b69      	ldr	r3, [pc, #420]	@ (20002c10 <_ZN6C1ZZL313ProcessSampleEv+0xdd4>)
20002a6a:	426d      	negs	r5, r5
20002a6c:	401d      	ands	r5, r3
20002a6e:	4b69      	ldr	r3, [pc, #420]	@ (20002c14 <_ZN6C1ZZL313ProcessSampleEv+0xdd8>)
20002a70:	4a69      	ldr	r2, [pc, #420]	@ (20002c18 <_ZN6C1ZZL313ProcessSampleEv+0xddc>)
20002a72:	18ed      	adds	r5, r5, r3
20002a74:	436d      	muls	r5, r5
20002a76:	6813      	ldr	r3, [r2, #0]
20002a78:	122d      	asrs	r5, r5, #8
20002a7a:	406b      	eors	r3, r5
20002a7c:	4967      	ldr	r1, [pc, #412]	@ (20002c1c <_ZN6C1ZZL313ProcessSampleEv+0xde0>)
20002a7e:	041b      	lsls	r3, r3, #16
20002a80:	0c1b      	lsrs	r3, r3, #16
20002a82:	600b      	str	r3, [r1, #0]
20002a84:	6812      	ldr	r2, [r2, #0]
20002a86:	042b      	lsls	r3, r5, #16
20002a88:	405a      	eors	r2, r3
20002a8a:	0c12      	lsrs	r2, r2, #16
20002a8c:	4864      	ldr	r0, [pc, #400]	@ (20002c20 <_ZN6C1ZZL313ProcessSampleEv+0xde4>)
20002a8e:	0412      	lsls	r2, r2, #16
20002a90:	600a      	str	r2, [r1, #0]
20002a92:	6802      	ldr	r2, [r0, #0]
20002a94:	4963      	ldr	r1, [pc, #396]	@ (20002c24 <_ZN6C1ZZL313ProcessSampleEv+0xde8>)
20002a96:	406a      	eors	r2, r5
20002a98:	0412      	lsls	r2, r2, #16
20002a9a:	0c12      	lsrs	r2, r2, #16
20002a9c:	600a      	str	r2, [r1, #0]
20002a9e:	6802      	ldr	r2, [r0, #0]
20002aa0:	4861      	ldr	r0, [pc, #388]	@ (20002c28 <_ZN6C1ZZL313ProcessSampleEv+0xdec>)
20002aa2:	405a      	eors	r2, r3
20002aa4:	0c12      	lsrs	r2, r2, #16
20002aa6:	0412      	lsls	r2, r2, #16
20002aa8:	600a      	str	r2, [r1, #0]
20002aaa:	6802      	ldr	r2, [r0, #0]
20002aac:	495f      	ldr	r1, [pc, #380]	@ (20002c2c <_ZN6C1ZZL313ProcessSampleEv+0xdf0>)
20002aae:	406a      	eors	r2, r5
20002ab0:	0412      	lsls	r2, r2, #16
20002ab2:	0c12      	lsrs	r2, r2, #16
20002ab4:	600a      	str	r2, [r1, #0]
20002ab6:	6802      	ldr	r2, [r0, #0]
20002ab8:	4053      	eors	r3, r2
20002aba:	0c1b      	lsrs	r3, r3, #16
20002abc:	041b      	lsls	r3, r3, #16
20002abe:	600b      	str	r3, [r1, #0]
20002ac0:	4642      	mov	r2, r8
20002ac2:	4b5f      	ldr	r3, [pc, #380]	@ (20002c40 <_ZN6C1ZZL313ProcessSampleEv+0xe04>)
20002ac4:	54e2      	strb	r2, [r4, r3]
20002ac6:	f7ff fb84 	bl	200021d2 <_ZN6C1ZZL313ProcessSampleEv+0x396>
20002aca:	21d0      	movs	r1, #208	@ 0xd0
20002acc:	2210      	movs	r2, #16
20002ace:	0049      	lsls	r1, r1, #1
20002ad0:	5062      	str	r2, [r4, r1]
20002ad2:	3998      	subs	r1, #152	@ 0x98
20002ad4:	5c61      	ldrb	r1, [r4, r1]
20002ad6:	2900      	cmp	r1, #0
20002ad8:	d100      	bne.n	20002adc <_ZN6C1ZZL313ProcessSampleEv+0xca0>
20002ada:	e513      	b.n	20002504 <_ZN6C1ZZL313ProcessSampleEv+0x6c8>
20002adc:	e47b      	b.n	200023d6 <_ZN6C1ZZL313ProcessSampleEv+0x59a>
20002ade:	2a00      	cmp	r2, #0
20002ae0:	d100      	bne.n	20002ae4 <_ZN6C1ZZL313ProcessSampleEv+0xca8>
20002ae2:	e661      	b.n	200027a8 <_ZN6C1ZZL313ProcessSampleEv+0x96c>
20002ae4:	2380      	movs	r3, #128	@ 0x80
20002ae6:	015b      	lsls	r3, r3, #5
20002ae8:	459b      	cmp	fp, r3
20002aea:	db72      	blt.n	20002bd2 <_ZN6C1ZZL313ProcessSampleEv+0xd96>
20002aec:	4b49      	ldr	r3, [pc, #292]	@ (20002c14 <_ZN6C1ZZL313ProcessSampleEv+0xdd8>)
20002aee:	4650      	mov	r0, sl
20002af0:	0052      	lsls	r2, r2, #1
20002af2:	1a82      	subs	r2, r0, r2
20002af4:	4692      	mov	sl, r2
20002af6:	e65f      	b.n	200027b8 <_ZN6C1ZZL313ProcessSampleEv+0x97c>
20002af8:	4e52      	ldr	r6, [pc, #328]	@ (20002c44 <_ZN6C1ZZL313ProcessSampleEv+0xe08>)
20002afa:	5da3      	ldrb	r3, [r4, r6]
20002afc:	2b00      	cmp	r3, #0
20002afe:	d000      	beq.n	20002b02 <_ZN6C1ZZL313ProcessSampleEv+0xcc6>
20002b00:	e6d2      	b.n	200028a8 <_ZN6C1ZZL313ProcessSampleEv+0xa6c>
20002b02:	0020      	movs	r0, r4
20002b04:	f7ff f908 	bl	20001d18 <_ZN6C1ZZL329savePerformanceStateIfChangedEv>
20002b08:	2301      	movs	r3, #1
20002b0a:	55a3      	strb	r3, [r4, r6]
20002b0c:	4b4b      	ldr	r3, [pc, #300]	@ (20002c3c <_ZN6C1ZZL313ProcessSampleEv+0xe00>)
20002b0e:	e6d4      	b.n	200028ba <_ZN6C1ZZL313ProcessSampleEv+0xa7e>
20002b10:	4a40      	ldr	r2, [pc, #256]	@ (20002c14 <_ZN6C1ZZL313ProcessSampleEv+0xdd8>)
20002b12:	e73a      	b.n	2000298a <_ZN6C1ZZL313ProcessSampleEv+0xb4e>
20002b14:	6828      	ldr	r0, [r5, #0]
20002b16:	4b3b      	ldr	r3, [pc, #236]	@ (20002c04 <_ZN6C1ZZL313ProcessSampleEv+0xdc8>)
20002b18:	4043      	eors	r3, r0
20002b1a:	e76b      	b.n	200029f4 <_ZN6C1ZZL313ProcessSampleEv+0xbb8>
20002b1c:	20ca      	movs	r0, #202	@ 0xca
20002b1e:	464e      	mov	r6, r9
20002b20:	0040      	lsls	r0, r0, #1
20002b22:	5821      	ldr	r1, [r4, r0]
20002b24:	1a71      	subs	r1, r6, r1
20002b26:	17cd      	asrs	r5, r1, #31
20002b28:	1949      	adds	r1, r1, r5
20002b2a:	4069      	eors	r1, r5
20002b2c:	2940      	cmp	r1, #64	@ 0x40
20002b2e:	dc00      	bgt.n	20002b32 <_ZN6C1ZZL313ProcessSampleEv+0xcf6>
20002b30:	e08e      	b.n	20002c50 <_ZN6C1ZZL313ProcessSampleEv+0xe14>
20002b32:	21d5      	movs	r1, #213	@ 0xd5
20002b34:	2500      	movs	r5, #0
20002b36:	0049      	lsls	r1, r1, #1
20002b38:	5465      	strb	r5, [r4, r1]
20002b3a:	5026      	str	r6, [r4, r0]
20002b3c:	2180      	movs	r1, #128	@ 0x80
20002b3e:	0149      	lsls	r1, r1, #5
20002b40:	4589      	cmp	r9, r1
20002b42:	da00      	bge.n	20002b46 <_ZN6C1ZZL313ProcessSampleEv+0xd0a>
20002b44:	e0b4      	b.n	20002cb0 <_ZN6C1ZZL313ProcessSampleEv+0xe74>
20002b46:	4833      	ldr	r0, [pc, #204]	@ (20002c14 <_ZN6C1ZZL313ProcessSampleEv+0xdd8>)
20002b48:	4932      	ldr	r1, [pc, #200]	@ (20002c14 <_ZN6C1ZZL313ProcessSampleEv+0xdd8>)
20002b4a:	1a09      	subs	r1, r1, r0
20002b4c:	4349      	muls	r1, r1
20002b4e:	0b08      	lsrs	r0, r1, #12
20002b50:	493d      	ldr	r1, [pc, #244]	@ (20002c48 <_ZN6C1ZZL313ProcessSampleEv+0xe0c>)
20002b52:	4341      	muls	r1, r0
20002b54:	483d      	ldr	r0, [pc, #244]	@ (20002c4c <_ZN6C1ZZL313ProcessSampleEv+0xe10>)
20002b56:	0b09      	lsrs	r1, r1, #12
20002b58:	1809      	adds	r1, r1, r0
20002b5a:	20c6      	movs	r0, #198	@ 0xc6
20002b5c:	0040      	lsls	r0, r0, #1
20002b5e:	5021      	str	r1, [r4, r0]
20002b60:	e080      	b.n	20002c64 <_ZN6C1ZZL313ProcessSampleEv+0xe28>
20002b62:	22e4      	movs	r2, #228	@ 0xe4
20002b64:	2301      	movs	r3, #1
20002b66:	2100      	movs	r1, #0
20002b68:	32ff      	adds	r2, #255	@ 0xff
20002b6a:	54a3      	strb	r3, [r4, r2]
20002b6c:	3201      	adds	r2, #1
20002b6e:	54a1      	strb	r1, [r4, r2]
20002b70:	3a08      	subs	r2, #8
20002b72:	50a3      	str	r3, [r4, r2]
20002b74:	2387      	movs	r3, #135	@ 0x87
20002b76:	009b      	lsls	r3, r3, #2
20002b78:	58e3      	ldr	r3, [r4, r3]
20002b7a:	2b00      	cmp	r3, #0
20002b7c:	d0a0      	beq.n	20002ac0 <_ZN6C1ZZL313ProcessSampleEv+0xc84>
20002b7e:	3b01      	subs	r3, #1
20002b80:	04dd      	lsls	r5, r3, #19
20002b82:	0fed      	lsrs	r5, r5, #31
20002b84:	e76b      	b.n	20002a5e <_ZN6C1ZZL313ProcessSampleEv+0xc22>
20002b86:	22f6      	movs	r2, #246	@ 0xf6
20002b88:	23f4      	movs	r3, #244	@ 0xf4
20002b8a:	0052      	lsls	r2, r2, #1
20002b8c:	58a7      	ldr	r7, [r4, r2]
20002b8e:	3204      	adds	r2, #4
20002b90:	58a2      	ldr	r2, [r4, r2]
20002b92:	005b      	lsls	r3, r3, #1
20002b94:	4691      	mov	r9, r2
20002b96:	58e3      	ldr	r3, [r4, r3]
20002b98:	f7ff f9ac 	bl	20001ef4 <_ZN6C1ZZL313ProcessSampleEv+0xb8>
20002b9c:	43d0      	mvns	r0, r2
20002b9e:	17c0      	asrs	r0, r0, #31
20002ba0:	4002      	ands	r2, r0
20002ba2:	e57d      	b.n	200026a0 <_ZN6C1ZZL313ProcessSampleEv+0x864>
20002ba4:	43da      	mvns	r2, r3
20002ba6:	17d2      	asrs	r2, r2, #31
20002ba8:	4013      	ands	r3, r2
20002baa:	e570      	b.n	2000268e <_ZN6C1ZZL313ProcessSampleEv+0x852>
20002bac:	43da      	mvns	r2, r3
20002bae:	17d2      	asrs	r2, r2, #31
20002bb0:	4013      	ands	r3, r2
20002bb2:	e504      	b.n	200025be <_ZN6C1ZZL313ProcessSampleEv+0x782>
20002bb4:	23d0      	movs	r3, #208	@ 0xd0
20002bb6:	2280      	movs	r2, #128	@ 0x80
20002bb8:	061b      	lsls	r3, r3, #24
20002bba:	0092      	lsls	r2, r2, #2
20002bbc:	619a      	str	r2, [r3, #24]
20002bbe:	e590      	b.n	200026e2 <_ZN6C1ZZL313ProcessSampleEv+0x8a6>
20002bc0:	23d0      	movs	r3, #208	@ 0xd0
20002bc2:	2280      	movs	r2, #128	@ 0x80
20002bc4:	061b      	lsls	r3, r3, #24
20002bc6:	0052      	lsls	r2, r2, #1
20002bc8:	619a      	str	r2, [r3, #24]
20002bca:	e57f      	b.n	200026cc <_ZN6C1ZZL313ProcessSampleEv+0x890>
20002bcc:	427f      	negs	r7, r7
20002bce:	40f9      	lsrs	r1, r7
20002bd0:	e548      	b.n	20002664 <_ZN6C1ZZL313ProcessSampleEv+0x828>
20002bd2:	4658      	mov	r0, fp
20002bd4:	43c3      	mvns	r3, r0
20002bd6:	17db      	asrs	r3, r3, #31
20002bd8:	4003      	ands	r3, r0
20002bda:	e788      	b.n	20002aee <_ZN6C1ZZL313ProcessSampleEv+0xcb2>
20002bdc:	22fc      	movs	r2, #252	@ 0xfc
20002bde:	2300      	movs	r3, #0
20002be0:	0052      	lsls	r2, r2, #1
20002be2:	50a3      	str	r3, [r4, r2]
20002be4:	3204      	adds	r2, #4
20002be6:	50a3      	str	r3, [r4, r2]
20002be8:	f7ff fb52 	bl	20002290 <_ZN6C1ZZL313ProcessSampleEv+0x454>
20002bec:	4642      	mov	r2, r8
20002bee:	2a00      	cmp	r2, #0
20002bf0:	d100      	bne.n	20002bf4 <_ZN6C1ZZL313ProcessSampleEv+0xdb8>
20002bf2:	e765      	b.n	20002ac0 <_ZN6C1ZZL313ProcessSampleEv+0xc84>
20002bf4:	2201      	movs	r2, #1
20002bf6:	54e2      	strb	r2, [r4, r3]
20002bf8:	e762      	b.n	20002ac0 <_ZN6C1ZZL313ProcessSampleEv+0xc84>
20002bfa:	23ce      	movs	r3, #206	@ 0xce
20002bfc:	2201      	movs	r2, #1
20002bfe:	005b      	lsls	r3, r3, #1
20002c00:	50e2      	str	r2, [r4, r3]
20002c02:	e49a      	b.n	2000253a <_ZN6C1ZZL313ProcessSampleEv+0x6fe>
20002c04:	ffe00000 	.word	0xffe00000
20002c08:	0005dbff 	.word	0x0005dbff
20002c0c:	0005dc00 	.word	0x0005dc00
20002c10:	fffff001 	.word	0xfffff001
20002c14:	00000fff 	.word	0x00000fff
20002c18:	40050070 	.word	0x40050070
20002c1c:	40051070 	.word	0x40051070
20002c20:	40050084 	.word	0x40050084
20002c24:	40051084 	.word	0x40051084
20002c28:	40050098 	.word	0x40050098
20002c2c:	40051098 	.word	0x40051098
20002c30:	20006958 	.word	0x20006958
20002c34:	0003e783 	.word	0x0003e783
20002c38:	0000ffe0 	.word	0x0000ffe0
20002c3c:	0000bb7f 	.word	0x0000bb7f
20002c40:	00000222 	.word	0x00000222
20002c44:	00000221 	.word	0x00000221
20002c48:	0000dea8 	.word	0x0000dea8
20002c4c:	00000bb8 	.word	0x00000bb8
20002c50:	21d5      	movs	r1, #213	@ 0xd5
20002c52:	0049      	lsls	r1, r1, #1
20002c54:	5c61      	ldrb	r1, [r4, r1]
20002c56:	5026      	str	r6, [r4, r0]
20002c58:	2900      	cmp	r1, #0
20002c5a:	d100      	bne.n	20002c5e <_ZN6C1ZZL313ProcessSampleEv+0xe22>
20002c5c:	e76e      	b.n	20002b3c <_ZN6C1ZZL313ProcessSampleEv+0xd00>
20002c5e:	21c6      	movs	r1, #198	@ 0xc6
20002c60:	0049      	lsls	r1, r1, #1
20002c62:	5861      	ldr	r1, [r4, r1]
20002c64:	25c4      	movs	r5, #196	@ 0xc4
20002c66:	006d      	lsls	r5, r5, #1
20002c68:	5960      	ldr	r0, [r4, r5]
20002c6a:	3001      	adds	r0, #1
20002c6c:	4288      	cmp	r0, r1
20002c6e:	d224      	bcs.n	20002cba <_ZN6C1ZZL313ProcessSampleEv+0xe7e>
20002c70:	5160      	str	r0, [r4, r5]
20002c72:	e450      	b.n	20002516 <_ZN6C1ZZL313ProcessSampleEv+0x6da>
20002c74:	2301      	movs	r3, #1
20002c76:	54a3      	strb	r3, [r4, r2]
20002c78:	f7ff fb8c 	bl	20002394 <_ZN6C1ZZL313ProcessSampleEv+0x558>
20002c7c:	2201      	movs	r2, #1
20002c7e:	339d      	adds	r3, #157	@ 0x9d
20002c80:	33ff      	adds	r3, #255	@ 0xff
20002c82:	50e2      	str	r2, [r4, r3]
20002c84:	3298      	adds	r2, #152	@ 0x98
20002c86:	32ff      	adds	r2, #255	@ 0xff
20002c88:	58a3      	ldr	r3, [r4, r2]
20002c8a:	3301      	adds	r3, #1
20002c8c:	50a3      	str	r3, [r4, r2]
20002c8e:	e466      	b.n	2000255e <_ZN6C1ZZL313ProcessSampleEv+0x722>
20002c90:	2d00      	cmp	r5, #0
20002c92:	d100      	bne.n	20002c96 <_ZN6C1ZZL313ProcessSampleEv+0xe5a>
20002c94:	e714      	b.n	20002ac0 <_ZN6C1ZZL313ProcessSampleEv+0xc84>
20002c96:	21e2      	movs	r1, #226	@ 0xe2
20002c98:	2200      	movs	r2, #0
20002c9a:	31ff      	adds	r1, #255	@ 0xff
20002c9c:	5462      	strb	r2, [r4, r1]
20002c9e:	54e2      	strb	r2, [r4, r3]
20002ca0:	3b07      	subs	r3, #7
20002ca2:	50e2      	str	r2, [r4, r3]
20002ca4:	3308      	adds	r3, #8
20002ca6:	54e2      	strb	r2, [r4, r3]
20002ca8:	e70a      	b.n	20002ac0 <_ZN6C1ZZL313ProcessSampleEv+0xc84>
20002caa:	3301      	adds	r3, #1
20002cac:	50a3      	str	r3, [r4, r2]
20002cae:	e442      	b.n	20002536 <_ZN6C1ZZL313ProcessSampleEv+0x6fa>
20002cb0:	4649      	mov	r1, r9
20002cb2:	43c8      	mvns	r0, r1
20002cb4:	17c0      	asrs	r0, r0, #31
20002cb6:	4008      	ands	r0, r1
20002cb8:	e746      	b.n	20002b48 <_ZN6C1ZZL313ProcessSampleEv+0xd0c>
20002cba:	2100      	movs	r1, #0
20002cbc:	5161      	str	r1, [r4, r5]
20002cbe:	f7ff fb94 	bl	200023ea <_ZN6C1ZZL313ProcessSampleEv+0x5ae>
20002cc2:	1e51      	subs	r1, r2, #1
20002cc4:	418a      	sbcs	r2, r1
20002cc6:	18d1      	adds	r1, r2, r3
20002cc8:	f7ff f986 	bl	20001fd8 <_ZN6C1ZZL313ProcessSampleEv+0x19c>
20002ccc:	1e51      	subs	r1, r2, #1
20002cce:	418a      	sbcs	r2, r1
20002cd0:	18d1      	adds	r1, r2, r3
20002cd2:	e4d1      	b.n	20002678 <_ZN6C1ZZL313ProcessSampleEv+0x83c>
20002cd4:	22fe      	movs	r2, #254	@ 0xfe
20002cd6:	0052      	lsls	r2, r2, #1
20002cd8:	50a3      	str	r3, [r4, r2]
20002cda:	f7ff fad9 	bl	20002290 <_ZN6C1ZZL313ProcessSampleEv+0x454>
20002cde:	3301      	adds	r3, #1
20002ce0:	50a3      	str	r3, [r4, r2]
20002ce2:	4a16      	ldr	r2, [pc, #88]	@ (20002d3c <_ZN6C1ZZL313ProcessSampleEv+0xf00>)
20002ce4:	4293      	cmp	r3, r2
20002ce6:	d000      	beq.n	20002cea <_ZN6C1ZZL313ProcessSampleEv+0xeae>
20002ce8:	e744      	b.n	20002b74 <_ZN6C1ZZL313ProcessSampleEv+0xd38>
20002cea:	e6ac      	b.n	20002a46 <_ZN6C1ZZL313ProcessSampleEv+0xc0a>
20002cec:	2282      	movs	r2, #130	@ 0x82
20002cee:	0092      	lsls	r2, r2, #2
20002cf0:	58a2      	ldr	r2, [r4, r2]
20002cf2:	1a9a      	subs	r2, r3, r2
20002cf4:	17d1      	asrs	r1, r2, #31
20002cf6:	1852      	adds	r2, r2, r1
20002cf8:	404a      	eors	r2, r1
20002cfa:	2a3f      	cmp	r2, #63	@ 0x3f
20002cfc:	dc01      	bgt.n	20002d02 <_ZN6C1ZZL313ProcessSampleEv+0xec6>
20002cfe:	f7ff fac7 	bl	20002290 <_ZN6C1ZZL313ProcessSampleEv+0x454>
20002d02:	22fc      	movs	r2, #252	@ 0xfc
20002d04:	2180      	movs	r1, #128	@ 0x80
20002d06:	0052      	lsls	r2, r2, #1
20002d08:	58a2      	ldr	r2, [r4, r2]
20002d0a:	0109      	lsls	r1, r1, #4
20002d0c:	1852      	adds	r2, r2, r1
20002d0e:	2180      	movs	r1, #128	@ 0x80
20002d10:	0149      	lsls	r1, r1, #5
20002d12:	428a      	cmp	r2, r1
20002d14:	db0e      	blt.n	20002d34 <_ZN6C1ZZL313ProcessSampleEv+0xef8>
20002d16:	4a0a      	ldr	r2, [pc, #40]	@ (20002d40 <_ZN6C1ZZL313ProcessSampleEv+0xf04>)
20002d18:	1a9a      	subs	r2, r3, r2
20002d1a:	17d1      	asrs	r1, r2, #31
20002d1c:	1852      	adds	r2, r2, r1
20002d1e:	404a      	eors	r2, r1
20002d20:	2a60      	cmp	r2, #96	@ 0x60
20002d22:	dd01      	ble.n	20002d28 <_ZN6C1ZZL313ProcessSampleEv+0xeec>
20002d24:	f7ff fab4 	bl	20002290 <_ZN6C1ZZL313ProcessSampleEv+0x454>
20002d28:	2285      	movs	r2, #133	@ 0x85
20002d2a:	2101      	movs	r1, #1
20002d2c:	0092      	lsls	r2, r2, #2
20002d2e:	54a1      	strb	r1, [r4, r2]
20002d30:	f7ff fa95 	bl	2000225e <_ZN6C1ZZL313ProcessSampleEv+0x422>
20002d34:	43d1      	mvns	r1, r2
20002d36:	17c9      	asrs	r1, r1, #31
20002d38:	400a      	ands	r2, r1
20002d3a:	e7ed      	b.n	20002d18 <_ZN6C1ZZL313ProcessSampleEv+0xedc>
20002d3c:	0005dc00 	.word	0x0005dc00
20002d40:	00000fff 	.word	0x00000fff

20002d44 <main>:
20002d44:	b510      	push	{r4, lr}
20002d46:	4803      	ldr	r0, [pc, #12]	@ (20002d54 <main+0x10>)
20002d48:	4b03      	ldr	r3, [pc, #12]	@ (20002d58 <main+0x14>)
20002d4a:	6018      	str	r0, [r3, #0]
20002d4c:	f002 f8e8 	bl	20004f20 <_ZN12ComputerCard11AudioWorkerEv>
20002d50:	2000      	movs	r0, #0
20002d52:	bd10      	pop	{r4, pc}
20002d54:	20006a48 	.word	0x20006a48
20002d58:	20006ff0 	.word	0x20006ff0

20002d5c <_GLOBAL__sub_I__ZN12ComputerCard7cvValueE>:
20002d5c:	b570      	push	{r4, r5, r6, lr}
20002d5e:	4c69      	ldr	r4, [pc, #420]	@ (20002f04 <_GLOBAL__sub_I__ZN12ComputerCard7cvValueE+0x1a8>)
20002d60:	25d6      	movs	r5, #214	@ 0xd6
20002d62:	0020      	movs	r0, r4
20002d64:	f7fd feb8 	bl	20000ad8 <_ZN12ComputerCardC1Ev>
20002d68:	4b67      	ldr	r3, [pc, #412]	@ (20002f08 <_GLOBAL__sub_I__ZN12ComputerCard7cvValueE+0x1ac>)
20002d6a:	22b6      	movs	r2, #182	@ 0xb6
20002d6c:	6023      	str	r3, [r4, #0]
20002d6e:	2300      	movs	r3, #0
20002d70:	0052      	lsls	r2, r2, #1
20002d72:	50a3      	str	r3, [r4, r2]
20002d74:	3204      	adds	r2, #4
20002d76:	50a3      	str	r3, [r4, r2]
20002d78:	4964      	ldr	r1, [pc, #400]	@ (20002f0c <_GLOBAL__sub_I__ZN12ComputerCard7cvValueE+0x1b0>)
20002d7a:	3204      	adds	r2, #4
20002d7c:	50a3      	str	r3, [r4, r2]
20002d7e:	3204      	adds	r2, #4
20002d80:	50a1      	str	r1, [r4, r2]
20002d82:	21c6      	movs	r1, #198	@ 0xc6
20002d84:	3204      	adds	r2, #4
20002d86:	50a3      	str	r3, [r4, r2]
20002d88:	3204      	adds	r2, #4
20002d8a:	50a3      	str	r3, [r4, r2]
20002d8c:	3204      	adds	r2, #4
20002d8e:	50a3      	str	r3, [r4, r2]
20002d90:	3204      	adds	r2, #4
20002d92:	50a3      	str	r3, [r4, r2]
20002d94:	4a5e      	ldr	r2, [pc, #376]	@ (20002f10 <_GLOBAL__sub_I__ZN12ComputerCard7cvValueE+0x1b4>)
20002d96:	0049      	lsls	r1, r1, #1
20002d98:	5062      	str	r2, [r4, r1]
20002d9a:	3104      	adds	r1, #4
20002d9c:	5062      	str	r2, [r4, r1]
20002d9e:	2180      	movs	r1, #128	@ 0x80
20002da0:	22ca      	movs	r2, #202	@ 0xca
20002da2:	2096      	movs	r0, #150	@ 0x96
20002da4:	0109      	lsls	r1, r1, #4
20002da6:	0052      	lsls	r2, r2, #1
20002da8:	50a1      	str	r1, [r4, r2]
20002daa:	3204      	adds	r2, #4
20002dac:	50a3      	str	r3, [r4, r2]
20002dae:	00c0      	lsls	r0, r0, #3
20002db0:	3204      	adds	r2, #4
20002db2:	50a0      	str	r0, [r4, r2]
20002db4:	2010      	movs	r0, #16
20002db6:	3204      	adds	r2, #4
20002db8:	50a0      	str	r0, [r4, r2]
20002dba:	4856      	ldr	r0, [pc, #344]	@ (20002f14 <_GLOBAL__sub_I__ZN12ComputerCard7cvValueE+0x1b8>)
20002dbc:	3204      	adds	r2, #4
20002dbe:	50a0      	str	r0, [r4, r2]
20002dc0:	20d4      	movs	r0, #212	@ 0xd4
20002dc2:	2200      	movs	r2, #0
20002dc4:	0040      	lsls	r0, r0, #1
20002dc6:	5223      	strh	r3, [r4, r0]
20002dc8:	3002      	adds	r0, #2
20002dca:	5422      	strb	r2, [r4, r0]
20002dcc:	38aa      	subs	r0, #170	@ 0xaa
20002dce:	38ff      	subs	r0, #255	@ 0xff
20002dd0:	006d      	lsls	r5, r5, #1
20002dd2:	5160      	str	r0, [r4, r5]
20002dd4:	3504      	adds	r5, #4
20002dd6:	5163      	str	r3, [r4, r5]
20002dd8:	3504      	adds	r5, #4
20002dda:	5163      	str	r3, [r4, r5]
20002ddc:	3504      	adds	r5, #4
20002dde:	5163      	str	r3, [r4, r5]
20002de0:	3504      	adds	r5, #4
20002de2:	5163      	str	r3, [r4, r5]
20002de4:	3504      	adds	r5, #4
20002de6:	5163      	str	r3, [r4, r5]
20002de8:	3504      	adds	r5, #4
20002dea:	5163      	str	r3, [r4, r5]
20002dec:	3504      	adds	r5, #4
20002dee:	5163      	str	r3, [r4, r5]
20002df0:	3504      	adds	r5, #4
20002df2:	5163      	str	r3, [r4, r5]
20002df4:	4e48      	ldr	r6, [pc, #288]	@ (20002f18 <_GLOBAL__sub_I__ZN12ComputerCard7cvValueE+0x1bc>)
20002df6:	3504      	adds	r5, #4
20002df8:	5163      	str	r3, [r4, r5]
20002dfa:	3504      	adds	r5, #4
20002dfc:	5166      	str	r6, [r4, r5]
20002dfe:	3504      	adds	r5, #4
20002e00:	5163      	str	r3, [r4, r5]
20002e02:	3504      	adds	r5, #4
20002e04:	5163      	str	r3, [r4, r5]
20002e06:	3504      	adds	r5, #4
20002e08:	5163      	str	r3, [r4, r5]
20002e0a:	3504      	adds	r5, #4
20002e0c:	5562      	strb	r2, [r4, r5]
20002e0e:	3504      	adds	r5, #4
20002e10:	5161      	str	r1, [r4, r5]
20002e12:	3504      	adds	r5, #4
20002e14:	5163      	str	r3, [r4, r5]
20002e16:	3504      	adds	r5, #4
20002e18:	5163      	str	r3, [r4, r5]
20002e1a:	3504      	adds	r5, #4
20002e1c:	5163      	str	r3, [r4, r5]
20002e1e:	3504      	adds	r5, #4
20002e20:	5163      	str	r3, [r4, r5]
20002e22:	3504      	adds	r5, #4
20002e24:	5163      	str	r3, [r4, r5]
20002e26:	3504      	adds	r5, #4
20002e28:	5163      	str	r3, [r4, r5]
20002e2a:	3504      	adds	r5, #4
20002e2c:	5163      	str	r3, [r4, r5]
20002e2e:	3504      	adds	r5, #4
20002e30:	5161      	str	r1, [r4, r5]
20002e32:	2183      	movs	r1, #131	@ 0x83
20002e34:	0089      	lsls	r1, r1, #2
20002e36:	5063      	str	r3, [r4, r1]
20002e38:	3104      	adds	r1, #4
20002e3a:	5063      	str	r3, [r4, r1]
20002e3c:	3104      	adds	r1, #4
20002e3e:	5263      	strh	r3, [r4, r1]
20002e40:	4936      	ldr	r1, [pc, #216]	@ (20002f1c <_GLOBAL__sub_I__ZN12ComputerCard7cvValueE+0x1c0>)
20002e42:	5462      	strb	r2, [r4, r1]
20002e44:	2286      	movs	r2, #134	@ 0x86
20002e46:	0092      	lsls	r2, r2, #2
20002e48:	50a3      	str	r3, [r4, r2]
20002e4a:	3204      	adds	r2, #4
20002e4c:	50a3      	str	r3, [r4, r2]
20002e4e:	3204      	adds	r2, #4
20002e50:	52a3      	strh	r3, [r4, r2]
20002e52:	4933      	ldr	r1, [pc, #204]	@ (20002f20 <_GLOBAL__sub_I__ZN12ComputerCard7cvValueE+0x1c4>)
20002e54:	4b33      	ldr	r3, [pc, #204]	@ (20002f24 <_GLOBAL__sub_I__ZN12ComputerCard7cvValueE+0x1c8>)
20002e56:	680a      	ldr	r2, [r1, #0]
20002e58:	54e0      	strb	r0, [r4, r3]
20002e5a:	4b33      	ldr	r3, [pc, #204]	@ (20002f28 <_GLOBAL__sub_I__ZN12ComputerCard7cvValueE+0x1cc>)
20002e5c:	429a      	cmp	r2, r3
20002e5e:	d000      	beq.n	20002e62 <_GLOBAL__sub_I__ZN12ComputerCard7cvValueE+0x106>
20002e60:	bd70      	pop	{r4, r5, r6, pc}
20002e62:	888b      	ldrh	r3, [r1, #4]
20002e64:	2b02      	cmp	r3, #2
20002e66:	d1fb      	bne.n	20002e60 <_GLOBAL__sub_I__ZN12ComputerCard7cvValueE+0x104>
20002e68:	88cb      	ldrh	r3, [r1, #6]
20002e6a:	2b20      	cmp	r3, #32
20002e6c:	d1f8      	bne.n	20002e60 <_GLOBAL__sub_I__ZN12ComputerCard7cvValueE+0x104>
20002e6e:	69cd      	ldr	r5, [r1, #28]
20002e70:	4a2e      	ldr	r2, [pc, #184]	@ (20002f2c <_GLOBAL__sub_I__ZN12ComputerCard7cvValueE+0x1d0>)
20002e72:	482f      	ldr	r0, [pc, #188]	@ (20002f30 <_GLOBAL__sub_I__ZN12ComputerCard7cvValueE+0x1d4>)
20002e74:	780b      	ldrb	r3, [r1, #0]
20002e76:	3101      	adds	r1, #1
20002e78:	405a      	eors	r2, r3
20002e7a:	0413      	lsls	r3, r2, #16
20002e7c:	189b      	adds	r3, r3, r2
20002e7e:	005b      	lsls	r3, r3, #1
20002e80:	189b      	adds	r3, r3, r2
20002e82:	00db      	lsls	r3, r3, #3
20002e84:	189b      	adds	r3, r3, r2
20002e86:	00db      	lsls	r3, r3, #3
20002e88:	189b      	adds	r3, r3, r2
20002e8a:	005b      	lsls	r3, r3, #1
20002e8c:	189a      	adds	r2, r3, r2
20002e8e:	4281      	cmp	r1, r0
20002e90:	d1f0      	bne.n	20002e74 <_GLOBAL__sub_I__ZN12ComputerCard7cvValueE+0x118>
20002e92:	4295      	cmp	r5, r2
20002e94:	d1e4      	bne.n	20002e60 <_GLOBAL__sub_I__ZN12ComputerCard7cvValueE+0x104>
20002e96:	22fc      	movs	r2, #252	@ 0xfc
20002e98:	4b21      	ldr	r3, [pc, #132]	@ (20002f20 <_GLOBAL__sub_I__ZN12ComputerCard7cvValueE+0x1c4>)
20002e9a:	0052      	lsls	r2, r2, #1
20002e9c:	6899      	ldr	r1, [r3, #8]
20002e9e:	50a1      	str	r1, [r4, r2]
20002ea0:	2280      	movs	r2, #128	@ 0x80
20002ea2:	68db      	ldr	r3, [r3, #12]
20002ea4:	0152      	lsls	r2, r2, #5
20002ea6:	4293      	cmp	r3, r2
20002ea8:	db28      	blt.n	20002efc <_GLOBAL__sub_I__ZN12ComputerCard7cvValueE+0x1a0>
20002eaa:	4b22      	ldr	r3, [pc, #136]	@ (20002f34 <_GLOBAL__sub_I__ZN12ComputerCard7cvValueE+0x1d8>)
20002eac:	22fe      	movs	r2, #254	@ 0xfe
20002eae:	0052      	lsls	r2, r2, #1
20002eb0:	50a3      	str	r3, [r4, r2]
20002eb2:	2280      	movs	r2, #128	@ 0x80
20002eb4:	4b1a      	ldr	r3, [pc, #104]	@ (20002f20 <_GLOBAL__sub_I__ZN12ComputerCard7cvValueE+0x1c4>)
20002eb6:	0152      	lsls	r2, r2, #5
20002eb8:	691b      	ldr	r3, [r3, #16]
20002eba:	4293      	cmp	r3, r2
20002ebc:	db1a      	blt.n	20002ef4 <_GLOBAL__sub_I__ZN12ComputerCard7cvValueE+0x198>
20002ebe:	4b1d      	ldr	r3, [pc, #116]	@ (20002f34 <_GLOBAL__sub_I__ZN12ComputerCard7cvValueE+0x1d8>)
20002ec0:	2280      	movs	r2, #128	@ 0x80
20002ec2:	0092      	lsls	r2, r2, #2
20002ec4:	50a3      	str	r3, [r4, r2]
20002ec6:	2280      	movs	r2, #128	@ 0x80
20002ec8:	4b15      	ldr	r3, [pc, #84]	@ (20002f20 <_GLOBAL__sub_I__ZN12ComputerCard7cvValueE+0x1c4>)
20002eca:	0152      	lsls	r2, r2, #5
20002ecc:	695b      	ldr	r3, [r3, #20]
20002ece:	4293      	cmp	r3, r2
20002ed0:	db0c      	blt.n	20002eec <_GLOBAL__sub_I__ZN12ComputerCard7cvValueE+0x190>
20002ed2:	4b18      	ldr	r3, [pc, #96]	@ (20002f34 <_GLOBAL__sub_I__ZN12ComputerCard7cvValueE+0x1d8>)
20002ed4:	2281      	movs	r2, #129	@ 0x81
20002ed6:	0092      	lsls	r2, r2, #2
20002ed8:	50a3      	str	r3, [r4, r2]
20002eda:	4b11      	ldr	r3, [pc, #68]	@ (20002f20 <_GLOBAL__sub_I__ZN12ComputerCard7cvValueE+0x1c4>)
20002edc:	7e1b      	ldrb	r3, [r3, #24]
20002ede:	2b08      	cmp	r3, #8
20002ee0:	d900      	bls.n	20002ee4 <_GLOBAL__sub_I__ZN12ComputerCard7cvValueE+0x188>
20002ee2:	2300      	movs	r3, #0
20002ee4:	22d8      	movs	r2, #216	@ 0xd8
20002ee6:	32ff      	adds	r2, #255	@ 0xff
20002ee8:	54a3      	strb	r3, [r4, r2]
20002eea:	e7b9      	b.n	20002e60 <_GLOBAL__sub_I__ZN12ComputerCard7cvValueE+0x104>
20002eec:	43da      	mvns	r2, r3
20002eee:	17d2      	asrs	r2, r2, #31
20002ef0:	4013      	ands	r3, r2
20002ef2:	e7ef      	b.n	20002ed4 <_GLOBAL__sub_I__ZN12ComputerCard7cvValueE+0x178>
20002ef4:	43da      	mvns	r2, r3
20002ef6:	17d2      	asrs	r2, r2, #31
20002ef8:	4013      	ands	r3, r2
20002efa:	e7e1      	b.n	20002ec0 <_GLOBAL__sub_I__ZN12ComputerCard7cvValueE+0x164>
20002efc:	43da      	mvns	r2, r3
20002efe:	17d2      	asrs	r2, r2, #31
20002f00:	4013      	ands	r3, r2
20002f02:	e7d3      	b.n	20002eac <_GLOBAL__sub_I__ZN12ComputerCard7cvValueE+0x150>
20002f04:	20006a48 	.word	0x20006a48
20002f08:	20005b80 	.word	0x20005b80
20002f0c:	0000ace1 	.word	0x0000ace1
20002f10:	00002ee0 	.word	0x00002ee0
20002f14:	00017700 	.word	0x00017700
20002f18:	00000808 	.word	0x00000808
20002f1c:	00000216 	.word	0x00000216
20002f20:	101ff000 	.word	0x101ff000
20002f24:	00000222 	.word	0x00000222
20002f28:	43315a33 	.word	0x43315a33
20002f2c:	811c9dc5 	.word	0x811c9dc5
20002f30:	101ff01c 	.word	0x101ff01c
20002f34:	00000fff 	.word	0x00000fff

20002f38 <gpio_set_function>:
20002f38:	b510      	push	{r4, lr}
20002f3a:	2440      	movs	r4, #64	@ 0x40
20002f3c:	4a07      	ldr	r2, [pc, #28]	@ (20002f5c <gpio_set_function+0x24>)
20002f3e:	0083      	lsls	r3, r0, #2
20002f40:	189a      	adds	r2, r3, r2
20002f42:	6812      	ldr	r2, [r2, #0]
20002f44:	00c0      	lsls	r0, r0, #3
20002f46:	4054      	eors	r4, r2
20002f48:	22c0      	movs	r2, #192	@ 0xc0
20002f4a:	4022      	ands	r2, r4
20002f4c:	4c04      	ldr	r4, [pc, #16]	@ (20002f60 <gpio_set_function+0x28>)
20002f4e:	191b      	adds	r3, r3, r4
20002f50:	601a      	str	r2, [r3, #0]
20002f52:	4b04      	ldr	r3, [pc, #16]	@ (20002f64 <gpio_set_function+0x2c>)
20002f54:	18c0      	adds	r0, r0, r3
20002f56:	6041      	str	r1, [r0, #4]
20002f58:	bd10      	pop	{r4, pc}
20002f5a:	46c0      	nop			@ (mov r8, r8)
20002f5c:	4001c004 	.word	0x4001c004
20002f60:	4001d004 	.word	0x4001d004
20002f64:	40014000 	.word	0x40014000

20002f68 <gpio_set_pulls>:
20002f68:	4b06      	ldr	r3, [pc, #24]	@ (20002f84 <gpio_set_pulls+0x1c>)
20002f6a:	0080      	lsls	r0, r0, #2
20002f6c:	18c3      	adds	r3, r0, r3
20002f6e:	681b      	ldr	r3, [r3, #0]
20002f70:	00c9      	lsls	r1, r1, #3
20002f72:	0092      	lsls	r2, r2, #2
20002f74:	430a      	orrs	r2, r1
20002f76:	405a      	eors	r2, r3
20002f78:	230c      	movs	r3, #12
20002f7a:	4013      	ands	r3, r2
20002f7c:	4a02      	ldr	r2, [pc, #8]	@ (20002f88 <gpio_set_pulls+0x20>)
20002f7e:	1880      	adds	r0, r0, r2
20002f80:	6003      	str	r3, [r0, #0]
20002f82:	4770      	bx	lr
20002f84:	4001c004 	.word	0x4001c004
20002f88:	4001d004 	.word	0x4001d004

20002f8c <gpio_set_input_enabled>:
20002f8c:	0080      	lsls	r0, r0, #2
20002f8e:	2900      	cmp	r1, #0
20002f90:	d004      	beq.n	20002f9c <gpio_set_input_enabled+0x10>
20002f92:	4b05      	ldr	r3, [pc, #20]	@ (20002fa8 <gpio_set_input_enabled+0x1c>)
20002f94:	18c0      	adds	r0, r0, r3
20002f96:	2340      	movs	r3, #64	@ 0x40
20002f98:	6003      	str	r3, [r0, #0]
20002f9a:	4770      	bx	lr
20002f9c:	4b03      	ldr	r3, [pc, #12]	@ (20002fac <gpio_set_input_enabled+0x20>)
20002f9e:	18c0      	adds	r0, r0, r3
20002fa0:	2340      	movs	r3, #64	@ 0x40
20002fa2:	6003      	str	r3, [r0, #0]
20002fa4:	e7f9      	b.n	20002f9a <gpio_set_input_enabled+0xe>
20002fa6:	46c0      	nop			@ (mov r8, r8)
20002fa8:	4001e004 	.word	0x4001e004
20002fac:	4001f004 	.word	0x4001f004

20002fb0 <gpio_init>:
20002fb0:	2301      	movs	r3, #1
20002fb2:	22d0      	movs	r2, #208	@ 0xd0
20002fb4:	4083      	lsls	r3, r0
20002fb6:	0612      	lsls	r2, r2, #24
20002fb8:	6293      	str	r3, [r2, #40]	@ 0x28
20002fba:	6193      	str	r3, [r2, #24]
20002fbc:	4a08      	ldr	r2, [pc, #32]	@ (20002fe0 <gpio_init+0x30>)
20002fbe:	0083      	lsls	r3, r0, #2
20002fc0:	189a      	adds	r2, r3, r2
20002fc2:	6811      	ldr	r1, [r2, #0]
20002fc4:	2240      	movs	r2, #64	@ 0x40
20002fc6:	4051      	eors	r1, r2
20002fc8:	3280      	adds	r2, #128	@ 0x80
20002fca:	400a      	ands	r2, r1
20002fcc:	4905      	ldr	r1, [pc, #20]	@ (20002fe4 <gpio_init+0x34>)
20002fce:	00c0      	lsls	r0, r0, #3
20002fd0:	185b      	adds	r3, r3, r1
20002fd2:	601a      	str	r2, [r3, #0]
20002fd4:	4b04      	ldr	r3, [pc, #16]	@ (20002fe8 <gpio_init+0x38>)
20002fd6:	18c0      	adds	r0, r0, r3
20002fd8:	2305      	movs	r3, #5
20002fda:	6043      	str	r3, [r0, #4]
20002fdc:	4770      	bx	lr
20002fde:	46c0      	nop			@ (mov r8, r8)
20002fe0:	4001c004 	.word	0x4001c004
20002fe4:	4001d004 	.word	0x4001d004
20002fe8:	40014000 	.word	0x40014000

20002fec <panic>:
20002fec:	b40f      	push	{r0, r1, r2, r3}
20002fee:	b500      	push	{lr}
20002ff0:	4808      	ldr	r0, [pc, #32]	@ (20003014 <panic+0x28>)
20002ff2:	b083      	sub	sp, #12
20002ff4:	f001 fc44 	bl	20004880 <__wrap_puts>
20002ff8:	9b04      	ldr	r3, [sp, #16]
20002ffa:	2b00      	cmp	r3, #0
20002ffc:	d007      	beq.n	2000300e <panic+0x22>
20002ffe:	a905      	add	r1, sp, #20
20003000:	0018      	movs	r0, r3
20003002:	9101      	str	r1, [sp, #4]
20003004:	f001 faf4 	bl	200045f0 <weak_raw_vprintf>
20003008:	4803      	ldr	r0, [pc, #12]	@ (20003018 <panic+0x2c>)
2000300a:	f001 fc39 	bl	20004880 <__wrap_puts>
2000300e:	2001      	movs	r0, #1
20003010:	f001 fb06 	bl	20004620 <_exit>
20003014:	20006840 	.word	0x20006840
20003018:	20006850 	.word	0x20006850

2000301c <hw_claim_or_assert>:
2000301c:	b570      	push	{r4, r5, r6, lr}
2000301e:	468c      	mov	ip, r1
20003020:	0016      	movs	r6, r2
20003022:	f3ef 8410 	mrs	r4, PRIMASK
20003026:	b672      	cpsid	i
20003028:	490f      	ldr	r1, [pc, #60]	@ (20003068 <hw_claim_or_assert+0x4c>)
2000302a:	680b      	ldr	r3, [r1, #0]
2000302c:	2b00      	cmp	r3, #0
2000302e:	d0fc      	beq.n	2000302a <hw_claim_or_assert+0xe>
20003030:	f3bf 8f5f 	dmb	sy
20003034:	4663      	mov	r3, ip
20003036:	08db      	lsrs	r3, r3, #3
20003038:	18c5      	adds	r5, r0, r3
2000303a:	2207      	movs	r2, #7
2000303c:	5cc0      	ldrb	r0, [r0, r3]
2000303e:	4663      	mov	r3, ip
20003040:	401a      	ands	r2, r3
20003042:	2301      	movs	r3, #1
20003044:	4093      	lsls	r3, r2
20003046:	001a      	movs	r2, r3
20003048:	4002      	ands	r2, r0
2000304a:	4203      	tst	r3, r0
2000304c:	d107      	bne.n	2000305e <hw_claim_or_assert+0x42>
2000304e:	4318      	orrs	r0, r3
20003050:	7028      	strb	r0, [r5, #0]
20003052:	f3bf 8f5f 	dmb	sy
20003056:	600a      	str	r2, [r1, #0]
20003058:	f384 8810 	msr	PRIMASK, r4
2000305c:	bd70      	pop	{r4, r5, r6, pc}
2000305e:	4661      	mov	r1, ip
20003060:	0030      	movs	r0, r6
20003062:	f7ff ffc3 	bl	20002fec <panic>
20003066:	46c0      	nop			@ (mov r8, r8)
20003068:	d000012c 	.word	0xd000012c

2000306c <hw_claim_unused_from_range>:
2000306c:	b5f8      	push	{r3, r4, r5, r6, r7, lr}
2000306e:	46ce      	mov	lr, r9
20003070:	4647      	mov	r7, r8
20003072:	468c      	mov	ip, r1
20003074:	b580      	push	{r7, lr}
20003076:	001c      	movs	r4, r3
20003078:	f3ef 8810 	mrs	r8, PRIMASK
2000307c:	b672      	cpsid	i
2000307e:	491c      	ldr	r1, [pc, #112]	@ (200030f0 <hw_claim_unused_from_range+0x84>)
20003080:	680b      	ldr	r3, [r1, #0]
20003082:	2b00      	cmp	r3, #0
20003084:	d0fc      	beq.n	20003080 <hw_claim_unused_from_range+0x14>
20003086:	f3bf 8f5f 	dmb	sy
2000308a:	42a2      	cmp	r2, r4
2000308c:	d821      	bhi.n	200030d2 <hw_claim_unused_from_range+0x66>
2000308e:	2307      	movs	r3, #7
20003090:	4699      	mov	r9, r3
20003092:	e002      	b.n	2000309a <hw_claim_unused_from_range+0x2e>
20003094:	3201      	adds	r2, #1
20003096:	4294      	cmp	r4, r2
20003098:	d318      	bcc.n	200030cc <hw_claim_unused_from_range+0x60>
2000309a:	4649      	mov	r1, r9
2000309c:	2601      	movs	r6, #1
2000309e:	4011      	ands	r1, r2
200030a0:	408e      	lsls	r6, r1
200030a2:	08d3      	lsrs	r3, r2, #3
200030a4:	18c7      	adds	r7, r0, r3
200030a6:	5cc3      	ldrb	r3, [r0, r3]
200030a8:	421e      	tst	r6, r3
200030aa:	d1f3      	bne.n	20003094 <hw_claim_unused_from_range+0x28>
200030ac:	0010      	movs	r0, r2
200030ae:	4333      	orrs	r3, r6
200030b0:	703b      	strb	r3, [r7, #0]
200030b2:	f3bf 8f5f 	dmb	sy
200030b6:	2200      	movs	r2, #0
200030b8:	4b0d      	ldr	r3, [pc, #52]	@ (200030f0 <hw_claim_unused_from_range+0x84>)
200030ba:	601a      	str	r2, [r3, #0]
200030bc:	f388 8810 	msr	PRIMASK, r8
200030c0:	2800      	cmp	r0, #0
200030c2:	db0e      	blt.n	200030e2 <hw_claim_unused_from_range+0x76>
200030c4:	bcc0      	pop	{r6, r7}
200030c6:	46b9      	mov	r9, r7
200030c8:	46b0      	mov	r8, r6
200030ca:	bdf8      	pop	{r3, r4, r5, r6, r7, pc}
200030cc:	2001      	movs	r0, #1
200030ce:	4240      	negs	r0, r0
200030d0:	e7ef      	b.n	200030b2 <hw_claim_unused_from_range+0x46>
200030d2:	f3bf 8f5f 	dmb	sy
200030d6:	2300      	movs	r3, #0
200030d8:	600b      	str	r3, [r1, #0]
200030da:	f388 8810 	msr	PRIMASK, r8
200030de:	2001      	movs	r0, #1
200030e0:	4240      	negs	r0, r0
200030e2:	4663      	mov	r3, ip
200030e4:	2b00      	cmp	r3, #0
200030e6:	d0ed      	beq.n	200030c4 <hw_claim_unused_from_range+0x58>
200030e8:	9808      	ldr	r0, [sp, #32]
200030ea:	f7ff ff7f 	bl	20002fec <panic>
200030ee:	46c0      	nop			@ (mov r8, r8)
200030f0:	d000012c 	.word	0xd000012c

200030f4 <next_striped_spin_lock_num>:
200030f4:	4a04      	ldr	r2, [pc, #16]	@ (20003108 <next_striped_spin_lock_num+0x14>)
200030f6:	7810      	ldrb	r0, [r2, #0]
200030f8:	1c43      	adds	r3, r0, #1
200030fa:	b2db      	uxtb	r3, r3
200030fc:	2b17      	cmp	r3, #23
200030fe:	d900      	bls.n	20003102 <next_striped_spin_lock_num+0xe>
20003100:	2310      	movs	r3, #16
20003102:	7013      	strb	r3, [r2, #0]
20003104:	4770      	bx	lr
20003106:	46c0      	nop			@ (mov r8, r8)
20003108:	20006960 	.word	0x20006960

2000310c <spin_locks_reset>:
2000310c:	2100      	movs	r1, #0
2000310e:	4b04      	ldr	r3, [pc, #16]	@ (20003120 <spin_locks_reset+0x14>)
20003110:	4a04      	ldr	r2, [pc, #16]	@ (20003124 <spin_locks_reset+0x18>)
20003112:	f3bf 8f5f 	dmb	sy
20003116:	c302      	stmia	r3!, {r1}
20003118:	4293      	cmp	r3, r2
2000311a:	d1fa      	bne.n	20003112 <spin_locks_reset+0x6>
2000311c:	4770      	bx	lr
2000311e:	46c0      	nop			@ (mov r8, r8)
20003120:	d0000100 	.word	0xd0000100
20003124:	d0000180 	.word	0xd0000180

20003128 <runtime_init_per_core_irq_priorities>:
20003128:	4b08      	ldr	r3, [pc, #32]	@ (2000314c <runtime_init_per_core_irq_priorities+0x24>)
2000312a:	4a09      	ldr	r2, [pc, #36]	@ (20003150 <runtime_init_per_core_irq_priorities+0x28>)
2000312c:	6013      	str	r3, [r2, #0]
2000312e:	4a09      	ldr	r2, [pc, #36]	@ (20003154 <runtime_init_per_core_irq_priorities+0x2c>)
20003130:	6013      	str	r3, [r2, #0]
20003132:	4a09      	ldr	r2, [pc, #36]	@ (20003158 <runtime_init_per_core_irq_priorities+0x30>)
20003134:	6013      	str	r3, [r2, #0]
20003136:	4a09      	ldr	r2, [pc, #36]	@ (2000315c <runtime_init_per_core_irq_priorities+0x34>)
20003138:	6013      	str	r3, [r2, #0]
2000313a:	4a09      	ldr	r2, [pc, #36]	@ (20003160 <runtime_init_per_core_irq_priorities+0x38>)
2000313c:	6013      	str	r3, [r2, #0]
2000313e:	4a09      	ldr	r2, [pc, #36]	@ (20003164 <runtime_init_per_core_irq_priorities+0x3c>)
20003140:	6013      	str	r3, [r2, #0]
20003142:	4a09      	ldr	r2, [pc, #36]	@ (20003168 <runtime_init_per_core_irq_priorities+0x40>)
20003144:	6013      	str	r3, [r2, #0]
20003146:	4a09      	ldr	r2, [pc, #36]	@ (2000316c <runtime_init_per_core_irq_priorities+0x44>)
20003148:	6013      	str	r3, [r2, #0]
2000314a:	4770      	bx	lr
2000314c:	80808080 	.word	0x80808080
20003150:	e000e400 	.word	0xe000e400
20003154:	e000e404 	.word	0xe000e404
20003158:	e000e408 	.word	0xe000e408
2000315c:	e000e40c 	.word	0xe000e40c
20003160:	e000e410 	.word	0xe000e410
20003164:	e000e414 	.word	0xe000e414
20003168:	e000e418 	.word	0xe000e418
2000316c:	e000e41c 	.word	0xe000e41c

20003170 <irq_set_enabled>:
20003170:	231f      	movs	r3, #31
20003172:	4018      	ands	r0, r3
20003174:	3b1e      	subs	r3, #30
20003176:	4083      	lsls	r3, r0
20003178:	2900      	cmp	r1, #0
2000317a:	d005      	beq.n	20003188 <irq_set_enabled+0x18>
2000317c:	21c0      	movs	r1, #192	@ 0xc0
2000317e:	4a04      	ldr	r2, [pc, #16]	@ (20003190 <irq_set_enabled+0x20>)
20003180:	0049      	lsls	r1, r1, #1
20003182:	5053      	str	r3, [r2, r1]
20003184:	6013      	str	r3, [r2, #0]
20003186:	4770      	bx	lr
20003188:	2280      	movs	r2, #128	@ 0x80
2000318a:	4901      	ldr	r1, [pc, #4]	@ (20003190 <irq_set_enabled+0x20>)
2000318c:	508b      	str	r3, [r1, r2]
2000318e:	e7fa      	b.n	20003186 <irq_set_enabled+0x16>
20003190:	e000e100 	.word	0xe000e100

20003194 <irq_set_exclusive_handler>:
20003194:	b570      	push	{r4, r5, r6, lr}
20003196:	000d      	movs	r5, r1
20003198:	f3ef 8610 	mrs	r6, PRIMASK
2000319c:	b672      	cpsid	i
2000319e:	4a0f      	ldr	r2, [pc, #60]	@ (200031dc <irq_set_exclusive_handler+0x48>)
200031a0:	6813      	ldr	r3, [r2, #0]
200031a2:	2b00      	cmp	r3, #0
200031a4:	d0fc      	beq.n	200031a0 <irq_set_exclusive_handler+0xc>
200031a6:	f3bf 8f5f 	dmb	sy
200031aa:	4b0d      	ldr	r3, [pc, #52]	@ (200031e0 <irq_set_exclusive_handler+0x4c>)
200031ac:	3010      	adds	r0, #16
200031ae:	689b      	ldr	r3, [r3, #8]
200031b0:	0084      	lsls	r4, r0, #2
200031b2:	591b      	ldr	r3, [r3, r4]
200031b4:	4a0b      	ldr	r2, [pc, #44]	@ (200031e4 <irq_set_exclusive_handler+0x50>)
200031b6:	4293      	cmp	r3, r2
200031b8:	d003      	beq.n	200031c2 <irq_set_exclusive_handler+0x2e>
200031ba:	429d      	cmp	r5, r3
200031bc:	d001      	beq.n	200031c2 <irq_set_exclusive_handler+0x2e>
200031be:	f000 fefb 	bl	20003fb8 <hard_assertion_failure>
200031c2:	4b07      	ldr	r3, [pc, #28]	@ (200031e0 <irq_set_exclusive_handler+0x4c>)
200031c4:	689b      	ldr	r3, [r3, #8]
200031c6:	511d      	str	r5, [r3, r4]
200031c8:	f3bf 8f5f 	dmb	sy
200031cc:	f3bf 8f5f 	dmb	sy
200031d0:	2200      	movs	r2, #0
200031d2:	4b02      	ldr	r3, [pc, #8]	@ (200031dc <irq_set_exclusive_handler+0x48>)
200031d4:	601a      	str	r2, [r3, #0]
200031d6:	f386 8810 	msr	PRIMASK, r6
200031da:	bd70      	pop	{r4, r5, r6, pc}
200031dc:	d0000124 	.word	0xd0000124
200031e0:	e000ed00 	.word	0xe000ed00
200031e4:	100001c1 	.word	0x100001c1

200031e8 <irq_remove_handler>:
200031e8:	b5f0      	push	{r4, r5, r6, r7, lr}
200031ea:	4645      	mov	r5, r8
200031ec:	46de      	mov	lr, fp
200031ee:	4657      	mov	r7, sl
200031f0:	464e      	mov	r6, r9
200031f2:	b5e0      	push	{r5, r6, r7, lr}
200031f4:	000d      	movs	r5, r1
200031f6:	b083      	sub	sp, #12
200031f8:	f3ef 8810 	mrs	r8, PRIMASK
200031fc:	b672      	cpsid	i
200031fe:	4a60      	ldr	r2, [pc, #384]	@ (20003380 <irq_remove_handler+0x198>)
20003200:	6813      	ldr	r3, [r2, #0]
20003202:	2b00      	cmp	r3, #0
20003204:	d0fc      	beq.n	20003200 <irq_remove_handler+0x18>
20003206:	f3bf 8f5f 	dmb	sy
2000320a:	4b5e      	ldr	r3, [pc, #376]	@ (20003384 <irq_remove_handler+0x19c>)
2000320c:	495e      	ldr	r1, [pc, #376]	@ (20003388 <irq_remove_handler+0x1a0>)
2000320e:	689a      	ldr	r2, [r3, #8]
20003210:	0003      	movs	r3, r0
20003212:	3310      	adds	r3, #16
20003214:	009f      	lsls	r7, r3, #2
20003216:	59d4      	ldr	r4, [r2, r7]
20003218:	4699      	mov	r9, r3
2000321a:	428c      	cmp	r4, r1
2000321c:	d03e      	beq.n	2000329c <irq_remove_handler+0xb4>
2000321e:	42ac      	cmp	r4, r5
20003220:	d04f      	beq.n	200032c2 <irq_remove_handler+0xda>
20003222:	4e5a      	ldr	r6, [pc, #360]	@ (2000338c <irq_remove_handler+0x1a4>)
20003224:	1ba2      	subs	r2, r4, r6
20003226:	2a2f      	cmp	r2, #47	@ 0x2f
20003228:	d838      	bhi.n	2000329c <irq_remove_handler+0xb4>
2000322a:	4b59      	ldr	r3, [pc, #356]	@ (20003390 <irq_remove_handler+0x1a8>)
2000322c:	681a      	ldr	r2, [r3, #0]
2000322e:	469c      	mov	ip, r3
20003230:	0013      	movs	r3, r2
20003232:	2201      	movs	r2, #1
20003234:	4082      	lsls	r2, r0
20003236:	4013      	ands	r3, r2
20003238:	221f      	movs	r2, #31
2000323a:	4002      	ands	r2, r0
2000323c:	2001      	movs	r0, #1
2000323e:	469a      	mov	sl, r3
20003240:	4090      	lsls	r0, r2
20003242:	4663      	mov	r3, ip
20003244:	2280      	movs	r2, #128	@ 0x80
20003246:	4683      	mov	fp, r0
20003248:	5098      	str	r0, [r3, r2]
2000324a:	f3bf 8f5f 	dmb	sy
2000324e:	f3ef 8305 	mrs	r3, IPSR
20003252:	9301      	str	r3, [sp, #4]
20003254:	2b00      	cmp	r3, #0
20003256:	d036      	beq.n	200032c6 <irq_remove_handler+0xde>
20003258:	4599      	cmp	r9, r3
2000325a:	d001      	beq.n	20003260 <irq_remove_handler+0x78>
2000325c:	f000 feac 	bl	20003fb8 <hard_assertion_failure>
20003260:	2301      	movs	r3, #1
20003262:	0022      	movs	r2, r4
20003264:	439a      	bics	r2, r3
20003266:	6890      	ldr	r0, [r2, #8]
20003268:	4285      	cmp	r5, r0
2000326a:	d108      	bne.n	2000327e <irq_remove_handler+0x96>
2000326c:	e076      	b.n	2000335c <irq_remove_handler+0x174>
2000326e:	004b      	lsls	r3, r1, #1
20003270:	185b      	adds	r3, r3, r1
20003272:	009b      	lsls	r3, r3, #2
20003274:	18f3      	adds	r3, r6, r3
20003276:	6898      	ldr	r0, [r3, #8]
20003278:	4285      	cmp	r5, r0
2000327a:	d036      	beq.n	200032ea <irq_remove_handler+0x102>
2000327c:	001a      	movs	r2, r3
2000327e:	2106      	movs	r1, #6
20003280:	5651      	ldrsb	r1, [r2, r1]
20003282:	2900      	cmp	r1, #0
20003284:	daf3      	bge.n	2000326e <irq_remove_handler+0x86>
20003286:	4285      	cmp	r5, r0
20003288:	d054      	beq.n	20003334 <irq_remove_handler+0x14c>
2000328a:	4653      	mov	r3, sl
2000328c:	2b00      	cmp	r3, #0
2000328e:	d027      	beq.n	200032e0 <irq_remove_handler+0xf8>
20003290:	22c0      	movs	r2, #192	@ 0xc0
20003292:	4659      	mov	r1, fp
20003294:	4b3e      	ldr	r3, [pc, #248]	@ (20003390 <irq_remove_handler+0x1a8>)
20003296:	0052      	lsls	r2, r2, #1
20003298:	5099      	str	r1, [r3, r2]
2000329a:	6019      	str	r1, [r3, #0]
2000329c:	4b39      	ldr	r3, [pc, #228]	@ (20003384 <irq_remove_handler+0x19c>)
2000329e:	689b      	ldr	r3, [r3, #8]
200032a0:	51dc      	str	r4, [r3, r7]
200032a2:	f3bf 8f5f 	dmb	sy
200032a6:	f3bf 8f5f 	dmb	sy
200032aa:	2200      	movs	r2, #0
200032ac:	4b34      	ldr	r3, [pc, #208]	@ (20003380 <irq_remove_handler+0x198>)
200032ae:	601a      	str	r2, [r3, #0]
200032b0:	f388 8810 	msr	PRIMASK, r8
200032b4:	b003      	add	sp, #12
200032b6:	bcf0      	pop	{r4, r5, r6, r7}
200032b8:	46bb      	mov	fp, r7
200032ba:	46b2      	mov	sl, r6
200032bc:	46a9      	mov	r9, r5
200032be:	46a0      	mov	r8, r4
200032c0:	bdf0      	pop	{r4, r5, r6, r7, pc}
200032c2:	000c      	movs	r4, r1
200032c4:	e7ea      	b.n	2000329c <irq_remove_handler+0xb4>
200032c6:	0022      	movs	r2, r4
200032c8:	3301      	adds	r3, #1
200032ca:	439a      	bics	r2, r3
200032cc:	6890      	ldr	r0, [r2, #8]
200032ce:	4285      	cmp	r5, r0
200032d0:	d1d5      	bne.n	2000327e <irq_remove_handler+0x96>
200032d2:	2006      	movs	r0, #6
200032d4:	5610      	ldrsb	r0, [r2, r0]
200032d6:	0013      	movs	r3, r2
200032d8:	2800      	cmp	r0, #0
200032da:	da0a      	bge.n	200032f2 <irq_remove_handler+0x10a>
200032dc:	000c      	movs	r4, r1
200032de:	e031      	b.n	20003344 <irq_remove_handler+0x15c>
200032e0:	2380      	movs	r3, #128	@ 0x80
200032e2:	4659      	mov	r1, fp
200032e4:	4a2a      	ldr	r2, [pc, #168]	@ (20003390 <irq_remove_handler+0x1a8>)
200032e6:	50d1      	str	r1, [r2, r3]
200032e8:	e7d8      	b.n	2000329c <irq_remove_handler+0xb4>
200032ea:	2006      	movs	r0, #6
200032ec:	5618      	ldrsb	r0, [r3, r0]
200032ee:	2800      	cmp	r0, #0
200032f0:	db21      	blt.n	20003336 <irq_remove_handler+0x14e>
200032f2:	0042      	lsls	r2, r0, #1
200032f4:	1811      	adds	r1, r2, r0
200032f6:	0089      	lsls	r1, r1, #2
200032f8:	1875      	adds	r5, r6, r1
200032fa:	4689      	mov	r9, r1
200032fc:	68a9      	ldr	r1, [r5, #8]
200032fe:	6099      	str	r1, [r3, #8]
20003300:	79e9      	ldrb	r1, [r5, #7]
20003302:	71d9      	strb	r1, [r3, #7]
20003304:	2106      	movs	r1, #6
20003306:	5669      	ldrsb	r1, [r5, r1]
20003308:	7199      	strb	r1, [r3, #6]
2000330a:	2900      	cmp	r1, #0
2000330c:	db24      	blt.n	20003358 <irq_remove_handler+0x170>
2000330e:	88ad      	ldrh	r5, [r5, #4]
20003310:	1af1      	subs	r1, r6, r3
20003312:	056d      	lsls	r5, r5, #21
20003314:	152d      	asrs	r5, r5, #20
20003316:	444d      	add	r5, r9
20003318:	1949      	adds	r1, r1, r5
2000331a:	0509      	lsls	r1, r1, #20
2000331c:	4d1d      	ldr	r5, [pc, #116]	@ (20003394 <irq_remove_handler+0x1ac>)
2000331e:	0d49      	lsrs	r1, r1, #21
20003320:	4329      	orrs	r1, r5
20003322:	8099      	strh	r1, [r3, #4]
20003324:	1813      	adds	r3, r2, r0
20003326:	4a1c      	ldr	r2, [pc, #112]	@ (20003398 <irq_remove_handler+0x1b0>)
20003328:	009b      	lsls	r3, r3, #2
2000332a:	7811      	ldrb	r1, [r2, #0]
2000332c:	18f3      	adds	r3, r6, r3
2000332e:	7199      	strb	r1, [r3, #6]
20003330:	7010      	strb	r0, [r2, #0]
20003332:	e7aa      	b.n	2000328a <irq_remove_handler+0xa2>
20003334:	0013      	movs	r3, r2
20003336:	9901      	ldr	r1, [sp, #4]
20003338:	2900      	cmp	r1, #0
2000333a:	d114      	bne.n	20003366 <irq_remove_handler+0x17e>
2000333c:	31ff      	adds	r1, #255	@ 0xff
2000333e:	7191      	strb	r1, [r2, #6]
20003340:	4916      	ldr	r1, [pc, #88]	@ (2000339c <irq_remove_handler+0x1b4>)
20003342:	8091      	strh	r1, [r2, #4]
20003344:	4914      	ldr	r1, [pc, #80]	@ (20003398 <irq_remove_handler+0x1b0>)
20003346:	780a      	ldrb	r2, [r1, #0]
20003348:	719a      	strb	r2, [r3, #6]
2000334a:	4a15      	ldr	r2, [pc, #84]	@ (200033a0 <irq_remove_handler+0x1b8>)
2000334c:	1b9b      	subs	r3, r3, r6
2000334e:	415b      	adcs	r3, r3
20003350:	435a      	muls	r2, r3
20003352:	0d12      	lsrs	r2, r2, #20
20003354:	700a      	strb	r2, [r1, #0]
20003356:	e798      	b.n	2000328a <irq_remove_handler+0xa2>
20003358:	4910      	ldr	r1, [pc, #64]	@ (2000339c <irq_remove_handler+0x1b4>)
2000335a:	e7e2      	b.n	20003322 <irq_remove_handler+0x13a>
2000335c:	2006      	movs	r0, #6
2000335e:	5610      	ldrsb	r0, [r2, r0]
20003360:	0013      	movs	r3, r2
20003362:	2800      	cmp	r0, #0
20003364:	dac5      	bge.n	200032f2 <irq_remove_handler+0x10a>
20003366:	4a0f      	ldr	r2, [pc, #60]	@ (200033a4 <irq_remove_handler+0x1bc>)
20003368:	490f      	ldr	r1, [pc, #60]	@ (200033a8 <irq_remove_handler+0x1c0>)
2000336a:	1ad2      	subs	r2, r2, r3
2000336c:	3a08      	subs	r2, #8
2000336e:	0250      	lsls	r0, r2, #9
20003370:	0d40      	lsrs	r0, r0, #21
20003372:	4301      	orrs	r1, r0
20003374:	8099      	strh	r1, [r3, #4]
20003376:	490d      	ldr	r1, [pc, #52]	@ (200033ac <irq_remove_handler+0x1c4>)
20003378:	0852      	lsrs	r2, r2, #1
2000337a:	430a      	orrs	r2, r1
2000337c:	80da      	strh	r2, [r3, #6]
2000337e:	e784      	b.n	2000328a <irq_remove_handler+0xa2>
20003380:	d0000124 	.word	0xd0000124
20003384:	e000ed00 	.word	0xe000ed00
20003388:	100001c1 	.word	0x100001c1
2000338c:	20006964 	.word	0x20006964
20003390:	e000e100 	.word	0xe000e100
20003394:	ffffe000 	.word	0xffffe000
20003398:	20007193 	.word	0x20007193
2000339c:	ffffbd01 	.word	0xffffbd01
200033a0:	0000aaaa 	.word	0x0000aaaa
200033a4:	2000699e 	.word	0x2000699e
200033a8:	fffff000 	.word	0xfffff000
200033ac:	fffff800 	.word	0xfffff800

200033b0 <irq_set_priority>:
200033b0:	4a08      	ldr	r2, [pc, #32]	@ (200033d4 <irq_set_priority+0x24>)
200033b2:	0883      	lsrs	r3, r0, #2
200033b4:	009b      	lsls	r3, r3, #2
200033b6:	189b      	adds	r3, r3, r2
200033b8:	681a      	ldr	r2, [r3, #0]
200033ba:	b510      	push	{r4, lr}
200033bc:	0014      	movs	r4, r2
200033be:	2203      	movs	r2, #3
200033c0:	4010      	ands	r0, r2
200033c2:	00c0      	lsls	r0, r0, #3
200033c4:	32fc      	adds	r2, #252	@ 0xfc
200033c6:	4082      	lsls	r2, r0
200033c8:	4394      	bics	r4, r2
200033ca:	0022      	movs	r2, r4
200033cc:	4081      	lsls	r1, r0
200033ce:	430a      	orrs	r2, r1
200033d0:	601a      	str	r2, [r3, #0]
200033d2:	bd10      	pop	{r4, pc}
200033d4:	e000e400 	.word	0xe000e400

200033d8 <irq_add_tail_to_free_list>:
200033d8:	2301      	movs	r3, #1
200033da:	4303      	orrs	r3, r0
200033dc:	b570      	push	{r4, r5, r6, lr}
200033de:	469c      	mov	ip, r3
200033e0:	f3ef 8105 	mrs	r1, IPSR
200033e4:	f3ef 8510 	mrs	r5, PRIMASK
200033e8:	b672      	cpsid	i
200033ea:	4a21      	ldr	r2, [pc, #132]	@ (20003470 <irq_add_tail_to_free_list+0x98>)
200033ec:	6813      	ldr	r3, [r2, #0]
200033ee:	2b00      	cmp	r3, #0
200033f0:	d0fc      	beq.n	200033ec <irq_add_tail_to_free_list+0x14>
200033f2:	f3bf 8f5f 	dmb	sy
200033f6:	4b1f      	ldr	r3, [pc, #124]	@ (20003474 <irq_add_tail_to_free_list+0x9c>)
200033f8:	0004      	movs	r4, r0
200033fa:	4a1f      	ldr	r2, [pc, #124]	@ (20003478 <irq_add_tail_to_free_list+0xa0>)
200033fc:	1ae4      	subs	r4, r4, r3
200033fe:	4164      	adcs	r4, r4
20003400:	4362      	muls	r2, r4
20003402:	0d12      	lsrs	r2, r2, #20
20003404:	4c1d      	ldr	r4, [pc, #116]	@ (2000347c <irq_add_tail_to_free_list+0xa4>)
20003406:	0089      	lsls	r1, r1, #2
20003408:	68a6      	ldr	r6, [r4, #8]
2000340a:	b252      	sxtb	r2, r2
2000340c:	5876      	ldr	r6, [r6, r1]
2000340e:	4566      	cmp	r6, ip
20003410:	d01c      	beq.n	2000344c <irq_add_tail_to_free_list+0x74>
20003412:	2106      	movs	r1, #6
20003414:	5659      	ldrsb	r1, [r3, r1]
20003416:	4291      	cmp	r1, r2
20003418:	d01c      	beq.n	20003454 <irq_add_tail_to_free_list+0x7c>
2000341a:	2112      	movs	r1, #18
2000341c:	5659      	ldrsb	r1, [r3, r1]
2000341e:	4291      	cmp	r1, r2
20003420:	d022      	beq.n	20003468 <irq_add_tail_to_free_list+0x90>
20003422:	211e      	movs	r1, #30
20003424:	5659      	ldrsb	r1, [r3, r1]
20003426:	4291      	cmp	r1, r2
20003428:	d020      	beq.n	2000346c <irq_add_tail_to_free_list+0x94>
2000342a:	212a      	movs	r1, #42	@ 0x2a
2000342c:	5659      	ldrsb	r1, [r3, r1]
2000342e:	2403      	movs	r4, #3
20003430:	4291      	cmp	r1, r2
20003432:	d010      	beq.n	20003456 <irq_add_tail_to_free_list+0x7e>
20003434:	4b12      	ldr	r3, [pc, #72]	@ (20003480 <irq_add_tail_to_free_list+0xa8>)
20003436:	7819      	ldrb	r1, [r3, #0]
20003438:	701a      	strb	r2, [r3, #0]
2000343a:	7181      	strb	r1, [r0, #6]
2000343c:	f3bf 8f5f 	dmb	sy
20003440:	2200      	movs	r2, #0
20003442:	4b0b      	ldr	r3, [pc, #44]	@ (20003470 <irq_add_tail_to_free_list+0x98>)
20003444:	601a      	str	r2, [r3, #0]
20003446:	f385 8810 	msr	PRIMASK, r5
2000344a:	bd70      	pop	{r4, r5, r6, pc}
2000344c:	68a3      	ldr	r3, [r4, #8]
2000344e:	4c0d      	ldr	r4, [pc, #52]	@ (20003484 <irq_add_tail_to_free_list+0xac>)
20003450:	505c      	str	r4, [r3, r1]
20003452:	e7ef      	b.n	20003434 <irq_add_tail_to_free_list+0x5c>
20003454:	2400      	movs	r4, #0
20003456:	0061      	lsls	r1, r4, #1
20003458:	1909      	adds	r1, r1, r4
2000345a:	0089      	lsls	r1, r1, #2
2000345c:	185b      	adds	r3, r3, r1
2000345e:	21ff      	movs	r1, #255	@ 0xff
20003460:	7199      	strb	r1, [r3, #6]
20003462:	4909      	ldr	r1, [pc, #36]	@ (20003488 <irq_add_tail_to_free_list+0xb0>)
20003464:	8099      	strh	r1, [r3, #4]
20003466:	e7e5      	b.n	20003434 <irq_add_tail_to_free_list+0x5c>
20003468:	2401      	movs	r4, #1
2000346a:	e7f4      	b.n	20003456 <irq_add_tail_to_free_list+0x7e>
2000346c:	2402      	movs	r4, #2
2000346e:	e7f2      	b.n	20003456 <irq_add_tail_to_free_list+0x7e>
20003470:	d0000124 	.word	0xd0000124
20003474:	20006964 	.word	0x20006964
20003478:	0000aaaa 	.word	0x0000aaaa
2000347c:	e000ed00 	.word	0xe000ed00
20003480:	20007193 	.word	0x20007193
20003484:	100001c1 	.word	0x100001c1
20003488:	ffffbd01 	.word	0xffffbd01

2000348c <lock_init>:
2000348c:	4b02      	ldr	r3, [pc, #8]	@ (20003498 <lock_init+0xc>)
2000348e:	18c9      	adds	r1, r1, r3
20003490:	0089      	lsls	r1, r1, #2
20003492:	6001      	str	r1, [r0, #0]
20003494:	4770      	bx	lr
20003496:	46c0      	nop			@ (mov r8, r8)
20003498:	34000040 	.word	0x34000040

2000349c <runtime_init_mutex>:
2000349c:	b570      	push	{r4, r5, r6, lr}
2000349e:	4c11      	ldr	r4, [pc, #68]	@ (200034e4 <runtime_init_mutex+0x48>)
200034a0:	4d11      	ldr	r5, [pc, #68]	@ (200034e8 <runtime_init_mutex+0x4c>)
200034a2:	42ac      	cmp	r4, r5
200034a4:	d20f      	bcs.n	200034c6 <runtime_init_mutex+0x2a>
200034a6:	26ff      	movs	r6, #255	@ 0xff
200034a8:	6823      	ldr	r3, [r4, #0]
200034aa:	2b00      	cmp	r3, #0
200034ac:	d00c      	beq.n	200034c8 <runtime_init_mutex+0x2c>
200034ae:	f7ff fe21 	bl	200030f4 <next_striped_spin_lock_num>
200034b2:	0001      	movs	r1, r0
200034b4:	0020      	movs	r0, r4
200034b6:	f7ff ffe9 	bl	2000348c <lock_init>
200034ba:	80a6      	strh	r6, [r4, #4]
200034bc:	f3bf 8f5f 	dmb	sy
200034c0:	3408      	adds	r4, #8
200034c2:	42ac      	cmp	r4, r5
200034c4:	d3f0      	bcc.n	200034a8 <runtime_init_mutex+0xc>
200034c6:	bd70      	pop	{r4, r5, r6, pc}
200034c8:	f7ff fe14 	bl	200030f4 <next_striped_spin_lock_num>
200034cc:	0001      	movs	r1, r0
200034ce:	0020      	movs	r0, r4
200034d0:	f7ff ffdc 	bl	2000348c <lock_init>
200034d4:	7126      	strb	r6, [r4, #4]
200034d6:	f3bf 8f5f 	dmb	sy
200034da:	3408      	adds	r4, #8
200034dc:	42ac      	cmp	r4, r5
200034de:	d3e3      	bcc.n	200034a8 <runtime_init_mutex+0xc>
200034e0:	e7f1      	b.n	200034c6 <runtime_init_mutex+0x2a>
200034e2:	46c0      	nop			@ (mov r8, r8)
200034e4:	200069f8 	.word	0x200069f8
200034e8:	20006a00 	.word	0x20006a00

200034ec <sleep_until_callback>:
200034ec:	4b0a      	ldr	r3, [pc, #40]	@ (20003518 <sleep_until_callback+0x2c>)
200034ee:	6819      	ldr	r1, [r3, #0]
200034f0:	f3ef 8010 	mrs	r0, PRIMASK
200034f4:	b672      	cpsid	i
200034f6:	680a      	ldr	r2, [r1, #0]
200034f8:	2a00      	cmp	r2, #0
200034fa:	d0fc      	beq.n	200034f6 <sleep_until_callback+0xa>
200034fc:	f3bf 8f5f 	dmb	sy
20003500:	681b      	ldr	r3, [r3, #0]
20003502:	f3bf 8f5f 	dmb	sy
20003506:	2200      	movs	r2, #0
20003508:	601a      	str	r2, [r3, #0]
2000350a:	f380 8810 	msr	PRIMASK, r0
2000350e:	bf40      	sev
20003510:	2000      	movs	r0, #0
20003512:	2100      	movs	r1, #0
20003514:	4770      	bx	lr
20003516:	46c0      	nop			@ (mov r8, r8)
20003518:	2000718c 	.word	0x2000718c

2000351c <alarm_pool_irq_handler>:
2000351c:	b5f0      	push	{r4, r5, r6, r7, lr}
2000351e:	46de      	mov	lr, fp
20003520:	4657      	mov	r7, sl
20003522:	464e      	mov	r6, r9
20003524:	4645      	mov	r5, r8
20003526:	b5e0      	push	{r5, r6, r7, lr}
20003528:	b085      	sub	sp, #20
2000352a:	f3ef 8305 	mrs	r3, IPSR
2000352e:	2203      	movs	r2, #3
20003530:	401a      	ands	r2, r3
20003532:	4bb3      	ldr	r3, [pc, #716]	@ (20003800 <alarm_pool_irq_handler+0x2e4>)
20003534:	0091      	lsls	r1, r2, #2
20003536:	585f      	ldr	r7, [r3, r1]
20003538:	2301      	movs	r3, #1
2000353a:	4093      	lsls	r3, r2
2000353c:	469b      	mov	fp, r3
2000353e:	9202      	str	r2, [sp, #8]
20003540:	465a      	mov	r2, fp
20003542:	4688      	mov	r8, r1
20003544:	4baf      	ldr	r3, [pc, #700]	@ (20003804 <alarm_pool_irq_handler+0x2e8>)
20003546:	601a      	str	r2, [r3, #0]
20003548:	4baf      	ldr	r3, [pc, #700]	@ (20003808 <alarm_pool_irq_handler+0x2ec>)
2000354a:	9303      	str	r3, [sp, #12]
2000354c:	465b      	mov	r3, fp
2000354e:	48af      	ldr	r0, [pc, #700]	@ (2000380c <alarm_pool_irq_handler+0x2f0>)
20003550:	6343      	str	r3, [r0, #52]	@ 0x34
20003552:	2308      	movs	r3, #8
20003554:	5efe      	ldrsh	r6, [r7, r3]
20003556:	2e00      	cmp	r6, #0
20003558:	da37      	bge.n	200035ca <alarm_pool_irq_handler+0xae>
2000355a:	88bb      	ldrh	r3, [r7, #4]
2000355c:	b21b      	sxth	r3, r3
2000355e:	2b00      	cmp	r3, #0
20003560:	db00      	blt.n	20003564 <alarm_pool_irq_handler+0x48>
20003562:	e0a4      	b.n	200036ae <alarm_pool_irq_handler+0x192>
20003564:	79bb      	ldrb	r3, [r7, #6]
20003566:	2b00      	cmp	r3, #0
20003568:	d000      	beq.n	2000356c <alarm_pool_irq_handler+0x50>
2000356a:	e0e5      	b.n	20003738 <alarm_pool_irq_handler+0x21c>
2000356c:	2308      	movs	r3, #8
2000356e:	5ef9      	ldrsh	r1, [r7, r3]
20003570:	2900      	cmp	r1, #0
20003572:	db20      	blt.n	200035b6 <alarm_pool_irq_handler+0x9a>
20003574:	004b      	lsls	r3, r1, #1
20003576:	697a      	ldr	r2, [r7, #20]
20003578:	185b      	adds	r3, r3, r1
2000357a:	00db      	lsls	r3, r3, #3
2000357c:	18d3      	adds	r3, r2, r3
2000357e:	689d      	ldr	r5, [r3, #8]
20003580:	68dc      	ldr	r4, [r3, #12]
20003582:	1c6b      	adds	r3, r5, #1
20003584:	d100      	bne.n	20003588 <alarm_pool_irq_handler+0x6c>
20003586:	e104      	b.n	20003792 <alarm_pool_irq_handler+0x276>
20003588:	48a0      	ldr	r0, [pc, #640]	@ (2000380c <alarm_pool_irq_handler+0x2f0>)
2000358a:	0001      	movs	r1, r0
2000358c:	4441      	add	r1, r8
2000358e:	6a82      	ldr	r2, [r0, #40]	@ 0x28
20003590:	690b      	ldr	r3, [r1, #16]
20003592:	1aae      	subs	r6, r5, r2
20003594:	1a9b      	subs	r3, r3, r2
20003596:	429e      	cmp	r6, r3
20003598:	d315      	bcc.n	200035c6 <alarm_pool_irq_handler+0xaa>
2000359a:	2301      	movs	r3, #1
2000359c:	6a02      	ldr	r2, [r0, #32]
2000359e:	9802      	ldr	r0, [sp, #8]
200035a0:	4083      	lsls	r3, r0
200035a2:	421a      	tst	r2, r3
200035a4:	d00f      	beq.n	200035c6 <alarm_pool_irq_handler+0xaa>
200035a6:	4899      	ldr	r0, [pc, #612]	@ (2000380c <alarm_pool_irq_handler+0x2f0>)
200035a8:	f000 fb50 	bl	20003c4c <timer_time_us_64>
200035ac:	428c      	cmp	r4, r1
200035ae:	dc02      	bgt.n	200035b6 <alarm_pool_irq_handler+0x9a>
200035b0:	d1cc      	bne.n	2000354c <alarm_pool_irq_handler+0x30>
200035b2:	4285      	cmp	r5, r0
200035b4:	d9ca      	bls.n	2000354c <alarm_pool_irq_handler+0x30>
200035b6:	bf40      	sev
200035b8:	b005      	add	sp, #20
200035ba:	bcf0      	pop	{r4, r5, r6, r7}
200035bc:	46bb      	mov	fp, r7
200035be:	46b2      	mov	sl, r6
200035c0:	46a9      	mov	r9, r5
200035c2:	46a0      	mov	r8, r4
200035c4:	bdf0      	pop	{r4, r5, r6, r7, pc}
200035c6:	610d      	str	r5, [r1, #16]
200035c8:	e7ed      	b.n	200035a6 <alarm_pool_irq_handler+0x8a>
200035ca:	697a      	ldr	r2, [r7, #20]
200035cc:	0073      	lsls	r3, r6, #1
200035ce:	4691      	mov	r9, r2
200035d0:	199b      	adds	r3, r3, r6
200035d2:	00db      	lsls	r3, r3, #3
200035d4:	4499      	add	r9, r3
200035d6:	464b      	mov	r3, r9
200035d8:	689c      	ldr	r4, [r3, #8]
200035da:	68dd      	ldr	r5, [r3, #12]
200035dc:	f000 fb36 	bl	20003c4c <timer_time_us_64>
200035e0:	428d      	cmp	r5, r1
200035e2:	dcba      	bgt.n	2000355a <alarm_pool_irq_handler+0x3e>
200035e4:	d100      	bne.n	200035e8 <alarm_pool_irq_handler+0xcc>
200035e6:	e0f6      	b.n	200037d6 <alarm_pool_irq_handler+0x2ba>
200035e8:	2d00      	cmp	r5, #0
200035ea:	da00      	bge.n	200035ee <alarm_pool_irq_handler+0xd2>
200035ec:	e0db      	b.n	200037a6 <alarm_pool_irq_handler+0x28a>
200035ee:	464a      	mov	r2, r9
200035f0:	464b      	mov	r3, r9
200035f2:	6952      	ldr	r2, [r2, #20]
200035f4:	691b      	ldr	r3, [r3, #16]
200035f6:	4692      	mov	sl, r2
200035f8:	9a03      	ldr	r2, [sp, #12]
200035fa:	4293      	cmp	r3, r2
200035fc:	d100      	bne.n	20003600 <alarm_pool_irq_handler+0xe4>
200035fe:	e0cc      	b.n	2000379a <alarm_pool_irq_handler+0x27e>
20003600:	464a      	mov	r2, r9
20003602:	2108      	movs	r1, #8
20003604:	5e78      	ldrsh	r0, [r7, r1]
20003606:	8852      	ldrh	r2, [r2, #2]
20003608:	0400      	lsls	r0, r0, #16
2000360a:	4651      	mov	r1, sl
2000360c:	4310      	orrs	r0, r2
2000360e:	4798      	blx	r3
20003610:	9000      	str	r0, [sp, #0]
20003612:	9101      	str	r1, [sp, #4]
20003614:	9900      	ldr	r1, [sp, #0]
20003616:	9a01      	ldr	r2, [sp, #4]
20003618:	000b      	movs	r3, r1
2000361a:	4313      	orrs	r3, r2
2000361c:	d100      	bne.n	20003620 <alarm_pool_irq_handler+0x104>
2000361e:	e0c2      	b.n	200037a6 <alarm_pool_irq_handler+0x28a>
20003620:	0013      	movs	r3, r2
20003622:	000a      	movs	r2, r1
20003624:	2b00      	cmp	r3, #0
20003626:	db00      	blt.n	2000362a <alarm_pool_irq_handler+0x10e>
20003628:	e0d9      	b.n	200037de <alarm_pool_irq_handler+0x2c2>
2000362a:	0020      	movs	r0, r4
2000362c:	0029      	movs	r1, r5
2000362e:	1a80      	subs	r0, r0, r2
20003630:	4199      	sbcs	r1, r3
20003632:	464b      	mov	r3, r9
20003634:	6098      	str	r0, [r3, #8]
20003636:	60d9      	str	r1, [r3, #12]
20003638:	2200      	movs	r2, #0
2000363a:	5e9b      	ldrsh	r3, [r3, r2]
2000363c:	2b00      	cmp	r3, #0
2000363e:	da00      	bge.n	20003642 <alarm_pool_irq_handler+0x126>
20003640:	e78b      	b.n	2000355a <alarm_pool_irq_handler+0x3e>
20003642:	005d      	lsls	r5, r3, #1
20003644:	697c      	ldr	r4, [r7, #20]
20003646:	18ea      	adds	r2, r5, r3
20003648:	00d2      	lsls	r2, r2, #3
2000364a:	18a2      	adds	r2, r4, r2
2000364c:	9400      	str	r4, [sp, #0]
2000364e:	6894      	ldr	r4, [r2, #8]
20003650:	68d2      	ldr	r2, [r2, #12]
20003652:	46a2      	mov	sl, r4
20003654:	428a      	cmp	r2, r1
20003656:	dd00      	ble.n	2000365a <alarm_pool_irq_handler+0x13e>
20003658:	e77f      	b.n	2000355a <alarm_pool_irq_handler+0x3e>
2000365a:	d102      	bne.n	20003662 <alarm_pool_irq_handler+0x146>
2000365c:	4284      	cmp	r4, r0
2000365e:	d900      	bls.n	20003662 <alarm_pool_irq_handler+0x146>
20003660:	e77b      	b.n	2000355a <alarm_pool_irq_handler+0x3e>
20003662:	2408      	movs	r4, #8
20003664:	46a4      	mov	ip, r4
20003666:	813b      	strh	r3, [r7, #8]
20003668:	44bc      	add	ip, r7
2000366a:	9c00      	ldr	r4, [sp, #0]
2000366c:	9700      	str	r7, [sp, #0]
2000366e:	002f      	movs	r7, r5
20003670:	4665      	mov	r5, ip
20003672:	46b4      	mov	ip, r6
20003674:	003e      	movs	r6, r7
20003676:	e006      	b.n	20003686 <alarm_pool_irq_handler+0x16a>
20003678:	005e      	lsls	r6, r3, #1
2000367a:	18f2      	adds	r2, r6, r3
2000367c:	00d2      	lsls	r2, r2, #3
2000367e:	18a2      	adds	r2, r4, r2
20003680:	6897      	ldr	r7, [r2, #8]
20003682:	68d2      	ldr	r2, [r2, #12]
20003684:	46ba      	mov	sl, r7
20003686:	428a      	cmp	r2, r1
20003688:	dc07      	bgt.n	2000369a <alarm_pool_irq_handler+0x17e>
2000368a:	d100      	bne.n	2000368e <alarm_pool_irq_handler+0x172>
2000368c:	e0b4      	b.n	200037f8 <alarm_pool_irq_handler+0x2dc>
2000368e:	18f3      	adds	r3, r6, r3
20003690:	00db      	lsls	r3, r3, #3
20003692:	18e5      	adds	r5, r4, r3
20003694:	5ee3      	ldrsh	r3, [r4, r3]
20003696:	2b00      	cmp	r3, #0
20003698:	daee      	bge.n	20003678 <alarm_pool_irq_handler+0x15c>
2000369a:	4666      	mov	r6, ip
2000369c:	464a      	mov	r2, r9
2000369e:	9f00      	ldr	r7, [sp, #0]
200036a0:	8013      	strh	r3, [r2, #0]
200036a2:	802e      	strh	r6, [r5, #0]
200036a4:	88bb      	ldrh	r3, [r7, #4]
200036a6:	b21b      	sxth	r3, r3
200036a8:	2b00      	cmp	r3, #0
200036aa:	da00      	bge.n	200036ae <alarm_pool_irq_handler+0x192>
200036ac:	e75a      	b.n	20003564 <alarm_pool_irq_handler+0x48>
200036ae:	693a      	ldr	r2, [r7, #16]
200036b0:	f3ef 8110 	mrs	r1, PRIMASK
200036b4:	b672      	cpsid	i
200036b6:	6813      	ldr	r3, [r2, #0]
200036b8:	2b00      	cmp	r3, #0
200036ba:	d0fc      	beq.n	200036b6 <alarm_pool_irq_handler+0x19a>
200036bc:	f3bf 8f5f 	dmb	sy
200036c0:	2301      	movs	r3, #1
200036c2:	88be      	ldrh	r6, [r7, #4]
200036c4:	425b      	negs	r3, r3
200036c6:	80bb      	strh	r3, [r7, #4]
200036c8:	b236      	sxth	r6, r6
200036ca:	693b      	ldr	r3, [r7, #16]
200036cc:	f3bf 8f5f 	dmb	sy
200036d0:	2200      	movs	r2, #0
200036d2:	601a      	str	r2, [r3, #0]
200036d4:	f381 8810 	msr	PRIMASK, r1
200036d8:	2e00      	cmp	r6, #0
200036da:	da00      	bge.n	200036de <alarm_pool_irq_handler+0x1c2>
200036dc:	e742      	b.n	20003564 <alarm_pool_irq_handler+0x48>
200036de:	003b      	movs	r3, r7
200036e0:	3308      	adds	r3, #8
200036e2:	003a      	movs	r2, r7
200036e4:	4699      	mov	r9, r3
200036e6:	697d      	ldr	r5, [r7, #20]
200036e8:	0073      	lsls	r3, r6, #1
200036ea:	199b      	adds	r3, r3, r6
200036ec:	2408      	movs	r4, #8
200036ee:	5f11      	ldrsh	r1, [r2, r4]
200036f0:	00db      	lsls	r3, r3, #3
200036f2:	4648      	mov	r0, r9
200036f4:	18eb      	adds	r3, r5, r3
200036f6:	2900      	cmp	r1, #0
200036f8:	db13      	blt.n	20003722 <alarm_pool_irq_handler+0x206>
200036fa:	689c      	ldr	r4, [r3, #8]
200036fc:	9300      	str	r3, [sp, #0]
200036fe:	46a4      	mov	ip, r4
20003700:	68dc      	ldr	r4, [r3, #12]
20003702:	e006      	b.n	20003712 <alarm_pool_irq_handler+0x1f6>
20003704:	42a3      	cmp	r3, r4
20003706:	d040      	beq.n	2000378a <alarm_pool_irq_handler+0x26e>
20003708:	2300      	movs	r3, #0
2000370a:	5ef9      	ldrsh	r1, [r7, r3]
2000370c:	0038      	movs	r0, r7
2000370e:	2900      	cmp	r1, #0
20003710:	db06      	blt.n	20003720 <alarm_pool_irq_handler+0x204>
20003712:	004f      	lsls	r7, r1, #1
20003714:	187f      	adds	r7, r7, r1
20003716:	00ff      	lsls	r7, r7, #3
20003718:	19ef      	adds	r7, r5, r7
2000371a:	68fb      	ldr	r3, [r7, #12]
2000371c:	42a3      	cmp	r3, r4
2000371e:	ddf1      	ble.n	20003704 <alarm_pool_irq_handler+0x1e8>
20003720:	9b00      	ldr	r3, [sp, #0]
20003722:	8006      	strh	r6, [r0, #0]
20003724:	2000      	movs	r0, #0
20003726:	5e1e      	ldrsh	r6, [r3, r0]
20003728:	8019      	strh	r1, [r3, #0]
2000372a:	2e00      	cmp	r6, #0
2000372c:	dadc      	bge.n	200036e8 <alarm_pool_irq_handler+0x1cc>
2000372e:	0017      	movs	r7, r2
20003730:	79bb      	ldrb	r3, [r7, #6]
20003732:	2b00      	cmp	r3, #0
20003734:	d100      	bne.n	20003738 <alarm_pool_irq_handler+0x21c>
20003736:	e719      	b.n	2000356c <alarm_pool_irq_handler+0x50>
20003738:	2300      	movs	r3, #0
2000373a:	71bb      	strb	r3, [r7, #6]
2000373c:	2308      	movs	r3, #8
2000373e:	5ef9      	ldrsh	r1, [r7, r3]
20003740:	1c4b      	adds	r3, r1, #1
20003742:	d100      	bne.n	20003746 <alarm_pool_irq_handler+0x22a>
20003744:	e737      	b.n	200035b6 <alarm_pool_irq_handler+0x9a>
20003746:	003d      	movs	r5, r7
20003748:	3508      	adds	r5, #8
2000374a:	46ac      	mov	ip, r5
2000374c:	697c      	ldr	r4, [r7, #20]
2000374e:	e003      	b.n	20003758 <alarm_pool_irq_handler+0x23c>
20003750:	4684      	mov	ip, r0
20003752:	1c4b      	adds	r3, r1, #1
20003754:	d100      	bne.n	20003758 <alarm_pool_irq_handler+0x23c>
20003756:	e709      	b.n	2000356c <alarm_pool_irq_handler+0x50>
20003758:	004b      	lsls	r3, r1, #1
2000375a:	185b      	adds	r3, r3, r1
2000375c:	00db      	lsls	r3, r3, #3
2000375e:	18e0      	adds	r0, r4, r3
20003760:	000a      	movs	r2, r1
20003762:	5ee1      	ldrsh	r1, [r4, r3]
20003764:	8843      	ldrh	r3, [r0, #2]
20003766:	b21b      	sxth	r3, r3
20003768:	2b00      	cmp	r3, #0
2000376a:	daf1      	bge.n	20003750 <alarm_pool_irq_handler+0x234>
2000376c:	2501      	movs	r5, #1
2000376e:	426d      	negs	r5, r5
20003770:	17ee      	asrs	r6, r5, #31
20003772:	6085      	str	r5, [r0, #8]
20003774:	60c6      	str	r6, [r0, #12]
20003776:	2508      	movs	r5, #8
20003778:	5f7b      	ldrsh	r3, [r7, r5]
2000377a:	4293      	cmp	r3, r2
2000377c:	d0e9      	beq.n	20003752 <alarm_pool_irq_handler+0x236>
2000377e:	4663      	mov	r3, ip
20003780:	8019      	strh	r1, [r3, #0]
20003782:	893b      	ldrh	r3, [r7, #8]
20003784:	8003      	strh	r3, [r0, #0]
20003786:	813a      	strh	r2, [r7, #8]
20003788:	e7e3      	b.n	20003752 <alarm_pool_irq_handler+0x236>
2000378a:	68bb      	ldr	r3, [r7, #8]
2000378c:	4563      	cmp	r3, ip
2000378e:	d9bb      	bls.n	20003708 <alarm_pool_irq_handler+0x1ec>
20003790:	e7c6      	b.n	20003720 <alarm_pool_irq_handler+0x204>
20003792:	1c63      	adds	r3, r4, #1
20003794:	d000      	beq.n	20003798 <alarm_pool_irq_handler+0x27c>
20003796:	e6f7      	b.n	20003588 <alarm_pool_irq_handler+0x6c>
20003798:	e705      	b.n	200035a6 <alarm_pool_irq_handler+0x8a>
2000379a:	4653      	mov	r3, sl
2000379c:	4650      	mov	r0, sl
2000379e:	691b      	ldr	r3, [r3, #16]
200037a0:	4798      	blx	r3
200037a2:	2800      	cmp	r0, #0
200037a4:	d123      	bne.n	200037ee <alarm_pool_irq_handler+0x2d2>
200037a6:	464b      	mov	r3, r9
200037a8:	881b      	ldrh	r3, [r3, #0]
200037aa:	693a      	ldr	r2, [r7, #16]
200037ac:	813b      	strh	r3, [r7, #8]
200037ae:	f3ef 8310 	mrs	r3, PRIMASK
200037b2:	b672      	cpsid	i
200037b4:	6811      	ldr	r1, [r2, #0]
200037b6:	2900      	cmp	r1, #0
200037b8:	d0fc      	beq.n	200037b4 <alarm_pool_irq_handler+0x298>
200037ba:	f3bf 8f5f 	dmb	sy
200037be:	4649      	mov	r1, r9
200037c0:	887a      	ldrh	r2, [r7, #2]
200037c2:	800a      	strh	r2, [r1, #0]
200037c4:	693a      	ldr	r2, [r7, #16]
200037c6:	807e      	strh	r6, [r7, #2]
200037c8:	f3bf 8f5f 	dmb	sy
200037cc:	2100      	movs	r1, #0
200037ce:	6011      	str	r1, [r2, #0]
200037d0:	f383 8810 	msr	PRIMASK, r3
200037d4:	e6c1      	b.n	2000355a <alarm_pool_irq_handler+0x3e>
200037d6:	4284      	cmp	r4, r0
200037d8:	d800      	bhi.n	200037dc <alarm_pool_irq_handler+0x2c0>
200037da:	e705      	b.n	200035e8 <alarm_pool_irq_handler+0xcc>
200037dc:	e6bd      	b.n	2000355a <alarm_pool_irq_handler+0x3e>
200037de:	480b      	ldr	r0, [pc, #44]	@ (2000380c <alarm_pool_irq_handler+0x2f0>)
200037e0:	f000 fa34 	bl	20003c4c <timer_time_us_64>
200037e4:	9b00      	ldr	r3, [sp, #0]
200037e6:	9c01      	ldr	r4, [sp, #4]
200037e8:	18c0      	adds	r0, r0, r3
200037ea:	4161      	adcs	r1, r4
200037ec:	e721      	b.n	20003632 <alarm_pool_irq_handler+0x116>
200037ee:	4653      	mov	r3, sl
200037f0:	cb0c      	ldmia	r3, {r2, r3}
200037f2:	9200      	str	r2, [sp, #0]
200037f4:	9301      	str	r3, [sp, #4]
200037f6:	e70d      	b.n	20003614 <alarm_pool_irq_handler+0xf8>
200037f8:	4582      	cmp	sl, r0
200037fa:	d800      	bhi.n	200037fe <alarm_pool_irq_handler+0x2e2>
200037fc:	e747      	b.n	2000368e <alarm_pool_irq_handler+0x172>
200037fe:	e74c      	b.n	2000369a <alarm_pool_irq_handler+0x17e>
20003800:	20007170 	.word	0x20007170
20003804:	4005703c 	.word	0x4005703c
20003808:	2000351d 	.word	0x2000351d
2000380c:	40054000 	.word	0x40054000

20003810 <runtime_init_default_alarm_pool>:
20003810:	b570      	push	{r4, r5, r6, lr}
20003812:	4c2d      	ldr	r4, [pc, #180]	@ (200038c8 <runtime_init_default_alarm_pool+0xb8>)
20003814:	6925      	ldr	r5, [r4, #16]
20003816:	2d00      	cmp	r5, #0
20003818:	d004      	beq.n	20003824 <runtime_init_default_alarm_pool+0x14>
2000381a:	210a      	movs	r1, #10
2000381c:	482b      	ldr	r0, [pc, #172]	@ (200038cc <runtime_init_default_alarm_pool+0xbc>)
2000381e:	f7ff fe35 	bl	2000348c <lock_init>
20003822:	bd70      	pop	{r4, r5, r6, pc}
20003824:	4e2a      	ldr	r6, [pc, #168]	@ (200038d0 <runtime_init_default_alarm_pool+0xc0>)
20003826:	2103      	movs	r1, #3
20003828:	4829      	ldr	r0, [pc, #164]	@ (200038d0 <runtime_init_default_alarm_pool+0xc0>)
2000382a:	f000 fa05 	bl	20003c38 <timer_hardware_alarm_claim>
2000382e:	60e6      	str	r6, [r4, #12]
20003830:	f7ff fc60 	bl	200030f4 <next_striped_spin_lock_num>
20003834:	4b27      	ldr	r3, [pc, #156]	@ (200038d4 <runtime_init_default_alarm_pool+0xc4>)
20003836:	2203      	movs	r2, #3
20003838:	18c0      	adds	r0, r0, r3
2000383a:	23d0      	movs	r3, #208	@ 0xd0
2000383c:	7022      	strb	r2, [r4, #0]
2000383e:	061b      	lsls	r3, r3, #24
20003840:	681b      	ldr	r3, [r3, #0]
20003842:	2101      	movs	r1, #1
20003844:	7063      	strb	r3, [r4, #1]
20003846:	4b24      	ldr	r3, [pc, #144]	@ (200038d8 <runtime_init_default_alarm_pool+0xc8>)
20003848:	0080      	lsls	r0, r0, #2
2000384a:	60a3      	str	r3, [r4, #8]
2000384c:	230f      	movs	r3, #15
2000384e:	6120      	str	r0, [r4, #16]
20003850:	2002      	movs	r0, #2
20003852:	8063      	strh	r3, [r4, #2]
20003854:	6963      	ldr	r3, [r4, #20]
20003856:	4249      	negs	r1, r1
20003858:	80a1      	strh	r1, [r4, #4]
2000385a:	8019      	strh	r1, [r3, #0]
2000385c:	3102      	adds	r1, #2
2000385e:	8619      	strh	r1, [r3, #48]	@ 0x30
20003860:	3147      	adds	r1, #71	@ 0x47
20003862:	831d      	strh	r5, [r3, #24]
20003864:	5258      	strh	r0, [r3, r1]
20003866:	3118      	adds	r1, #24
20003868:	525a      	strh	r2, [r3, r1]
2000386a:	3275      	adds	r2, #117	@ 0x75
2000386c:	395c      	subs	r1, #92	@ 0x5c
2000386e:	5299      	strh	r1, [r3, r2]
20003870:	3218      	adds	r2, #24
20003872:	3101      	adds	r1, #1
20003874:	5299      	strh	r1, [r3, r2]
20003876:	3218      	adds	r2, #24
20003878:	3101      	adds	r1, #1
2000387a:	5299      	strh	r1, [r3, r2]
2000387c:	3218      	adds	r2, #24
2000387e:	3101      	adds	r1, #1
20003880:	5299      	strh	r1, [r3, r2]
20003882:	3508      	adds	r5, #8
20003884:	3218      	adds	r2, #24
20003886:	529d      	strh	r5, [r3, r2]
20003888:	3102      	adds	r1, #2
2000388a:	3218      	adds	r2, #24
2000388c:	5299      	strh	r1, [r3, r2]
2000388e:	3218      	adds	r2, #24
20003890:	3101      	adds	r1, #1
20003892:	5299      	strh	r1, [r3, r2]
20003894:	3218      	adds	r2, #24
20003896:	3101      	adds	r1, #1
20003898:	5299      	strh	r1, [r3, r2]
2000389a:	3218      	adds	r2, #24
2000389c:	3101      	adds	r1, #1
2000389e:	5299      	strh	r1, [r3, r2]
200038a0:	3218      	adds	r2, #24
200038a2:	3101      	adds	r1, #1
200038a4:	5299      	strh	r1, [r3, r2]
200038a6:	3218      	adds	r2, #24
200038a8:	3101      	adds	r1, #1
200038aa:	5299      	strh	r1, [r3, r2]
200038ac:	4b0b      	ldr	r3, [pc, #44]	@ (200038dc <runtime_init_default_alarm_pool+0xcc>)
200038ae:	490c      	ldr	r1, [pc, #48]	@ (200038e0 <runtime_init_default_alarm_pool+0xd0>)
200038b0:	60dc      	str	r4, [r3, #12]
200038b2:	3001      	adds	r0, #1
200038b4:	6235      	str	r5, [r6, #32]
200038b6:	f7ff fc6d 	bl	20003194 <irq_set_exclusive_handler>
200038ba:	2101      	movs	r1, #1
200038bc:	2003      	movs	r0, #3
200038be:	f7ff fc57 	bl	20003170 <irq_set_enabled>
200038c2:	4b08      	ldr	r3, [pc, #32]	@ (200038e4 <runtime_init_default_alarm_pool+0xd4>)
200038c4:	601d      	str	r5, [r3, #0]
200038c6:	e7a8      	b.n	2000381a <runtime_init_default_alarm_pool+0xa>
200038c8:	200069ac 	.word	0x200069ac
200038cc:	2000718c 	.word	0x2000718c
200038d0:	40054000 	.word	0x40054000
200038d4:	34000040 	.word	0x34000040
200038d8:	0010ffff 	.word	0x0010ffff
200038dc:	20007170 	.word	0x20007170
200038e0:	2000351d 	.word	0x2000351d
200038e4:	40056038 	.word	0x40056038

200038e8 <alarm_pool_add_alarm_at_force_in_context>:
200038e8:	b570      	push	{r4, r5, r6, lr}
200038ea:	b082      	sub	sp, #8
200038ec:	9200      	str	r2, [sp, #0]
200038ee:	9301      	str	r3, [sp, #4]
200038f0:	0001      	movs	r1, r0
200038f2:	6902      	ldr	r2, [r0, #16]
200038f4:	f3ef 8410 	mrs	r4, PRIMASK
200038f8:	b672      	cpsid	i
200038fa:	6813      	ldr	r3, [r2, #0]
200038fc:	2b00      	cmp	r3, #0
200038fe:	d0fc      	beq.n	200038fa <alarm_pool_add_alarm_at_force_in_context+0x12>
20003900:	f3bf 8f5f 	dmb	sy
20003904:	2302      	movs	r3, #2
20003906:	5ec8      	ldrsh	r0, [r1, r3]
20003908:	690d      	ldr	r5, [r1, #16]
2000390a:	2800      	cmp	r0, #0
2000390c:	db3f      	blt.n	2000398e <alarm_pool_add_alarm_at_force_in_context+0xa6>
2000390e:	694a      	ldr	r2, [r1, #20]
20003910:	0043      	lsls	r3, r0, #1
20003912:	0016      	movs	r6, r2
20003914:	181b      	adds	r3, r3, r0
20003916:	00db      	lsls	r3, r3, #3
20003918:	18d2      	adds	r2, r2, r3
2000391a:	5af3      	ldrh	r3, [r6, r3]
2000391c:	804b      	strh	r3, [r1, #2]
2000391e:	f3bf 8f5f 	dmb	sy
20003922:	2300      	movs	r3, #0
20003924:	602b      	str	r3, [r5, #0]
20003926:	f384 8810 	msr	PRIMASK, r4
2000392a:	9b06      	ldr	r3, [sp, #24]
2000392c:	6113      	str	r3, [r2, #16]
2000392e:	9b07      	ldr	r3, [sp, #28]
20003930:	6153      	str	r3, [r2, #20]
20003932:	9b00      	ldr	r3, [sp, #0]
20003934:	9c01      	ldr	r4, [sp, #4]
20003936:	6093      	str	r3, [r2, #8]
20003938:	60d4      	str	r4, [r2, #12]
2000393a:	8853      	ldrh	r3, [r2, #2]
2000393c:	3301      	adds	r3, #1
2000393e:	045b      	lsls	r3, r3, #17
20003940:	0c5b      	lsrs	r3, r3, #17
20003942:	1c1d      	adds	r5, r3, #0
20003944:	2b00      	cmp	r3, #0
20003946:	d020      	beq.n	2000398a <alarm_pool_add_alarm_at_force_in_context+0xa2>
20003948:	b2ac      	uxth	r4, r5
2000394a:	0403      	lsls	r3, r0, #16
2000394c:	8055      	strh	r5, [r2, #2]
2000394e:	4323      	orrs	r3, r4
20003950:	690d      	ldr	r5, [r1, #16]
20003952:	f3ef 8c10 	mrs	ip, PRIMASK
20003956:	b672      	cpsid	i
20003958:	682c      	ldr	r4, [r5, #0]
2000395a:	2c00      	cmp	r4, #0
2000395c:	d0fc      	beq.n	20003958 <alarm_pool_add_alarm_at_force_in_context+0x70>
2000395e:	f3bf 8f5f 	dmb	sy
20003962:	888c      	ldrh	r4, [r1, #4]
20003964:	8014      	strh	r4, [r2, #0]
20003966:	8088      	strh	r0, [r1, #4]
20003968:	690a      	ldr	r2, [r1, #16]
2000396a:	f3bf 8f5f 	dmb	sy
2000396e:	2000      	movs	r0, #0
20003970:	6010      	str	r0, [r2, #0]
20003972:	f38c 8810 	msr	PRIMASK, ip
20003976:	780a      	ldrb	r2, [r1, #0]
20003978:	3001      	adds	r0, #1
2000397a:	4090      	lsls	r0, r2
2000397c:	68ca      	ldr	r2, [r1, #12]
2000397e:	4908      	ldr	r1, [pc, #32]	@ (200039a0 <alarm_pool_add_alarm_at_force_in_context+0xb8>)
20003980:	1852      	adds	r2, r2, r1
20003982:	6010      	str	r0, [r2, #0]
20003984:	0018      	movs	r0, r3
20003986:	b002      	add	sp, #8
20003988:	bd70      	pop	{r4, r5, r6, pc}
2000398a:	2501      	movs	r5, #1
2000398c:	e7dc      	b.n	20003948 <alarm_pool_add_alarm_at_force_in_context+0x60>
2000398e:	f3bf 8f5f 	dmb	sy
20003992:	2300      	movs	r3, #0
20003994:	602b      	str	r3, [r5, #0]
20003996:	f384 8810 	msr	PRIMASK, r4
2000399a:	3b01      	subs	r3, #1
2000399c:	e7f2      	b.n	20003984 <alarm_pool_add_alarm_at_force_in_context+0x9c>
2000399e:	46c0      	nop			@ (mov r8, r8)
200039a0:	0000203c 	.word	0x0000203c

200039a4 <alarm_pool_cancel_alarm>:
200039a4:	b510      	push	{r4, lr}
200039a6:	8943      	ldrh	r3, [r0, #10]
200039a8:	140a      	asrs	r2, r1, #16
200039aa:	4293      	cmp	r3, r2
200039ac:	dd1a      	ble.n	200039e4 <alarm_pool_cancel_alarm+0x40>
200039ae:	0053      	lsls	r3, r2, #1
200039b0:	189b      	adds	r3, r3, r2
200039b2:	6942      	ldr	r2, [r0, #20]
200039b4:	00db      	lsls	r3, r3, #3
200039b6:	18d3      	adds	r3, r2, r3
200039b8:	6904      	ldr	r4, [r0, #16]
200039ba:	f3ef 8c10 	mrs	ip, PRIMASK
200039be:	b672      	cpsid	i
200039c0:	6822      	ldr	r2, [r4, #0]
200039c2:	2a00      	cmp	r2, #0
200039c4:	d0fc      	beq.n	200039c0 <alarm_pool_cancel_alarm+0x1c>
200039c6:	f3bf 8f5f 	dmb	sy
200039ca:	885a      	ldrh	r2, [r3, #2]
200039cc:	0409      	lsls	r1, r1, #16
200039ce:	b294      	uxth	r4, r2
200039d0:	0c09      	lsrs	r1, r1, #16
200039d2:	428a      	cmp	r2, r1
200039d4:	d008      	beq.n	200039e8 <alarm_pool_cancel_alarm+0x44>
200039d6:	6903      	ldr	r3, [r0, #16]
200039d8:	f3bf 8f5f 	dmb	sy
200039dc:	2200      	movs	r2, #0
200039de:	601a      	str	r2, [r3, #0]
200039e0:	f38c 8810 	msr	PRIMASK, ip
200039e4:	2000      	movs	r0, #0
200039e6:	bd10      	pop	{r4, pc}
200039e8:	4a09      	ldr	r2, [pc, #36]	@ (20003a10 <alarm_pool_cancel_alarm+0x6c>)
200039ea:	4322      	orrs	r2, r4
200039ec:	805a      	strh	r2, [r3, #2]
200039ee:	2301      	movs	r3, #1
200039f0:	6902      	ldr	r2, [r0, #16]
200039f2:	7183      	strb	r3, [r0, #6]
200039f4:	f3bf 8f5f 	dmb	sy
200039f8:	2100      	movs	r1, #0
200039fa:	6011      	str	r1, [r2, #0]
200039fc:	f38c 8810 	msr	PRIMASK, ip
20003a00:	7802      	ldrb	r2, [r0, #0]
20003a02:	4904      	ldr	r1, [pc, #16]	@ (20003a14 <alarm_pool_cancel_alarm+0x70>)
20003a04:	4093      	lsls	r3, r2
20003a06:	68c2      	ldr	r2, [r0, #12]
20003a08:	2001      	movs	r0, #1
20003a0a:	1852      	adds	r2, r2, r1
20003a0c:	6013      	str	r3, [r2, #0]
20003a0e:	e7ea      	b.n	200039e6 <alarm_pool_cancel_alarm+0x42>
20003a10:	ffff8000 	.word	0xffff8000
20003a14:	0000203c 	.word	0x0000203c

20003a18 <sleep_us>:
20003a18:	b5f0      	push	{r4, r5, r6, r7, lr}
20003a1a:	46c6      	mov	lr, r8
20003a1c:	b500      	push	{lr}
20003a1e:	b082      	sub	sp, #8
20003a20:	0004      	movs	r4, r0
20003a22:	000d      	movs	r5, r1
20003a24:	f000 f91a 	bl	20003c5c <time_us_64>
20003a28:	1824      	adds	r4, r4, r0
20003a2a:	414d      	adcs	r5, r1
20003a2c:	2d00      	cmp	r5, #0
20003a2e:	da02      	bge.n	20003a36 <sleep_us+0x1e>
20003a30:	2401      	movs	r4, #1
20003a32:	4d2f      	ldr	r5, [pc, #188]	@ (20003af0 <sleep_us+0xd8>)
20003a34:	4264      	negs	r4, r4
20003a36:	2606      	movs	r6, #6
20003a38:	4276      	negs	r6, r6
20003a3a:	17f7      	asrs	r7, r6, #31
20003a3c:	1936      	adds	r6, r6, r4
20003a3e:	416f      	adcs	r7, r5
20003a40:	42af      	cmp	r7, r5
20003a42:	d814      	bhi.n	20003a6e <sleep_us+0x56>
20003a44:	d011      	beq.n	20003a6a <sleep_us+0x52>
20003a46:	f000 f909 	bl	20003c5c <time_us_64>
20003a4a:	0032      	movs	r2, r6
20003a4c:	003b      	movs	r3, r7
20003a4e:	1a12      	subs	r2, r2, r0
20003a50:	418b      	sbcs	r3, r1
20003a52:	2b00      	cmp	r3, #0
20003a54:	dc15      	bgt.n	20003a82 <sleep_us+0x6a>
20003a56:	2b00      	cmp	r3, #0
20003a58:	d046      	beq.n	20003ae8 <sleep_us+0xd0>
20003a5a:	0020      	movs	r0, r4
20003a5c:	0029      	movs	r1, r5
20003a5e:	f000 f907 	bl	20003c70 <busy_wait_until>
20003a62:	b002      	add	sp, #8
20003a64:	bc80      	pop	{r7}
20003a66:	46b8      	mov	r8, r7
20003a68:	bdf0      	pop	{r4, r5, r6, r7, pc}
20003a6a:	42a6      	cmp	r6, r4
20003a6c:	d9eb      	bls.n	20003a46 <sleep_us+0x2e>
20003a6e:	2600      	movs	r6, #0
20003a70:	2700      	movs	r7, #0
20003a72:	f000 f8f3 	bl	20003c5c <time_us_64>
20003a76:	0032      	movs	r2, r6
20003a78:	003b      	movs	r3, r7
20003a7a:	1a12      	subs	r2, r2, r0
20003a7c:	418b      	sbcs	r3, r1
20003a7e:	2b00      	cmp	r3, #0
20003a80:	dde9      	ble.n	20003a56 <sleep_us+0x3e>
20003a82:	f000 f8eb 	bl	20003c5c <time_us_64>
20003a86:	0032      	movs	r2, r6
20003a88:	003b      	movs	r3, r7
20003a8a:	1a12      	subs	r2, r2, r0
20003a8c:	418b      	sbcs	r3, r1
20003a8e:	2b00      	cmp	r3, #0
20003a90:	db0a      	blt.n	20003aa8 <sleep_us+0x90>
20003a92:	2300      	movs	r3, #0
20003a94:	9301      	str	r3, [sp, #4]
20003a96:	4b17      	ldr	r3, [pc, #92]	@ (20003af4 <sleep_us+0xdc>)
20003a98:	0032      	movs	r2, r6
20003a9a:	9300      	str	r3, [sp, #0]
20003a9c:	4816      	ldr	r0, [pc, #88]	@ (20003af8 <sleep_us+0xe0>)
20003a9e:	003b      	movs	r3, r7
20003aa0:	f7ff ff22 	bl	200038e8 <alarm_pool_add_alarm_at_force_in_context>
20003aa4:	3001      	adds	r0, #1
20003aa6:	d0d8      	beq.n	20003a5a <sleep_us+0x42>
20003aa8:	2300      	movs	r3, #0
20003aaa:	0039      	movs	r1, r7
20003aac:	46b0      	mov	r8, r6
20003aae:	469c      	mov	ip, r3
20003ab0:	4a12      	ldr	r2, [pc, #72]	@ (20003afc <sleep_us+0xe4>)
20003ab2:	4813      	ldr	r0, [pc, #76]	@ (20003b00 <sleep_us+0xe8>)
20003ab4:	6a53      	ldr	r3, [r2, #36]	@ 0x24
20003ab6:	4299      	cmp	r1, r3
20003ab8:	d804      	bhi.n	20003ac4 <sleep_us+0xac>
20003aba:	6a96      	ldr	r6, [r2, #40]	@ 0x28
20003abc:	4546      	cmp	r6, r8
20003abe:	d2cc      	bcs.n	20003a5a <sleep_us+0x42>
20003ac0:	4299      	cmp	r1, r3
20003ac2:	d1ca      	bne.n	20003a5a <sleep_us+0x42>
20003ac4:	6806      	ldr	r6, [r0, #0]
20003ac6:	f3ef 8710 	mrs	r7, PRIMASK
20003aca:	b672      	cpsid	i
20003acc:	6833      	ldr	r3, [r6, #0]
20003ace:	2b00      	cmp	r3, #0
20003ad0:	d0fc      	beq.n	20003acc <sleep_us+0xb4>
20003ad2:	f3bf 8f5f 	dmb	sy
20003ad6:	6803      	ldr	r3, [r0, #0]
20003ad8:	f3bf 8f5f 	dmb	sy
20003adc:	4666      	mov	r6, ip
20003ade:	601e      	str	r6, [r3, #0]
20003ae0:	f387 8810 	msr	PRIMASK, r7
20003ae4:	bf20      	wfe
20003ae6:	e7e5      	b.n	20003ab4 <sleep_us+0x9c>
20003ae8:	2a00      	cmp	r2, #0
20003aea:	d0b6      	beq.n	20003a5a <sleep_us+0x42>
20003aec:	e7c9      	b.n	20003a82 <sleep_us+0x6a>
20003aee:	46c0      	nop			@ (mov r8, r8)
20003af0:	7fffffff 	.word	0x7fffffff
20003af4:	200034ed 	.word	0x200034ed
20003af8:	200069ac 	.word	0x200069ac
20003afc:	40054000 	.word	0x40054000
20003b00:	2000718c 	.word	0x2000718c

20003b04 <best_effort_wfe_or_timeout>:
20003b04:	b5f0      	push	{r4, r5, r6, r7, lr}
20003b06:	46ce      	mov	lr, r9
20003b08:	4647      	mov	r7, r8
20003b0a:	b580      	push	{r7, lr}
20003b0c:	0004      	movs	r4, r0
20003b0e:	000d      	movs	r5, r1
20003b10:	b085      	sub	sp, #20
20003b12:	f3ef 8605 	mrs	r6, IPSR
20003b16:	4689      	mov	r9, r1
20003b18:	2e00      	cmp	r6, #0
20003b1a:	d010      	beq.n	20003b3e <best_effort_wfe_or_timeout+0x3a>
20003b1c:	4936      	ldr	r1, [pc, #216]	@ (20003bf8 <best_effort_wfe_or_timeout+0xf4>)
20003b1e:	2000      	movs	r0, #0
20003b20:	6a4b      	ldr	r3, [r1, #36]	@ 0x24
20003b22:	42ab      	cmp	r3, r5
20003b24:	d306      	bcc.n	20003b34 <best_effort_wfe_or_timeout+0x30>
20003b26:	6a8a      	ldr	r2, [r1, #40]	@ 0x28
20003b28:	1b5b      	subs	r3, r3, r5
20003b2a:	1e59      	subs	r1, r3, #1
20003b2c:	418b      	sbcs	r3, r1
20003b2e:	42a2      	cmp	r2, r4
20003b30:	4140      	adcs	r0, r0
20003b32:	4318      	orrs	r0, r3
20003b34:	b005      	add	sp, #20
20003b36:	bcc0      	pop	{r6, r7}
20003b38:	46b9      	mov	r9, r7
20003b3a:	46b0      	mov	r8, r6
20003b3c:	bdf0      	pop	{r4, r5, r6, r7, pc}
20003b3e:	4f2f      	ldr	r7, [pc, #188]	@ (20003bfc <best_effort_wfe_or_timeout+0xf8>)
20003b40:	68fb      	ldr	r3, [r7, #12]
20003b42:	783a      	ldrb	r2, [r7, #0]
20003b44:	4698      	mov	r8, r3
20003b46:	0018      	movs	r0, r3
20003b48:	9203      	str	r2, [sp, #12]
20003b4a:	f000 f87f 	bl	20003c4c <timer_time_us_64>
20003b4e:	9a03      	ldr	r2, [sp, #12]
20003b50:	1d13      	adds	r3, r2, #4
20003b52:	4642      	mov	r2, r8
20003b54:	009b      	lsls	r3, r3, #2
20003b56:	589b      	ldr	r3, [r3, r2]
20003b58:	0022      	movs	r2, r4
20003b5a:	1a1b      	subs	r3, r3, r0
20003b5c:	469c      	mov	ip, r3
20003b5e:	002b      	movs	r3, r5
20003b60:	1a12      	subs	r2, r2, r0
20003b62:	418b      	sbcs	r3, r1
20003b64:	429e      	cmp	r6, r3
20003b66:	dc10      	bgt.n	20003b8a <best_effort_wfe_or_timeout+0x86>
20003b68:	d00d      	beq.n	20003b86 <best_effort_wfe_or_timeout+0x82>
20003b6a:	bf20      	wfe
20003b6c:	4a22      	ldr	r2, [pc, #136]	@ (20003bf8 <best_effort_wfe_or_timeout+0xf4>)
20003b6e:	2000      	movs	r0, #0
20003b70:	6a53      	ldr	r3, [r2, #36]	@ 0x24
20003b72:	454b      	cmp	r3, r9
20003b74:	d3de      	bcc.n	20003b34 <best_effort_wfe_or_timeout+0x30>
20003b76:	6a92      	ldr	r2, [r2, #40]	@ 0x28
20003b78:	1b5b      	subs	r3, r3, r5
20003b7a:	1e59      	subs	r1, r3, #1
20003b7c:	418b      	sbcs	r3, r1
20003b7e:	42a2      	cmp	r2, r4
20003b80:	4140      	adcs	r0, r0
20003b82:	4318      	orrs	r0, r3
20003b84:	e7d6      	b.n	20003b34 <best_effort_wfe_or_timeout+0x30>
20003b86:	4594      	cmp	ip, r2
20003b88:	d9ef      	bls.n	20003b6a <best_effort_wfe_or_timeout+0x66>
20003b8a:	f000 f867 	bl	20003c5c <time_us_64>
20003b8e:	0022      	movs	r2, r4
20003b90:	002b      	movs	r3, r5
20003b92:	1a12      	subs	r2, r2, r0
20003b94:	418b      	sbcs	r3, r1
20003b96:	2b00      	cmp	r3, #0
20003b98:	db1b      	blt.n	20003bd2 <best_effort_wfe_or_timeout+0xce>
20003b9a:	2300      	movs	r3, #0
20003b9c:	9301      	str	r3, [sp, #4]
20003b9e:	4b18      	ldr	r3, [pc, #96]	@ (20003c00 <best_effort_wfe_or_timeout+0xfc>)
20003ba0:	0022      	movs	r2, r4
20003ba2:	9300      	str	r3, [sp, #0]
20003ba4:	0038      	movs	r0, r7
20003ba6:	002b      	movs	r3, r5
20003ba8:	f7ff fe9e 	bl	200038e8 <alarm_pool_add_alarm_at_force_in_context>
20003bac:	2800      	cmp	r0, #0
20003bae:	dd10      	ble.n	20003bd2 <best_effort_wfe_or_timeout+0xce>
20003bb0:	4b11      	ldr	r3, [pc, #68]	@ (20003bf8 <best_effort_wfe_or_timeout+0xf4>)
20003bb2:	6a5a      	ldr	r2, [r3, #36]	@ 0x24
20003bb4:	454a      	cmp	r2, r9
20003bb6:	d31c      	bcc.n	20003bf2 <best_effort_wfe_or_timeout+0xee>
20003bb8:	6a9b      	ldr	r3, [r3, #40]	@ 0x28
20003bba:	42a3      	cmp	r3, r4
20003bbc:	d317      	bcc.n	20003bee <best_effort_wfe_or_timeout+0xea>
20003bbe:	0001      	movs	r1, r0
20003bc0:	0038      	movs	r0, r7
20003bc2:	f7ff feef 	bl	200039a4 <alarm_pool_cancel_alarm>
20003bc6:	4a0c      	ldr	r2, [pc, #48]	@ (20003bf8 <best_effort_wfe_or_timeout+0xf4>)
20003bc8:	2000      	movs	r0, #0
20003bca:	6a53      	ldr	r3, [r2, #36]	@ 0x24
20003bcc:	454b      	cmp	r3, r9
20003bce:	d3b1      	bcc.n	20003b34 <best_effort_wfe_or_timeout+0x30>
20003bd0:	e7d1      	b.n	20003b76 <best_effort_wfe_or_timeout+0x72>
20003bd2:	4a09      	ldr	r2, [pc, #36]	@ (20003bf8 <best_effort_wfe_or_timeout+0xf4>)
20003bd4:	2000      	movs	r0, #0
20003bd6:	6a53      	ldr	r3, [r2, #36]	@ 0x24
20003bd8:	454b      	cmp	r3, r9
20003bda:	d3ab      	bcc.n	20003b34 <best_effort_wfe_or_timeout+0x30>
20003bdc:	2000      	movs	r0, #0
20003bde:	6a92      	ldr	r2, [r2, #40]	@ 0x28
20003be0:	1b5b      	subs	r3, r3, r5
20003be2:	42a2      	cmp	r2, r4
20003be4:	4140      	adcs	r0, r0
20003be6:	1e5a      	subs	r2, r3, #1
20003be8:	4193      	sbcs	r3, r2
20003bea:	4318      	orrs	r0, r3
20003bec:	e7a2      	b.n	20003b34 <best_effort_wfe_or_timeout+0x30>
20003bee:	454a      	cmp	r2, r9
20003bf0:	d1e5      	bne.n	20003bbe <best_effort_wfe_or_timeout+0xba>
20003bf2:	bf20      	wfe
20003bf4:	e7e3      	b.n	20003bbe <best_effort_wfe_or_timeout+0xba>
20003bf6:	46c0      	nop			@ (mov r8, r8)
20003bf8:	40054000 	.word	0x40054000
20003bfc:	200069ac 	.word	0x200069ac
20003c00:	200034ed 	.word	0x200034ed

20003c04 <check_single_timeout_us>:
20003c04:	6803      	ldr	r3, [r0, #0]
20003c06:	4908      	ldr	r1, [pc, #32]	@ (20003c28 <check_single_timeout_us+0x24>)
20003c08:	469c      	mov	ip, r3
20003c0a:	6a4a      	ldr	r2, [r1, #36]	@ 0x24
20003c0c:	6843      	ldr	r3, [r0, #4]
20003c0e:	2000      	movs	r0, #0
20003c10:	4293      	cmp	r3, r2
20003c12:	d807      	bhi.n	20003c24 <check_single_timeout_us+0x20>
20003c14:	1a9b      	subs	r3, r3, r2
20003c16:	1e5a      	subs	r2, r3, #1
20003c18:	4193      	sbcs	r3, r2
20003c1a:	4662      	mov	r2, ip
20003c1c:	6a89      	ldr	r1, [r1, #40]	@ 0x28
20003c1e:	4291      	cmp	r1, r2
20003c20:	4140      	adcs	r0, r0
20003c22:	4318      	orrs	r0, r3
20003c24:	4770      	bx	lr
20003c26:	46c0      	nop			@ (mov r8, r8)
20003c28:	40054000 	.word	0x40054000

20003c2c <init_single_timeout_until>:
20003c2c:	c00c      	stmia	r0!, {r2, r3}
20003c2e:	4801      	ldr	r0, [pc, #4]	@ (20003c34 <init_single_timeout_until+0x8>)
20003c30:	4770      	bx	lr
20003c32:	46c0      	nop			@ (mov r8, r8)
20003c34:	20003c05 	.word	0x20003c05

20003c38 <timer_hardware_alarm_claim>:
20003c38:	b510      	push	{r4, lr}
20003c3a:	4a02      	ldr	r2, [pc, #8]	@ (20003c44 <timer_hardware_alarm_claim+0xc>)
20003c3c:	4802      	ldr	r0, [pc, #8]	@ (20003c48 <timer_hardware_alarm_claim+0x10>)
20003c3e:	f7ff f9ed 	bl	2000301c <hw_claim_or_assert>
20003c42:	bd10      	pop	{r4, pc}
20003c44:	20006854 	.word	0x20006854
20003c48:	20007120 	.word	0x20007120

20003c4c <timer_time_us_64>:
20003c4c:	0003      	movs	r3, r0
20003c4e:	6a41      	ldr	r1, [r0, #36]	@ 0x24
20003c50:	000a      	movs	r2, r1
20003c52:	6a98      	ldr	r0, [r3, #40]	@ 0x28
20003c54:	6a59      	ldr	r1, [r3, #36]	@ 0x24
20003c56:	428a      	cmp	r2, r1
20003c58:	d1fa      	bne.n	20003c50 <timer_time_us_64+0x4>
20003c5a:	4770      	bx	lr

20003c5c <time_us_64>:
20003c5c:	4b03      	ldr	r3, [pc, #12]	@ (20003c6c <time_us_64+0x10>)
20003c5e:	6a59      	ldr	r1, [r3, #36]	@ 0x24
20003c60:	000a      	movs	r2, r1
20003c62:	6a98      	ldr	r0, [r3, #40]	@ 0x28
20003c64:	6a59      	ldr	r1, [r3, #36]	@ 0x24
20003c66:	4291      	cmp	r1, r2
20003c68:	d1fa      	bne.n	20003c60 <time_us_64+0x4>
20003c6a:	4770      	bx	lr
20003c6c:	40054000 	.word	0x40054000

20003c70 <busy_wait_until>:
20003c70:	4a06      	ldr	r2, [pc, #24]	@ (20003c8c <busy_wait_until+0x1c>)
20003c72:	6a53      	ldr	r3, [r2, #36]	@ 0x24
20003c74:	4299      	cmp	r1, r3
20003c76:	d8fc      	bhi.n	20003c72 <busy_wait_until+0x2>
20003c78:	d107      	bne.n	20003c8a <busy_wait_until+0x1a>
20003c7a:	4b04      	ldr	r3, [pc, #16]	@ (20003c8c <busy_wait_until+0x1c>)
20003c7c:	e002      	b.n	20003c84 <busy_wait_until+0x14>
20003c7e:	6a5a      	ldr	r2, [r3, #36]	@ 0x24
20003c80:	4291      	cmp	r1, r2
20003c82:	d102      	bne.n	20003c8a <busy_wait_until+0x1a>
20003c84:	6a9a      	ldr	r2, [r3, #40]	@ 0x28
20003c86:	4290      	cmp	r0, r2
20003c88:	d8f9      	bhi.n	20003c7e <busy_wait_until+0xe>
20003c8a:	4770      	bx	lr
20003c8c:	40054000 	.word	0x40054000

20003c90 <clock_configure_int_divider>:
20003c90:	b5f8      	push	{r3, r4, r5, r6, r7, lr}
20003c92:	46de      	mov	lr, fp
20003c94:	464e      	mov	r6, r9
20003c96:	4645      	mov	r5, r8
20003c98:	4657      	mov	r7, sl
20003c9a:	b5e0      	push	{r5, r6, r7, lr}
20003c9c:	0005      	movs	r5, r0
20003c9e:	468b      	mov	fp, r1
20003ca0:	0018      	movs	r0, r3
20003ca2:	990a      	ldr	r1, [sp, #40]	@ 0x28
20003ca4:	4691      	mov	r9, r2
20003ca6:	f000 fadb 	bl	20004260 <__wrap___aeabi_uidiv>
20003caa:	9b0a      	ldr	r3, [sp, #40]	@ 0x28
20003cac:	006c      	lsls	r4, r5, #1
20003cae:	021e      	lsls	r6, r3, #8
20003cb0:	1964      	adds	r4, r4, r5
20003cb2:	4b30      	ldr	r3, [pc, #192]	@ (20003d74 <clock_configure_int_divider+0xe4>)
20003cb4:	00a4      	lsls	r4, r4, #2
20003cb6:	18e4      	adds	r4, r4, r3
20003cb8:	6863      	ldr	r3, [r4, #4]
20003cba:	4680      	mov	r8, r0
20003cbc:	429e      	cmp	r6, r3
20003cbe:	d900      	bls.n	20003cc2 <clock_configure_int_divider+0x32>
20003cc0:	6066      	str	r6, [r4, #4]
20003cc2:	1f2f      	subs	r7, r5, #4
20003cc4:	b2fb      	uxtb	r3, r7
20003cc6:	469a      	mov	sl, r3
20003cc8:	2b01      	cmp	r3, #1
20003cca:	d92f      	bls.n	20003d2c <clock_configure_int_divider+0x9c>
20003ccc:	23c0      	movs	r3, #192	@ 0xc0
20003cce:	2280      	movs	r2, #128	@ 0x80
20003cd0:	4f29      	ldr	r7, [pc, #164]	@ (20003d78 <clock_configure_int_divider+0xe8>)
20003cd2:	00ad      	lsls	r5, r5, #2
20003cd4:	019b      	lsls	r3, r3, #6
20003cd6:	5979      	ldr	r1, [r7, r5]
20003cd8:	0112      	lsls	r2, r2, #4
20003cda:	18e3      	adds	r3, r4, r3
20003cdc:	601a      	str	r2, [r3, #0]
20003cde:	2900      	cmp	r1, #0
20003ce0:	d11b      	bne.n	20003d1a <clock_configure_int_divider+0x8a>
20003ce2:	464b      	mov	r3, r9
20003ce4:	6822      	ldr	r2, [r4, #0]
20003ce6:	015b      	lsls	r3, r3, #5
20003ce8:	4053      	eors	r3, r2
20003cea:	22e0      	movs	r2, #224	@ 0xe0
20003cec:	4013      	ands	r3, r2
20003cee:	2280      	movs	r2, #128	@ 0x80
20003cf0:	0152      	lsls	r2, r2, #5
20003cf2:	18a2      	adds	r2, r4, r2
20003cf4:	6013      	str	r3, [r2, #0]
20003cf6:	4653      	mov	r3, sl
20003cf8:	2b01      	cmp	r3, #1
20003cfa:	d92f      	bls.n	20003d5c <clock_configure_int_divider+0xcc>
20003cfc:	2380      	movs	r3, #128	@ 0x80
20003cfe:	2280      	movs	r2, #128	@ 0x80
20003d00:	019b      	lsls	r3, r3, #6
20003d02:	18e3      	adds	r3, r4, r3
20003d04:	0112      	lsls	r2, r2, #4
20003d06:	601a      	str	r2, [r3, #0]
20003d08:	4643      	mov	r3, r8
20003d0a:	6066      	str	r6, [r4, #4]
20003d0c:	517b      	str	r3, [r7, r5]
20003d0e:	bcf0      	pop	{r4, r5, r6, r7}
20003d10:	46bb      	mov	fp, r7
20003d12:	46b2      	mov	sl, r6
20003d14:	46a9      	mov	r9, r5
20003d16:	46a0      	mov	r8, r4
20003d18:	bdf8      	pop	{r3, r4, r5, r6, r7, pc}
20003d1a:	6978      	ldr	r0, [r7, #20]
20003d1c:	f000 faa0 	bl	20004260 <__wrap___aeabi_uidiv>
20003d20:	3001      	adds	r0, #1
20003d22:	0043      	lsls	r3, r0, #1
20003d24:	181b      	adds	r3, r3, r0
20003d26:	3b03      	subs	r3, #3
20003d28:	d2fd      	bcs.n	20003d26 <clock_configure_int_divider+0x96>
20003d2a:	e7da      	b.n	20003ce2 <clock_configure_int_divider+0x52>
20003d2c:	465b      	mov	r3, fp
20003d2e:	2b01      	cmp	r3, #1
20003d30:	d1cc      	bne.n	20003ccc <clock_configure_int_divider+0x3c>
20003d32:	23c0      	movs	r3, #192	@ 0xc0
20003d34:	2203      	movs	r2, #3
20003d36:	019b      	lsls	r3, r3, #6
20003d38:	18e3      	adds	r3, r4, r3
20003d3a:	601a      	str	r2, [r3, #0]
20003d3c:	3a02      	subs	r2, #2
20003d3e:	68a3      	ldr	r3, [r4, #8]
20003d40:	421a      	tst	r2, r3
20003d42:	d0fc      	beq.n	20003d3e <clock_configure_int_divider+0xae>
20003d44:	464a      	mov	r2, r9
20003d46:	6823      	ldr	r3, [r4, #0]
20003d48:	0152      	lsls	r2, r2, #5
20003d4a:	405a      	eors	r2, r3
20003d4c:	23e0      	movs	r3, #224	@ 0xe0
20003d4e:	4013      	ands	r3, r2
20003d50:	2280      	movs	r2, #128	@ 0x80
20003d52:	0152      	lsls	r2, r2, #5
20003d54:	18a2      	adds	r2, r4, r2
20003d56:	4f08      	ldr	r7, [pc, #32]	@ (20003d78 <clock_configure_int_divider+0xe8>)
20003d58:	6013      	str	r3, [r2, #0]
20003d5a:	00ad      	lsls	r5, r5, #2
20003d5c:	4658      	mov	r0, fp
20003d5e:	2303      	movs	r3, #3
20003d60:	6821      	ldr	r1, [r4, #0]
20003d62:	4041      	eors	r1, r0
20003d64:	400b      	ands	r3, r1
20003d66:	6013      	str	r3, [r2, #0]
20003d68:	2201      	movs	r2, #1
20003d6a:	4082      	lsls	r2, r0
20003d6c:	68a3      	ldr	r3, [r4, #8]
20003d6e:	421a      	tst	r2, r3
20003d70:	d0fc      	beq.n	20003d6c <clock_configure_int_divider+0xdc>
20003d72:	e7c3      	b.n	20003cfc <clock_configure_int_divider+0x6c>
20003d74:	40008000 	.word	0x40008000
20003d78:	20007124 	.word	0x20007124

20003d7c <clock_configure_undivided>:
20003d7c:	b5f0      	push	{r4, r5, r6, r7, lr}
20003d7e:	46d6      	mov	lr, sl
20003d80:	464f      	mov	r7, r9
20003d82:	4646      	mov	r6, r8
20003d84:	0044      	lsls	r4, r0, #1
20003d86:	4698      	mov	r8, r3
20003d88:	1824      	adds	r4, r4, r0
20003d8a:	4b32      	ldr	r3, [pc, #200]	@ (20003e54 <clock_configure_undivided+0xd8>)
20003d8c:	00a4      	lsls	r4, r4, #2
20003d8e:	18e4      	adds	r4, r4, r3
20003d90:	6863      	ldr	r3, [r4, #4]
20003d92:	468a      	mov	sl, r1
20003d94:	4691      	mov	r9, r2
20003d96:	b5c0      	push	{r6, r7, lr}
20003d98:	2bff      	cmp	r3, #255	@ 0xff
20003d9a:	d802      	bhi.n	20003da2 <clock_configure_undivided+0x26>
20003d9c:	2380      	movs	r3, #128	@ 0x80
20003d9e:	005b      	lsls	r3, r3, #1
20003da0:	6063      	str	r3, [r4, #4]
20003da2:	1f06      	subs	r6, r0, #4
20003da4:	b2f6      	uxtb	r6, r6
20003da6:	2e01      	cmp	r6, #1
20003da8:	d92f      	bls.n	20003e0a <clock_configure_undivided+0x8e>
20003daa:	23c0      	movs	r3, #192	@ 0xc0
20003dac:	2280      	movs	r2, #128	@ 0x80
20003dae:	4f2a      	ldr	r7, [pc, #168]	@ (20003e58 <clock_configure_undivided+0xdc>)
20003db0:	0085      	lsls	r5, r0, #2
20003db2:	019b      	lsls	r3, r3, #6
20003db4:	5979      	ldr	r1, [r7, r5]
20003db6:	0112      	lsls	r2, r2, #4
20003db8:	18e3      	adds	r3, r4, r3
20003dba:	601a      	str	r2, [r3, #0]
20003dbc:	2900      	cmp	r1, #0
20003dbe:	d11b      	bne.n	20003df8 <clock_configure_undivided+0x7c>
20003dc0:	464b      	mov	r3, r9
20003dc2:	6822      	ldr	r2, [r4, #0]
20003dc4:	015b      	lsls	r3, r3, #5
20003dc6:	4053      	eors	r3, r2
20003dc8:	22e0      	movs	r2, #224	@ 0xe0
20003dca:	4013      	ands	r3, r2
20003dcc:	2280      	movs	r2, #128	@ 0x80
20003dce:	0152      	lsls	r2, r2, #5
20003dd0:	18a2      	adds	r2, r4, r2
20003dd2:	6013      	str	r3, [r2, #0]
20003dd4:	2e01      	cmp	r6, #1
20003dd6:	d930      	bls.n	20003e3a <clock_configure_undivided+0xbe>
20003dd8:	2380      	movs	r3, #128	@ 0x80
20003dda:	2280      	movs	r2, #128	@ 0x80
20003ddc:	019b      	lsls	r3, r3, #6
20003dde:	18e3      	adds	r3, r4, r3
20003de0:	0112      	lsls	r2, r2, #4
20003de2:	601a      	str	r2, [r3, #0]
20003de4:	2380      	movs	r3, #128	@ 0x80
20003de6:	005b      	lsls	r3, r3, #1
20003de8:	6063      	str	r3, [r4, #4]
20003dea:	4643      	mov	r3, r8
20003dec:	517b      	str	r3, [r7, r5]
20003dee:	bce0      	pop	{r5, r6, r7}
20003df0:	46ba      	mov	sl, r7
20003df2:	46b1      	mov	r9, r6
20003df4:	46a8      	mov	r8, r5
20003df6:	bdf0      	pop	{r4, r5, r6, r7, pc}
20003df8:	6978      	ldr	r0, [r7, #20]
20003dfa:	f000 fa31 	bl	20004260 <__wrap___aeabi_uidiv>
20003dfe:	3001      	adds	r0, #1
20003e00:	0043      	lsls	r3, r0, #1
20003e02:	181b      	adds	r3, r3, r0
20003e04:	3b03      	subs	r3, #3
20003e06:	d2fd      	bcs.n	20003e04 <clock_configure_undivided+0x88>
20003e08:	e7da      	b.n	20003dc0 <clock_configure_undivided+0x44>
20003e0a:	4653      	mov	r3, sl
20003e0c:	2b01      	cmp	r3, #1
20003e0e:	d1cc      	bne.n	20003daa <clock_configure_undivided+0x2e>
20003e10:	23c0      	movs	r3, #192	@ 0xc0
20003e12:	2203      	movs	r2, #3
20003e14:	019b      	lsls	r3, r3, #6
20003e16:	18e3      	adds	r3, r4, r3
20003e18:	601a      	str	r2, [r3, #0]
20003e1a:	3a02      	subs	r2, #2
20003e1c:	68a3      	ldr	r3, [r4, #8]
20003e1e:	421a      	tst	r2, r3
20003e20:	d0fc      	beq.n	20003e1c <clock_configure_undivided+0xa0>
20003e22:	464a      	mov	r2, r9
20003e24:	6823      	ldr	r3, [r4, #0]
20003e26:	0152      	lsls	r2, r2, #5
20003e28:	405a      	eors	r2, r3
20003e2a:	23e0      	movs	r3, #224	@ 0xe0
20003e2c:	4013      	ands	r3, r2
20003e2e:	2280      	movs	r2, #128	@ 0x80
20003e30:	0152      	lsls	r2, r2, #5
20003e32:	18a2      	adds	r2, r4, r2
20003e34:	4f08      	ldr	r7, [pc, #32]	@ (20003e58 <clock_configure_undivided+0xdc>)
20003e36:	6013      	str	r3, [r2, #0]
20003e38:	0085      	lsls	r5, r0, #2
20003e3a:	4650      	mov	r0, sl
20003e3c:	2303      	movs	r3, #3
20003e3e:	6821      	ldr	r1, [r4, #0]
20003e40:	4041      	eors	r1, r0
20003e42:	400b      	ands	r3, r1
20003e44:	6013      	str	r3, [r2, #0]
20003e46:	2201      	movs	r2, #1
20003e48:	4082      	lsls	r2, r0
20003e4a:	68a3      	ldr	r3, [r4, #8]
20003e4c:	421a      	tst	r2, r3
20003e4e:	d0fc      	beq.n	20003e4a <clock_configure_undivided+0xce>
20003e50:	e7c2      	b.n	20003dd8 <clock_configure_undivided+0x5c>
20003e52:	46c0      	nop			@ (mov r8, r8)
20003e54:	40008000 	.word	0x40008000
20003e58:	20007124 	.word	0x20007124

20003e5c <clock_get_hz>:
20003e5c:	4b01      	ldr	r3, [pc, #4]	@ (20003e64 <clock_get_hz+0x8>)
20003e5e:	0080      	lsls	r0, r0, #2
20003e60:	58c0      	ldr	r0, [r0, r3]
20003e62:	4770      	bx	lr
20003e64:	20007124 	.word	0x20007124

20003e68 <pll_init>:
20003e68:	b5f0      	push	{r4, r5, r6, r7, lr}
20003e6a:	46c6      	mov	lr, r8
20003e6c:	0004      	movs	r4, r0
20003e6e:	b500      	push	{lr}
20003e70:	4823      	ldr	r0, [pc, #140]	@ (20003f00 <pll_init+0x98>)
20003e72:	0016      	movs	r6, r2
20003e74:	4698      	mov	r8, r3
20003e76:	000d      	movs	r5, r1
20003e78:	f000 f9f2 	bl	20004260 <__wrap___aeabi_uidiv>
20003e7c:	0001      	movs	r1, r0
20003e7e:	0030      	movs	r0, r6
20003e80:	f000 f9ee 	bl	20004260 <__wrap___aeabi_uidiv>
20003e84:	4643      	mov	r3, r8
20003e86:	9a06      	ldr	r2, [sp, #24]
20003e88:	041b      	lsls	r3, r3, #16
20003e8a:	0312      	lsls	r2, r2, #12
20003e8c:	4313      	orrs	r3, r2
20003e8e:	469c      	mov	ip, r3
20003e90:	6823      	ldr	r3, [r4, #0]
20003e92:	0006      	movs	r6, r0
20003e94:	2b00      	cmp	r3, #0
20003e96:	db22      	blt.n	20003ede <pll_init+0x76>
20003e98:	4b1a      	ldr	r3, [pc, #104]	@ (20003f04 <pll_init+0x9c>)
20003e9a:	481b      	ldr	r0, [pc, #108]	@ (20003f08 <pll_init+0xa0>)
20003e9c:	18e2      	adds	r2, r4, r3
20003e9e:	1e53      	subs	r3, r2, #1
20003ea0:	419a      	sbcs	r2, r3
20003ea2:	2380      	movs	r3, #128	@ 0x80
20003ea4:	4252      	negs	r2, r2
20003ea6:	0b12      	lsrs	r2, r2, #12
20003ea8:	019b      	lsls	r3, r3, #6
20003eaa:	0312      	lsls	r2, r2, #12
20003eac:	18d2      	adds	r2, r2, r3
20003eae:	4b17      	ldr	r3, [pc, #92]	@ (20003f0c <pll_init+0xa4>)
20003eb0:	601a      	str	r2, [r3, #0]
20003eb2:	4b17      	ldr	r3, [pc, #92]	@ (20003f10 <pll_init+0xa8>)
20003eb4:	601a      	str	r2, [r3, #0]
20003eb6:	0013      	movs	r3, r2
20003eb8:	6801      	ldr	r1, [r0, #0]
20003eba:	438b      	bics	r3, r1
20003ebc:	d1fb      	bne.n	20003eb6 <pll_init+0x4e>
20003ebe:	2221      	movs	r2, #33	@ 0x21
20003ec0:	4b14      	ldr	r3, [pc, #80]	@ (20003f14 <pll_init+0xac>)
20003ec2:	6025      	str	r5, [r4, #0]
20003ec4:	18e3      	adds	r3, r4, r3
20003ec6:	60a6      	str	r6, [r4, #8]
20003ec8:	601a      	str	r2, [r3, #0]
20003eca:	6822      	ldr	r2, [r4, #0]
20003ecc:	2a00      	cmp	r2, #0
20003ece:	dafc      	bge.n	20003eca <pll_init+0x62>
20003ed0:	4662      	mov	r2, ip
20003ed2:	60e2      	str	r2, [r4, #12]
20003ed4:	2208      	movs	r2, #8
20003ed6:	601a      	str	r2, [r3, #0]
20003ed8:	bc80      	pop	{r7}
20003eda:	46b8      	mov	r8, r7
20003edc:	bdf0      	pop	{r4, r5, r6, r7, pc}
20003ede:	233f      	movs	r3, #63	@ 0x3f
20003ee0:	6822      	ldr	r2, [r4, #0]
20003ee2:	4013      	ands	r3, r2
20003ee4:	42ab      	cmp	r3, r5
20003ee6:	d1d7      	bne.n	20003e98 <pll_init+0x30>
20003ee8:	68a3      	ldr	r3, [r4, #8]
20003eea:	051b      	lsls	r3, r3, #20
20003eec:	0d1b      	lsrs	r3, r3, #20
20003eee:	4283      	cmp	r3, r0
20003ef0:	d1d2      	bne.n	20003e98 <pll_init+0x30>
20003ef2:	22ee      	movs	r2, #238	@ 0xee
20003ef4:	68e3      	ldr	r3, [r4, #12]
20003ef6:	02d2      	lsls	r2, r2, #11
20003ef8:	4013      	ands	r3, r2
20003efa:	4563      	cmp	r3, ip
20003efc:	d1cc      	bne.n	20003e98 <pll_init+0x30>
20003efe:	e7eb      	b.n	20003ed8 <pll_init+0x70>
20003f00:	00b71b00 	.word	0x00b71b00
20003f04:	bffd4000 	.word	0xbffd4000
20003f08:	4000c008 	.word	0x4000c008
20003f0c:	4000e000 	.word	0x4000e000
20003f10:	4000f000 	.word	0x4000f000
20003f14:	00003004 	.word	0x00003004

20003f18 <tick_start>:
20003f18:	2380      	movs	r3, #128	@ 0x80
20003f1a:	4a02      	ldr	r2, [pc, #8]	@ (20003f24 <tick_start+0xc>)
20003f1c:	009b      	lsls	r3, r3, #2
20003f1e:	430b      	orrs	r3, r1
20003f20:	62d3      	str	r3, [r2, #44]	@ 0x2c
20003f22:	4770      	bx	lr
20003f24:	40058000 	.word	0x40058000

20003f28 <rom_func_lookup>:
20003f28:	2300      	movs	r3, #0
20003f2a:	b510      	push	{r4, lr}
20003f2c:	0001      	movs	r1, r0
20003f2e:	8a98      	ldrh	r0, [r3, #20]
20003f30:	8b1b      	ldrh	r3, [r3, #24]
20003f32:	4798      	blx	r3
20003f34:	bd10      	pop	{r4, pc}
20003f36:	46c0      	nop			@ (mov r8, r8)

20003f38 <rom_data_lookup>:
20003f38:	2316      	movs	r3, #22
20003f3a:	b510      	push	{r4, lr}
20003f3c:	0001      	movs	r1, r0
20003f3e:	8818      	ldrh	r0, [r3, #0]
20003f40:	885b      	ldrh	r3, [r3, #2]
20003f42:	4798      	blx	r3
20003f44:	bd10      	pop	{r4, pc}
20003f46:	46c0      	nop			@ (mov r8, r8)

20003f48 <rom_funcs_lookup>:
20003f48:	b5f8      	push	{r3, r4, r5, r6, r7, lr}
20003f4a:	4647      	mov	r7, r8
20003f4c:	46ce      	mov	lr, r9
20003f4e:	b580      	push	{r7, lr}
20003f50:	1e0f      	subs	r7, r1, #0
20003f52:	d018      	beq.n	20003f86 <rom_funcs_lookup+0x3e>
20003f54:	2314      	movs	r3, #20
20003f56:	4699      	mov	r9, r3
20003f58:	3304      	adds	r3, #4
20003f5a:	0004      	movs	r4, r0
20003f5c:	2500      	movs	r5, #0
20003f5e:	2601      	movs	r6, #1
20003f60:	4698      	mov	r8, r3
20003f62:	464b      	mov	r3, r9
20003f64:	8818      	ldrh	r0, [r3, #0]
20003f66:	4643      	mov	r3, r8
20003f68:	6821      	ldr	r1, [r4, #0]
20003f6a:	881b      	ldrh	r3, [r3, #0]
20003f6c:	4798      	blx	r3
20003f6e:	c401      	stmia	r4!, {r0}
20003f70:	1e43      	subs	r3, r0, #1
20003f72:	4198      	sbcs	r0, r3
20003f74:	3501      	adds	r5, #1
20003f76:	4006      	ands	r6, r0
20003f78:	42af      	cmp	r7, r5
20003f7a:	d1f2      	bne.n	20003f62 <rom_funcs_lookup+0x1a>
20003f7c:	0030      	movs	r0, r6
20003f7e:	bcc0      	pop	{r6, r7}
20003f80:	46b9      	mov	r9, r7
20003f82:	46b0      	mov	r8, r6
20003f84:	bdf8      	pop	{r3, r4, r5, r6, r7, pc}
20003f86:	2601      	movs	r6, #1
20003f88:	e7f8      	b.n	20003f7c <rom_funcs_lookup+0x34>
20003f8a:	46c0      	nop			@ (mov r8, r8)

20003f8c <xosc_init>:
20003f8c:	23aa      	movs	r3, #170	@ 0xaa
20003f8e:	4a06      	ldr	r2, [pc, #24]	@ (20003fa8 <xosc_init+0x1c>)
20003f90:	011b      	lsls	r3, r3, #4
20003f92:	6013      	str	r3, [r2, #0]
20003f94:	3321      	adds	r3, #33	@ 0x21
20003f96:	33ff      	adds	r3, #255	@ 0xff
20003f98:	60d3      	str	r3, [r2, #12]
20003f9a:	4904      	ldr	r1, [pc, #16]	@ (20003fac <xosc_init+0x20>)
20003f9c:	4b04      	ldr	r3, [pc, #16]	@ (20003fb0 <xosc_init+0x24>)
20003f9e:	6019      	str	r1, [r3, #0]
20003fa0:	6853      	ldr	r3, [r2, #4]
20003fa2:	2b00      	cmp	r3, #0
20003fa4:	dafc      	bge.n	20003fa0 <xosc_init+0x14>
20003fa6:	4770      	bx	lr
20003fa8:	40024000 	.word	0x40024000
20003fac:	00fab000 	.word	0x00fab000
20003fb0:	40026000 	.word	0x40026000

20003fb4 <first_per_core_initializer>:
20003fb4:	4770      	bx	lr
20003fb6:	46c0      	nop			@ (mov r8, r8)

20003fb8 <hard_assertion_failure>:
20003fb8:	b510      	push	{r4, lr}
20003fba:	4801      	ldr	r0, [pc, #4]	@ (20003fc0 <hard_assertion_failure+0x8>)
20003fbc:	f7ff f816 	bl	20002fec <panic>
20003fc0:	20006878 	.word	0x20006878

20003fc4 <runtime_run_initializers>:
20003fc4:	b570      	push	{r4, r5, r6, lr}
20003fc6:	4d07      	ldr	r5, [pc, #28]	@ (20003fe4 <runtime_run_initializers+0x20>)
20003fc8:	4e07      	ldr	r6, [pc, #28]	@ (20003fe8 <runtime_run_initializers+0x24>)
20003fca:	42b5      	cmp	r5, r6
20003fcc:	d209      	bcs.n	20003fe2 <runtime_run_initializers+0x1e>
20003fce:	2400      	movs	r4, #0
20003fd0:	3e01      	subs	r6, #1
20003fd2:	1b76      	subs	r6, r6, r5
20003fd4:	08b6      	lsrs	r6, r6, #2
20003fd6:	3601      	adds	r6, #1
20003fd8:	cd08      	ldmia	r5!, {r3}
20003fda:	3401      	adds	r4, #1
20003fdc:	4798      	blx	r3
20003fde:	42b4      	cmp	r4, r6
20003fe0:	d1fa      	bne.n	20003fd8 <runtime_run_initializers+0x14>
20003fe2:	bd70      	pop	{r4, r5, r6, pc}
20003fe4:	20006a00 	.word	0x20006a00
20003fe8:	20006a3c 	.word	0x20006a3c

20003fec <runtime_init_early_resets>:
20003fec:	4b05      	ldr	r3, [pc, #20]	@ (20004004 <runtime_init_early_resets+0x18>)
20003fee:	4a06      	ldr	r2, [pc, #24]	@ (20004008 <runtime_init_early_resets+0x1c>)
20003ff0:	4906      	ldr	r1, [pc, #24]	@ (2000400c <runtime_init_early_resets+0x20>)
20003ff2:	601a      	str	r2, [r3, #0]
20003ff4:	4a06      	ldr	r2, [pc, #24]	@ (20004010 <runtime_init_early_resets+0x24>)
20003ff6:	4b07      	ldr	r3, [pc, #28]	@ (20004014 <runtime_init_early_resets+0x28>)
20003ff8:	601a      	str	r2, [r3, #0]
20003ffa:	0010      	movs	r0, r2
20003ffc:	680b      	ldr	r3, [r1, #0]
20003ffe:	4398      	bics	r0, r3
20004000:	d1fb      	bne.n	20003ffa <runtime_init_early_resets+0xe>
20004002:	4770      	bx	lr
20004004:	4000e000 	.word	0x4000e000
20004008:	fefbcdbf 	.word	0xfefbcdbf
2000400c:	4000c008 	.word	0x4000c008
20004010:	003c7ffe 	.word	0x003c7ffe
20004014:	4000f000 	.word	0x4000f000

20004018 <runtime_init_usb_power_down>:
20004018:	4b04      	ldr	r3, [pc, #16]	@ (2000402c <runtime_init_usb_power_down+0x14>)
2000401a:	6cdb      	ldr	r3, [r3, #76]	@ 0x4c
2000401c:	2b00      	cmp	r3, #0
2000401e:	d103      	bne.n	20004028 <runtime_init_usb_power_down+0x10>
20004020:	2280      	movs	r2, #128	@ 0x80
20004022:	4b03      	ldr	r3, [pc, #12]	@ (20004030 <runtime_init_usb_power_down+0x18>)
20004024:	02d2      	lsls	r2, r2, #11
20004026:	601a      	str	r2, [r3, #0]
20004028:	4770      	bx	lr
2000402a:	46c0      	nop			@ (mov r8, r8)
2000402c:	50110000 	.word	0x50110000
20004030:	5011204c 	.word	0x5011204c

20004034 <runtime_init_post_clock_resets>:
20004034:	4a04      	ldr	r2, [pc, #16]	@ (20004048 <runtime_init_post_clock_resets+0x14>)
20004036:	4b05      	ldr	r3, [pc, #20]	@ (2000404c <runtime_init_post_clock_resets+0x18>)
20004038:	601a      	str	r2, [r3, #0]
2000403a:	4a05      	ldr	r2, [pc, #20]	@ (20004050 <runtime_init_post_clock_resets+0x1c>)
2000403c:	6813      	ldr	r3, [r2, #0]
2000403e:	01db      	lsls	r3, r3, #7
20004040:	3380      	adds	r3, #128	@ 0x80
20004042:	d1fb      	bne.n	2000403c <runtime_init_post_clock_resets+0x8>
20004044:	4770      	bx	lr
20004046:	46c0      	nop			@ (mov r8, r8)
20004048:	01ffffff 	.word	0x01ffffff
2000404c:	4000f000 	.word	0x4000f000
20004050:	4000c008 	.word	0x4000c008

20004054 <runtime_init_rp2040_gpio_ie_disable>:
20004054:	2240      	movs	r2, #64	@ 0x40
20004056:	4b03      	ldr	r3, [pc, #12]	@ (20004064 <runtime_init_rp2040_gpio_ie_disable+0x10>)
20004058:	679a      	str	r2, [r3, #120]	@ 0x78
2000405a:	675a      	str	r2, [r3, #116]	@ 0x74
2000405c:	671a      	str	r2, [r3, #112]	@ 0x70
2000405e:	66da      	str	r2, [r3, #108]	@ 0x6c
20004060:	4770      	bx	lr
20004062:	46c0      	nop			@ (mov r8, r8)
20004064:	4001f000 	.word	0x4001f000

20004068 <runtime_init_spin_locks_reset>:
20004068:	b510      	push	{r4, lr}
2000406a:	f7ff f84f 	bl	2000310c <spin_locks_reset>
2000406e:	bd10      	pop	{r4, pc}

20004070 <runtime_init_install_ram_vector_table>:
20004070:	b570      	push	{r4, r5, r6, lr}
20004072:	4928      	ldr	r1, [pc, #160]	@ (20004114 <runtime_init_install_ram_vector_table+0xa4>)
20004074:	4d28      	ldr	r5, [pc, #160]	@ (20004118 <runtime_init_install_ram_vector_table+0xa8>)
20004076:	4e29      	ldr	r6, [pc, #164]	@ (2000411c <runtime_init_install_ram_vector_table+0xac>)
20004078:	1a6d      	subs	r5, r5, r1
2000407a:	10ac      	asrs	r4, r5, #2
2000407c:	0022      	movs	r2, r4
2000407e:	2c30      	cmp	r4, #48	@ 0x30
20004080:	d900      	bls.n	20004084 <runtime_init_install_ram_vector_table+0x14>
20004082:	2230      	movs	r2, #48	@ 0x30
20004084:	0030      	movs	r0, r6
20004086:	0092      	lsls	r2, r2, #2
20004088:	f000 faa4 	bl	200045d4 <__wrap___aeabi_memcpy>
2000408c:	2dbc      	cmp	r5, #188	@ 0xbc
2000408e:	d83d      	bhi.n	2000410c <runtime_init_install_ram_vector_table+0x9c>
20004090:	0023      	movs	r3, r4
20004092:	3b2a      	subs	r3, #42	@ 0x2a
20004094:	4a22      	ldr	r2, [pc, #136]	@ (20004120 <runtime_init_install_ram_vector_table+0xb0>)
20004096:	2b05      	cmp	r3, #5
20004098:	d91d      	bls.n	200040d6 <runtime_init_install_ram_vector_table+0x66>
2000409a:	2030      	movs	r0, #48	@ 0x30
2000409c:	1975      	adds	r5, r6, r5
2000409e:	076d      	lsls	r5, r5, #29
200040a0:	46a4      	mov	ip, r4
200040a2:	1b00      	subs	r0, r0, r4
200040a4:	0feb      	lsrs	r3, r5, #31
200040a6:	2d00      	cmp	r5, #0
200040a8:	da03      	bge.n	200040b2 <runtime_init_install_ram_vector_table+0x42>
200040aa:	1c61      	adds	r1, r4, #1
200040ac:	468c      	mov	ip, r1
200040ae:	00a1      	lsls	r1, r4, #2
200040b0:	5072      	str	r2, [r6, r1]
200040b2:	1ac0      	subs	r0, r0, r3
200040b4:	18e3      	adds	r3, r4, r3
200040b6:	009b      	lsls	r3, r3, #2
200040b8:	0841      	lsrs	r1, r0, #1
200040ba:	18f3      	adds	r3, r6, r3
200040bc:	00c9      	lsls	r1, r1, #3
200040be:	18c9      	adds	r1, r1, r3
200040c0:	601a      	str	r2, [r3, #0]
200040c2:	605a      	str	r2, [r3, #4]
200040c4:	3308      	adds	r3, #8
200040c6:	4299      	cmp	r1, r3
200040c8:	d1fa      	bne.n	200040c0 <runtime_init_install_ram_vector_table+0x50>
200040ca:	2301      	movs	r3, #1
200040cc:	4203      	tst	r3, r0
200040ce:	d01d      	beq.n	2000410c <runtime_init_install_ram_vector_table+0x9c>
200040d0:	4398      	bics	r0, r3
200040d2:	4460      	add	r0, ip
200040d4:	0004      	movs	r4, r0
200040d6:	00a3      	lsls	r3, r4, #2
200040d8:	50f2      	str	r2, [r6, r3]
200040da:	1c63      	adds	r3, r4, #1
200040dc:	2c2f      	cmp	r4, #47	@ 0x2f
200040de:	d015      	beq.n	2000410c <runtime_init_install_ram_vector_table+0x9c>
200040e0:	009b      	lsls	r3, r3, #2
200040e2:	50f2      	str	r2, [r6, r3]
200040e4:	1ca3      	adds	r3, r4, #2
200040e6:	2c2e      	cmp	r4, #46	@ 0x2e
200040e8:	d010      	beq.n	2000410c <runtime_init_install_ram_vector_table+0x9c>
200040ea:	009b      	lsls	r3, r3, #2
200040ec:	50f2      	str	r2, [r6, r3]
200040ee:	1ce3      	adds	r3, r4, #3
200040f0:	2c2d      	cmp	r4, #45	@ 0x2d
200040f2:	d00b      	beq.n	2000410c <runtime_init_install_ram_vector_table+0x9c>
200040f4:	009b      	lsls	r3, r3, #2
200040f6:	50f2      	str	r2, [r6, r3]
200040f8:	1d23      	adds	r3, r4, #4
200040fa:	2c2c      	cmp	r4, #44	@ 0x2c
200040fc:	d006      	beq.n	2000410c <runtime_init_install_ram_vector_table+0x9c>
200040fe:	009b      	lsls	r3, r3, #2
20004100:	50f2      	str	r2, [r6, r3]
20004102:	1d63      	adds	r3, r4, #5
20004104:	2c2b      	cmp	r4, #43	@ 0x2b
20004106:	d001      	beq.n	2000410c <runtime_init_install_ram_vector_table+0x9c>
20004108:	009b      	lsls	r3, r3, #2
2000410a:	50f2      	str	r2, [r6, r3]
2000410c:	4b05      	ldr	r3, [pc, #20]	@ (20004124 <runtime_init_install_ram_vector_table+0xb4>)
2000410e:	609e      	str	r6, [r3, #8]
20004110:	bd70      	pop	{r4, r5, r6, pc}
20004112:	46c0      	nop			@ (mov r8, r8)
20004114:	10000100 	.word	0x10000100
20004118:	100001c0 	.word	0x100001c0
2000411c:	20000000 	.word	0x20000000
20004120:	100001c1 	.word	0x100001c1
20004124:	e000ed00 	.word	0xe000ed00

20004128 <runtime_init_clocks>:
20004128:	2300      	movs	r3, #0
2000412a:	b510      	push	{r4, lr}
2000412c:	4c29      	ldr	r4, [pc, #164]	@ (200041d4 <runtime_init_clocks+0xac>)
2000412e:	b082      	sub	sp, #8
20004130:	67a3      	str	r3, [r4, #120]	@ 0x78
20004132:	f7ff ff2b 	bl	20003f8c <xosc_init>
20004136:	2201      	movs	r2, #1
20004138:	4b27      	ldr	r3, [pc, #156]	@ (200041d8 <runtime_init_clocks+0xb0>)
2000413a:	601a      	str	r2, [r3, #0]
2000413c:	6c63      	ldr	r3, [r4, #68]	@ 0x44
2000413e:	2b01      	cmp	r3, #1
20004140:	d1fc      	bne.n	2000413c <runtime_init_clocks+0x14>
20004142:	2203      	movs	r2, #3
20004144:	4b25      	ldr	r3, [pc, #148]	@ (200041dc <runtime_init_clocks+0xb4>)
20004146:	601a      	str	r2, [r3, #0]
20004148:	4a22      	ldr	r2, [pc, #136]	@ (200041d4 <runtime_init_clocks+0xac>)
2000414a:	6b93      	ldr	r3, [r2, #56]	@ 0x38
2000414c:	2b01      	cmp	r3, #1
2000414e:	d1fc      	bne.n	2000414a <runtime_init_clocks+0x22>
20004150:	3301      	adds	r3, #1
20004152:	9300      	str	r3, [sp, #0]
20004154:	2101      	movs	r1, #1
20004156:	4a22      	ldr	r2, [pc, #136]	@ (200041e0 <runtime_init_clocks+0xb8>)
20004158:	4822      	ldr	r0, [pc, #136]	@ (200041e4 <runtime_init_clocks+0xbc>)
2000415a:	3304      	adds	r3, #4
2000415c:	f7ff fe84 	bl	20003e68 <pll_init>
20004160:	2305      	movs	r3, #5
20004162:	2101      	movs	r1, #1
20004164:	9300      	str	r3, [sp, #0]
20004166:	4a20      	ldr	r2, [pc, #128]	@ (200041e8 <runtime_init_clocks+0xc0>)
20004168:	4820      	ldr	r0, [pc, #128]	@ (200041ec <runtime_init_clocks+0xc4>)
2000416a:	f7ff fe7d 	bl	20003e68 <pll_init>
2000416e:	2200      	movs	r2, #0
20004170:	2102      	movs	r1, #2
20004172:	2004      	movs	r0, #4
20004174:	4b1e      	ldr	r3, [pc, #120]	@ (200041f0 <runtime_init_clocks+0xc8>)
20004176:	f7ff fe01 	bl	20003d7c <clock_configure_undivided>
2000417a:	2200      	movs	r2, #0
2000417c:	2101      	movs	r1, #1
2000417e:	2005      	movs	r0, #5
20004180:	4b1c      	ldr	r3, [pc, #112]	@ (200041f4 <runtime_init_clocks+0xcc>)
20004182:	f7ff fdfb 	bl	20003d7c <clock_configure_undivided>
20004186:	2200      	movs	r2, #0
20004188:	2100      	movs	r1, #0
2000418a:	2007      	movs	r0, #7
2000418c:	4b1a      	ldr	r3, [pc, #104]	@ (200041f8 <runtime_init_clocks+0xd0>)
2000418e:	f7ff fdf5 	bl	20003d7c <clock_configure_undivided>
20004192:	2200      	movs	r2, #0
20004194:	2100      	movs	r1, #0
20004196:	2008      	movs	r0, #8
20004198:	4b17      	ldr	r3, [pc, #92]	@ (200041f8 <runtime_init_clocks+0xd0>)
2000419a:	f7ff fdef 	bl	20003d7c <clock_configure_undivided>
2000419e:	2380      	movs	r3, #128	@ 0x80
200041a0:	00db      	lsls	r3, r3, #3
200041a2:	9300      	str	r3, [sp, #0]
200041a4:	2200      	movs	r2, #0
200041a6:	2100      	movs	r1, #0
200041a8:	2009      	movs	r0, #9
200041aa:	4b13      	ldr	r3, [pc, #76]	@ (200041f8 <runtime_init_clocks+0xd0>)
200041ac:	f7ff fd70 	bl	20003c90 <clock_configure_int_divider>
200041b0:	2200      	movs	r2, #0
200041b2:	4b10      	ldr	r3, [pc, #64]	@ (200041f4 <runtime_init_clocks+0xcc>)
200041b4:	2100      	movs	r1, #0
200041b6:	2006      	movs	r0, #6
200041b8:	f7ff fde0 	bl	20003d7c <clock_configure_undivided>
200041bc:	2004      	movs	r0, #4
200041be:	f7ff fe4d 	bl	20003e5c <clock_get_hz>
200041c2:	490e      	ldr	r1, [pc, #56]	@ (200041fc <runtime_init_clocks+0xd4>)
200041c4:	f000 f84c 	bl	20004260 <__wrap___aeabi_uidiv>
200041c8:	0001      	movs	r1, r0
200041ca:	2000      	movs	r0, #0
200041cc:	f7ff fea4 	bl	20003f18 <tick_start>
200041d0:	b002      	add	sp, #8
200041d2:	bd10      	pop	{r4, pc}
200041d4:	40008000 	.word	0x40008000
200041d8:	4000b03c 	.word	0x4000b03c
200041dc:	4000b030 	.word	0x4000b030
200041e0:	59682f00 	.word	0x59682f00
200041e4:	40028000 	.word	0x40028000
200041e8:	47868c00 	.word	0x47868c00
200041ec:	4002c000 	.word	0x4002c000
200041f0:	00b71b00 	.word	0x00b71b00
200041f4:	07735940 	.word	0x07735940
200041f8:	02dc6c00 	.word	0x02dc6c00
200041fc:	000f4240 	.word	0x000f4240

20004200 <__aeabi_bits_init>:
20004200:	4801      	ldr	r0, [pc, #4]	@ (20004208 <__aeabi_bits_init+0x8>)
20004202:	2104      	movs	r1, #4
20004204:	4b01      	ldr	r3, [pc, #4]	@ (2000420c <__aeabi_bits_init+0xc>)
20004206:	4718      	bx	r3
20004208:	200069d0 	.word	0x200069d0
2000420c:	20003f49 	.word	0x20003f49

20004210 <__wrap___aeabi_idiv>:
20004210:	4a12      	ldr	r2, [pc, #72]	@ (2000425c <divmod_s32s32_savestate+0x18>)
20004212:	6f93      	ldr	r3, [r2, #120]	@ 0x78
20004214:	089b      	lsrs	r3, r3, #2
20004216:	d215      	bcs.n	20004244 <divmod_s32s32_savestate>

20004218 <divmod_s32s32_unsafe>:
20004218:	6690      	str	r0, [r2, #104]	@ 0x68
2000421a:	66d1      	str	r1, [r2, #108]	@ 0x6c
2000421c:	2900      	cmp	r1, #0
2000421e:	d005      	beq.n	2000422c <divmod_s32s32_unsafe+0x14>
20004220:	e7ff      	b.n	20004222 <divmod_s32s32_unsafe+0xa>
20004222:	e7ff      	b.n	20004224 <divmod_s32s32_unsafe+0xc>
20004224:	e7ff      	b.n	20004226 <divmod_s32s32_unsafe+0xe>
20004226:	6f51      	ldr	r1, [r2, #116]	@ 0x74
20004228:	6f10      	ldr	r0, [r2, #112]	@ 0x70
2000422a:	4770      	bx	lr
2000422c:	b504      	push	{r2, lr}
2000422e:	2180      	movs	r1, #128	@ 0x80
20004230:	0609      	lsls	r1, r1, #24
20004232:	17c2      	asrs	r2, r0, #31
20004234:	4051      	eors	r1, r2
20004236:	2800      	cmp	r0, #0
20004238:	d000      	beq.n	2000423c <divmod_s32s32_unsafe+0x24>
2000423a:	43c8      	mvns	r0, r1
2000423c:	f000 fe3a 	bl	20004eb4 <__aeabi_idiv0>
20004240:	2100      	movs	r1, #0
20004242:	bd04      	pop	{r2, pc}

20004244 <divmod_s32s32_savestate>:
20004244:	b5f0      	push	{r4, r5, r6, r7, lr}
20004246:	6e14      	ldr	r4, [r2, #96]	@ 0x60
20004248:	6e55      	ldr	r5, [r2, #100]	@ 0x64
2000424a:	6f57      	ldr	r7, [r2, #116]	@ 0x74
2000424c:	6f16      	ldr	r6, [r2, #112]	@ 0x70
2000424e:	f7ff ffe3 	bl	20004218 <divmod_s32s32_unsafe>
20004252:	6614      	str	r4, [r2, #96]	@ 0x60
20004254:	6655      	str	r5, [r2, #100]	@ 0x64
20004256:	6757      	str	r7, [r2, #116]	@ 0x74
20004258:	6716      	str	r6, [r2, #112]	@ 0x70
2000425a:	bdf0      	pop	{r4, r5, r6, r7, pc}
2000425c:	d0000000 	.word	0xd0000000

20004260 <__wrap___aeabi_uidiv>:
20004260:	4a11      	ldr	r2, [pc, #68]	@ (200042a8 <divmod_u32u32_savestate+0x18>)
20004262:	6f93      	ldr	r3, [r2, #120]	@ 0x78
20004264:	089b      	lsrs	r3, r3, #2
20004266:	d213      	bcs.n	20004290 <divmod_u32u32_savestate>

20004268 <divmod_u32u32_unsafe>:
20004268:	6610      	str	r0, [r2, #96]	@ 0x60
2000426a:	6651      	str	r1, [r2, #100]	@ 0x64
2000426c:	2900      	cmp	r1, #0
2000426e:	d005      	beq.n	2000427c <divmod_u32u32_unsafe+0x14>
20004270:	e7ff      	b.n	20004272 <divmod_u32u32_unsafe+0xa>
20004272:	e7ff      	b.n	20004274 <divmod_u32u32_unsafe+0xc>
20004274:	e7ff      	b.n	20004276 <divmod_u32u32_unsafe+0xe>
20004276:	6f51      	ldr	r1, [r2, #116]	@ 0x74
20004278:	6f10      	ldr	r0, [r2, #112]	@ 0x70
2000427a:	4770      	bx	lr
2000427c:	b504      	push	{r2, lr}
2000427e:	2800      	cmp	r0, #0
20004280:	d001      	beq.n	20004286 <divmod_u32u32_unsafe+0x1e>
20004282:	2000      	movs	r0, #0
20004284:	43c0      	mvns	r0, r0
20004286:	f000 fe15 	bl	20004eb4 <__aeabi_idiv0>
2000428a:	2100      	movs	r1, #0
2000428c:	bd04      	pop	{r2, pc}
2000428e:	46c0      	nop			@ (mov r8, r8)

20004290 <divmod_u32u32_savestate>:
20004290:	b5f0      	push	{r4, r5, r6, r7, lr}
20004292:	6e14      	ldr	r4, [r2, #96]	@ 0x60
20004294:	6e55      	ldr	r5, [r2, #100]	@ 0x64
20004296:	6f57      	ldr	r7, [r2, #116]	@ 0x74
20004298:	6f16      	ldr	r6, [r2, #112]	@ 0x70
2000429a:	f7ff ffe5 	bl	20004268 <divmod_u32u32_unsafe>
2000429e:	6614      	str	r4, [r2, #96]	@ 0x60
200042a0:	6655      	str	r5, [r2, #100]	@ 0x64
200042a2:	6757      	str	r7, [r2, #116]	@ 0x74
200042a4:	6716      	str	r6, [r2, #112]	@ 0x70
200042a6:	bdf0      	pop	{r4, r5, r6, r7, pc}
200042a8:	d0000000 	.word	0xd0000000

200042ac <__aeabi_double_init>:
200042ac:	2313      	movs	r3, #19
200042ae:	b570      	push	{r4, r5, r6, lr}
200042b0:	781d      	ldrb	r5, [r3, #0]
200042b2:	2d01      	cmp	r5, #1
200042b4:	d019      	beq.n	200042ea <__aeabi_double_init+0x3e>
200042b6:	dd14      	ble.n	200042e2 <__aeabi_double_init+0x36>
200042b8:	481f      	ldr	r0, [pc, #124]	@ (20004338 <__aeabi_double_init+0x8c>)
200042ba:	f7ff fe3d 	bl	20003f38 <rom_data_lookup>
200042be:	0006      	movs	r6, r0
200042c0:	481e      	ldr	r0, [pc, #120]	@ (2000433c <__aeabi_double_init+0x90>)
200042c2:	f7ff fe39 	bl	20003f38 <rom_data_lookup>
200042c6:	4c1e      	ldr	r4, [pc, #120]	@ (20004340 <__aeabi_double_init+0x94>)
200042c8:	2280      	movs	r2, #128	@ 0x80
200042ca:	0031      	movs	r1, r6
200042cc:	0020      	movs	r0, r4
200042ce:	f000 f981 	bl	200045d4 <__wrap___aeabi_memcpy>
200042d2:	2d02      	cmp	r5, #2
200042d4:	d02d      	beq.n	20004332 <__aeabi_double_init+0x86>
200042d6:	481b      	ldr	r0, [pc, #108]	@ (20004344 <__aeabi_double_init+0x98>)
200042d8:	f7ff fe26 	bl	20003f28 <rom_func_lookup>
200042dc:	4b1a      	ldr	r3, [pc, #104]	@ (20004348 <__aeabi_double_init+0x9c>)
200042de:	6018      	str	r0, [r3, #0]
200042e0:	bd70      	pop	{r4, r5, r6, pc}
200042e2:	4b1a      	ldr	r3, [pc, #104]	@ (2000434c <__aeabi_double_init+0xa0>)
200042e4:	4c16      	ldr	r4, [pc, #88]	@ (20004340 <__aeabi_double_init+0x94>)
200042e6:	64a3      	str	r3, [r4, #72]	@ 0x48
200042e8:	e7f5      	b.n	200042d6 <__aeabi_double_init+0x2a>
200042ea:	4b18      	ldr	r3, [pc, #96]	@ (2000434c <__aeabi_double_init+0xa0>)
200042ec:	4c14      	ldr	r4, [pc, #80]	@ (20004340 <__aeabi_double_init+0x94>)
200042ee:	6023      	str	r3, [r4, #0]
200042f0:	6063      	str	r3, [r4, #4]
200042f2:	60a3      	str	r3, [r4, #8]
200042f4:	60e3      	str	r3, [r4, #12]
200042f6:	6123      	str	r3, [r4, #16]
200042f8:	6163      	str	r3, [r4, #20]
200042fa:	61a3      	str	r3, [r4, #24]
200042fc:	61e3      	str	r3, [r4, #28]
200042fe:	6223      	str	r3, [r4, #32]
20004300:	6263      	str	r3, [r4, #36]	@ 0x24
20004302:	62a3      	str	r3, [r4, #40]	@ 0x28
20004304:	62e3      	str	r3, [r4, #44]	@ 0x2c
20004306:	6323      	str	r3, [r4, #48]	@ 0x30
20004308:	6363      	str	r3, [r4, #52]	@ 0x34
2000430a:	63a3      	str	r3, [r4, #56]	@ 0x38
2000430c:	63e3      	str	r3, [r4, #60]	@ 0x3c
2000430e:	6423      	str	r3, [r4, #64]	@ 0x40
20004310:	6463      	str	r3, [r4, #68]	@ 0x44
20004312:	64a3      	str	r3, [r4, #72]	@ 0x48
20004314:	64e3      	str	r3, [r4, #76]	@ 0x4c
20004316:	6523      	str	r3, [r4, #80]	@ 0x50
20004318:	6563      	str	r3, [r4, #84]	@ 0x54
2000431a:	65a3      	str	r3, [r4, #88]	@ 0x58
2000431c:	65e3      	str	r3, [r4, #92]	@ 0x5c
2000431e:	6623      	str	r3, [r4, #96]	@ 0x60
20004320:	6663      	str	r3, [r4, #100]	@ 0x64
20004322:	66a3      	str	r3, [r4, #104]	@ 0x68
20004324:	66e3      	str	r3, [r4, #108]	@ 0x6c
20004326:	6723      	str	r3, [r4, #112]	@ 0x70
20004328:	6763      	str	r3, [r4, #116]	@ 0x74
2000432a:	67a3      	str	r3, [r4, #120]	@ 0x78
2000432c:	67e3      	str	r3, [r4, #124]	@ 0x7c
2000432e:	64a3      	str	r3, [r4, #72]	@ 0x48
20004330:	e7d1      	b.n	200042d6 <__aeabi_double_init+0x2a>
20004332:	4b06      	ldr	r3, [pc, #24]	@ (2000434c <__aeabi_double_init+0xa0>)
20004334:	64a3      	str	r3, [r4, #72]	@ 0x48
20004336:	e7ce      	b.n	200042d6 <__aeabi_double_init+0x2a>
20004338:	00004453 	.word	0x00004453
2000433c:	00004653 	.word	0x00004653
20004340:	20006df0 	.word	0x20006df0
20004344:	0000334c 	.word	0x0000334c
20004348:	20007188 	.word	0x20007188
2000434c:	20004351 	.word	0x20004351

20004350 <double_table_shim_on_use_helper>:
20004350:	b507      	push	{r0, r1, r2, lr}
20004352:	4660      	mov	r0, ip
20004354:	8801      	ldrh	r1, [r0, #0]
20004356:	0a0a      	lsrs	r2, r1, #8
20004358:	3002      	adds	r0, #2
2000435a:	2adf      	cmp	r2, #223	@ 0xdf
2000435c:	d1fa      	bne.n	20004354 <double_table_shim_on_use_helper+0x4>
2000435e:	b2c9      	uxtb	r1, r1
20004360:	0882      	lsrs	r2, r0, #2
20004362:	d304      	bcc.n	2000436e <double_table_shim_on_use_helper+0x1e>
20004364:	8802      	ldrh	r2, [r0, #0]
20004366:	8840      	ldrh	r0, [r0, #2]
20004368:	0400      	lsls	r0, r0, #16
2000436a:	4310      	orrs	r0, r2
2000436c:	e000      	b.n	20004370 <double_table_shim_on_use_helper+0x20>
2000436e:	6800      	ldr	r0, [r0, #0]
20004370:	4a01      	ldr	r2, [pc, #4]	@ (20004378 <double_table_shim_on_use_helper+0x28>)
20004372:	5050      	str	r0, [r2, r1]
20004374:	9003      	str	r0, [sp, #12]
20004376:	bd07      	pop	{r0, r1, r2, pc}
20004378:	20006df0 	.word	0x20006df0

2000437c <__wrap___aeabi_lmul>:
2000437c:	4351      	muls	r1, r2
2000437e:	4343      	muls	r3, r0
20004380:	18c9      	adds	r1, r1, r3
20004382:	468c      	mov	ip, r1
20004384:	0c11      	lsrs	r1, r2, #16
20004386:	b283      	uxth	r3, r0
20004388:	434b      	muls	r3, r1
2000438a:	b410      	push	{r4}
2000438c:	0c04      	lsrs	r4, r0, #16
2000438e:	4361      	muls	r1, r4
20004390:	b292      	uxth	r2, r2
20004392:	b280      	uxth	r0, r0
20004394:	4350      	muls	r0, r2
20004396:	4362      	muls	r2, r4
20004398:	041c      	lsls	r4, r3, #16
2000439a:	0c1b      	lsrs	r3, r3, #16
2000439c:	1900      	adds	r0, r0, r4
2000439e:	bc10      	pop	{r4}
200043a0:	4159      	adcs	r1, r3
200043a2:	0413      	lsls	r3, r2, #16
200043a4:	0c12      	lsrs	r2, r2, #16
200043a6:	18c0      	adds	r0, r0, r3
200043a8:	4151      	adcs	r1, r2
200043aa:	4461      	add	r1, ip
200043ac:	4770      	bx	lr
	...

200043b0 <__wrap___aeabi_frsub>:
200043b0:	4048      	eors	r0, r1
200043b2:	4041      	eors	r1, r0
200043b4:	4048      	eors	r0, r1

200043b6 <__wrap___aeabi_fsub>:
200043b6:	4b0e      	ldr	r3, [pc, #56]	@ (200043f0 <__wrap___aeabi_fmul+0x6>)
200043b8:	685b      	ldr	r3, [r3, #4]
200043ba:	4718      	bx	r3

200043bc <__wrap___aeabi_fadd>:
200043bc:	4b0c      	ldr	r3, [pc, #48]	@ (200043f0 <__wrap___aeabi_fmul+0x6>)
200043be:	681b      	ldr	r3, [r3, #0]
200043c0:	4718      	bx	r3

200043c2 <__wrap___aeabi_fdiv>:
200043c2:	4a0c      	ldr	r2, [pc, #48]	@ (200043f4 <__wrap___aeabi_fmul+0xa>)
200043c4:	6f93      	ldr	r3, [r2, #120]	@ 0x78
200043c6:	089b      	lsrs	r3, r3, #2
200043c8:	d202      	bcs.n	200043d0 <fdiv_save_state>

200043ca <fdiv_shim_call>:
200043ca:	4b09      	ldr	r3, [pc, #36]	@ (200043f0 <__wrap___aeabi_fmul+0x6>)
200043cc:	68db      	ldr	r3, [r3, #12]
200043ce:	4718      	bx	r3

200043d0 <fdiv_save_state>:
200043d0:	b5f0      	push	{r4, r5, r6, r7, lr}
200043d2:	6e14      	ldr	r4, [r2, #96]	@ 0x60
200043d4:	6e55      	ldr	r5, [r2, #100]	@ 0x64
200043d6:	6f57      	ldr	r7, [r2, #116]	@ 0x74
200043d8:	6f16      	ldr	r6, [r2, #112]	@ 0x70
200043da:	f7ff fff6 	bl	200043ca <fdiv_shim_call>
200043de:	4a05      	ldr	r2, [pc, #20]	@ (200043f4 <__wrap___aeabi_fmul+0xa>)
200043e0:	6614      	str	r4, [r2, #96]	@ 0x60
200043e2:	6655      	str	r5, [r2, #100]	@ 0x64
200043e4:	6757      	str	r7, [r2, #116]	@ 0x74
200043e6:	6716      	str	r6, [r2, #112]	@ 0x70
200043e8:	bdf0      	pop	{r4, r5, r6, r7, pc}

200043ea <__wrap___aeabi_fmul>:
200043ea:	4b01      	ldr	r3, [pc, #4]	@ (200043f0 <__wrap___aeabi_fmul+0x6>)
200043ec:	689b      	ldr	r3, [r3, #8]
200043ee:	4718      	bx	r3
200043f0:	20006ef0 	.word	0x20006ef0
200043f4:	d0000000 	.word	0xd0000000

200043f8 <__wrap___aeabi_cfrcmple>:
200043f8:	b507      	push	{r0, r1, r2, lr}
200043fa:	4048      	eors	r0, r1
200043fc:	4041      	eors	r1, r0
200043fe:	4048      	eors	r0, r1
20004400:	e001      	b.n	20004406 <__aeabi_cfcmple_guts>
20004402:	46c0      	nop			@ (mov r8, r8)

20004404 <__wrap___aeabi_cfcmpeq>:
20004404:	b507      	push	{r0, r1, r2, lr}

20004406 <__aeabi_cfcmple_guts>:
20004406:	0042      	lsls	r2, r0, #1
20004408:	0e12      	lsrs	r2, r2, #24
2000440a:	d003      	beq.n	20004414 <__aeabi_cfcmple_guts+0xe>
2000440c:	2aff      	cmp	r2, #255	@ 0xff
2000440e:	d103      	bne.n	20004418 <__aeabi_cfcmple_guts+0x12>
20004410:	0242      	lsls	r2, r0, #9
20004412:	d818      	bhi.n	20004446 <__aeabi_cfcmple_guts+0x40>
20004414:	0dc0      	lsrs	r0, r0, #23
20004416:	05c0      	lsls	r0, r0, #23
20004418:	004a      	lsls	r2, r1, #1
2000441a:	0e12      	lsrs	r2, r2, #24
2000441c:	d003      	beq.n	20004426 <__aeabi_cfcmple_guts+0x20>
2000441e:	2aff      	cmp	r2, #255	@ 0xff
20004420:	d103      	bne.n	2000442a <__aeabi_cfcmple_guts+0x24>
20004422:	024a      	lsls	r2, r1, #9
20004424:	d80f      	bhi.n	20004446 <__aeabi_cfcmple_guts+0x40>
20004426:	0dc9      	lsrs	r1, r1, #23
20004428:	05c9      	lsls	r1, r1, #23
2000442a:	2201      	movs	r2, #1
2000442c:	4041      	eors	r1, r0
2000442e:	d405      	bmi.n	2000443c <__aeabi_cfcmple_guts+0x36>
20004430:	4041      	eors	r1, r0
20004432:	d501      	bpl.n	20004438 <__aeabi_cfcmple_guts+0x32>
20004434:	4281      	cmp	r1, r0
20004436:	bd07      	pop	{r0, r1, r2, pc}
20004438:	4288      	cmp	r0, r1
2000443a:	bd07      	pop	{r0, r1, r2, pc}
2000443c:	4301      	orrs	r1, r0
2000443e:	1849      	adds	r1, r1, r1
20004440:	d001      	beq.n	20004446 <__aeabi_cfcmple_guts+0x40>
20004442:	43c0      	mvns	r0, r0
20004444:	1800      	adds	r0, r0, r0
20004446:	bd07      	pop	{r0, r1, r2, pc}

20004448 <__wrap___aeabi_fcmpeq>:
20004448:	b500      	push	{lr}
2000444a:	f7ff ffdb 	bl	20004404 <__wrap___aeabi_cfcmpeq>
2000444e:	d001      	beq.n	20004454 <__wrap___aeabi_fcmpeq+0xc>
20004450:	2000      	movs	r0, #0
20004452:	bd00      	pop	{pc}
20004454:	2001      	movs	r0, #1
20004456:	bd00      	pop	{pc}

20004458 <__wrap___aeabi_i2f>:
20004458:	0fc1      	lsrs	r1, r0, #31
2000445a:	07c9      	lsls	r1, r1, #31
2000445c:	d500      	bpl.n	20004460 <__wrap___aeabi_i2f+0x8>
2000445e:	4240      	negs	r0, r0
20004460:	2800      	cmp	r0, #0
20004462:	d017      	beq.n	20004494 <__aeabi_i2f_main+0x30>

20004464 <__aeabi_i2f_main>:
20004464:	46f4      	mov	ip, lr
20004466:	b403      	push	{r0, r1}
20004468:	4b0b      	ldr	r3, [pc, #44]	@ (20004498 <__aeabi_i2f_main+0x34>)
2000446a:	681b      	ldr	r3, [r3, #0]
2000446c:	4798      	blx	r3
2000446e:	bc06      	pop	{r1, r2}
20004470:	4081      	lsls	r1, r0
20004472:	389e      	subs	r0, #158	@ 0x9e
20004474:	4240      	negs	r0, r0
20004476:	3180      	adds	r1, #128	@ 0x80
20004478:	d207      	bcs.n	2000448a <__aeabi_i2f_main+0x26>
2000447a:	060b      	lsls	r3, r1, #24
2000447c:	d007      	beq.n	2000448e <__aeabi_i2f_main+0x2a>
2000447e:	0049      	lsls	r1, r1, #1
20004480:	0a49      	lsrs	r1, r1, #9
20004482:	05c0      	lsls	r0, r0, #23
20004484:	4310      	orrs	r0, r2
20004486:	4308      	orrs	r0, r1
20004488:	4760      	bx	ip
2000448a:	3001      	adds	r0, #1
2000448c:	e7f8      	b.n	20004480 <__aeabi_i2f_main+0x1c>
2000448e:	0a49      	lsrs	r1, r1, #9
20004490:	0289      	lsls	r1, r1, #10
20004492:	e7f5      	b.n	20004480 <__aeabi_i2f_main+0x1c>
20004494:	4770      	bx	lr
20004496:	0000      	.short	0x0000
20004498:	20007188 	.word	0x20007188

2000449c <__wrap___aeabi_f2iz>:
2000449c:	0041      	lsls	r1, r0, #1
2000449e:	0e0a      	lsrs	r2, r1, #24
200044a0:	2380      	movs	r3, #128	@ 0x80
200044a2:	061b      	lsls	r3, r3, #24
200044a4:	2a7e      	cmp	r2, #126	@ 0x7e
200044a6:	dd0b      	ble.n	200044c0 <__wrap___aeabi_f2iz+0x24>
200044a8:	3a9e      	subs	r2, #158	@ 0x9e
200044aa:	da0b      	bge.n	200044c4 <__wrap___aeabi_f2iz+0x28>
200044ac:	17c1      	asrs	r1, r0, #31
200044ae:	0240      	lsls	r0, r0, #9
200044b0:	0840      	lsrs	r0, r0, #1
200044b2:	4318      	orrs	r0, r3
200044b4:	4252      	negs	r2, r2
200044b6:	40d0      	lsrs	r0, r2
200044b8:	0049      	lsls	r1, r1, #1
200044ba:	3101      	adds	r1, #1
200044bc:	4348      	muls	r0, r1
200044be:	4770      	bx	lr
200044c0:	2000      	movs	r0, #0
200044c2:	4770      	bx	lr
200044c4:	0fc0      	lsrs	r0, r0, #31
200044c6:	18c0      	adds	r0, r0, r3
200044c8:	3801      	subs	r0, #1
200044ca:	4770      	bx	lr
200044cc:	42c0      	cmn	r0, r0
200044ce:	d30d      	bcc.n	200044ec <float2int>
200044d0:	b500      	push	{lr}
200044d2:	0040      	lsls	r0, r0, #1
200044d4:	0840      	lsrs	r0, r0, #1
200044d6:	2100      	movs	r1, #0
200044d8:	f000 f812 	bl	20004500 <__wrap___aeabi_f2uiz>
200044dc:	2800      	cmp	r0, #0
200044de:	d401      	bmi.n	200044e4 <__wrap___aeabi_f2iz+0x48>
200044e0:	4240      	negs	r0, r0
200044e2:	bd00      	pop	{pc}
200044e4:	2080      	movs	r0, #128	@ 0x80
200044e6:	0600      	lsls	r0, r0, #24
200044e8:	bd00      	pop	{pc}
	...

200044ec <float2int>:
200044ec:	4b03      	ldr	r3, [pc, #12]	@ (200044fc <float2int+0x10>)
200044ee:	69db      	ldr	r3, [r3, #28]
200044f0:	46fc      	mov	ip, pc
200044f2:	4718      	bx	r3
200044f4:	45a1df1c 	.word	0x45a1df1c
200044f8:	00002000 	.word	0x00002000
200044fc:	20006ef0 	.word	0x20006ef0

20004500 <__wrap___aeabi_f2uiz>:
20004500:	4b01      	ldr	r3, [pc, #4]	@ (20004508 <__wrap___aeabi_f2uiz+0x8>)
20004502:	6a5b      	ldr	r3, [r3, #36]	@ 0x24
20004504:	4718      	bx	r3
20004506:	0000      	.short	0x0000
20004508:	20006ef0 	.word	0x20006ef0

2000450c <__aeabi_float_init>:
2000450c:	2313      	movs	r3, #19
2000450e:	b510      	push	{r4, lr}
20004510:	781c      	ldrb	r4, [r3, #0]
20004512:	4813      	ldr	r0, [pc, #76]	@ (20004560 <__aeabi_float_init+0x54>)
20004514:	f7ff fd10 	bl	20003f38 <rom_data_lookup>
20004518:	2c01      	cmp	r4, #1
2000451a:	d00b      	beq.n	20004534 <__aeabi_float_init+0x28>
2000451c:	dd04      	ble.n	20004528 <__aeabi_float_init+0x1c>
2000451e:	0001      	movs	r1, r0
20004520:	2280      	movs	r2, #128	@ 0x80
20004522:	4810      	ldr	r0, [pc, #64]	@ (20004564 <__aeabi_float_init+0x58>)
20004524:	f000 f856 	bl	200045d4 <__wrap___aeabi_memcpy>
20004528:	480f      	ldr	r0, [pc, #60]	@ (20004568 <__aeabi_float_init+0x5c>)
2000452a:	f7ff fcfd 	bl	20003f28 <rom_func_lookup>
2000452e:	4b0f      	ldr	r3, [pc, #60]	@ (2000456c <__aeabi_float_init+0x60>)
20004530:	6018      	str	r0, [r3, #0]
20004532:	bd10      	pop	{r4, pc}
20004534:	4c0b      	ldr	r4, [pc, #44]	@ (20004564 <__aeabi_float_init+0x58>)
20004536:	0001      	movs	r1, r0
20004538:	2254      	movs	r2, #84	@ 0x54
2000453a:	0020      	movs	r0, r4
2000453c:	f000 f84a 	bl	200045d4 <__wrap___aeabi_memcpy>
20004540:	4b0b      	ldr	r3, [pc, #44]	@ (20004570 <__aeabi_float_init+0x64>)
20004542:	6563      	str	r3, [r4, #84]	@ 0x54
20004544:	65a3      	str	r3, [r4, #88]	@ 0x58
20004546:	65e3      	str	r3, [r4, #92]	@ 0x5c
20004548:	6623      	str	r3, [r4, #96]	@ 0x60
2000454a:	6663      	str	r3, [r4, #100]	@ 0x64
2000454c:	66a3      	str	r3, [r4, #104]	@ 0x68
2000454e:	66e3      	str	r3, [r4, #108]	@ 0x6c
20004550:	6723      	str	r3, [r4, #112]	@ 0x70
20004552:	6763      	str	r3, [r4, #116]	@ 0x74
20004554:	67a3      	str	r3, [r4, #120]	@ 0x78
20004556:	67e3      	str	r3, [r4, #124]	@ 0x7c
20004558:	6223      	str	r3, [r4, #32]
2000455a:	61e3      	str	r3, [r4, #28]
2000455c:	e7e4      	b.n	20004528 <__aeabi_float_init+0x1c>
2000455e:	46c0      	nop			@ (mov r8, r8)
20004560:	00004653 	.word	0x00004653
20004564:	20006ef0 	.word	0x20006ef0
20004568:	0000334c 	.word	0x0000334c
2000456c:	20007188 	.word	0x20007188
20004570:	20004575 	.word	0x20004575

20004574 <float_table_shim_on_use_helper>:
20004574:	b507      	push	{r0, r1, r2, lr}
20004576:	4660      	mov	r0, ip
20004578:	8801      	ldrh	r1, [r0, #0]
2000457a:	0a0a      	lsrs	r2, r1, #8
2000457c:	3002      	adds	r0, #2
2000457e:	2adf      	cmp	r2, #223	@ 0xdf
20004580:	d1fa      	bne.n	20004578 <float_table_shim_on_use_helper+0x4>
20004582:	b2c9      	uxtb	r1, r1
20004584:	0882      	lsrs	r2, r0, #2
20004586:	d304      	bcc.n	20004592 <float_table_shim_on_use_helper+0x1e>
20004588:	8802      	ldrh	r2, [r0, #0]
2000458a:	8840      	ldrh	r0, [r0, #2]
2000458c:	0400      	lsls	r0, r0, #16
2000458e:	4310      	orrs	r0, r2
20004590:	e000      	b.n	20004594 <float_table_shim_on_use_helper+0x20>
20004592:	6800      	ldr	r0, [r0, #0]
20004594:	4a01      	ldr	r2, [pc, #4]	@ (2000459c <float_table_shim_on_use_helper+0x28>)
20004596:	5050      	str	r0, [r2, r1]
20004598:	9003      	str	r0, [sp, #12]
2000459a:	bd07      	pop	{r0, r1, r2, pc}
2000459c:	20006ef0 	.word	0x20006ef0

200045a0 <float2int_shim>:
200045a0:	2100      	movs	r1, #0

200045a2 <float2fix_shim>:
200045a2:	15c2      	asrs	r2, r0, #23
200045a4:	3280      	adds	r2, #128	@ 0x80
200045a6:	3280      	adds	r2, #128	@ 0x80
200045a8:	d001      	beq.n	200045ae <float2fix_shim+0xc>
200045aa:	4a02      	ldr	r2, [pc, #8]	@ (200045b4 <float2fix_shim+0x12>)
200045ac:	4710      	bx	r2
200045ae:	2000      	movs	r0, #0
200045b0:	4770      	bx	lr
200045b2:	0000      	.short	0x0000
200045b4:	00002acd 	.word	0x00002acd

200045b8 <__aeabi_mem_init>:
200045b8:	4801      	ldr	r0, [pc, #4]	@ (200045c0 <__aeabi_mem_init+0x8>)
200045ba:	2104      	movs	r1, #4
200045bc:	4b01      	ldr	r3, [pc, #4]	@ (200045c4 <__aeabi_mem_init+0xc>)
200045be:	4718      	bx	r3
200045c0:	200069e0 	.word	0x200069e0
200045c4:	20003f49 	.word	0x20003f49

200045c8 <__wrap_memset>:
200045c8:	4b01      	ldr	r3, [pc, #4]	@ (200045d0 <__wrap_memset+0x8>)
200045ca:	681b      	ldr	r3, [r3, #0]
200045cc:	4718      	bx	r3
200045ce:	0000      	.short	0x0000
200045d0:	200069e0 	.word	0x200069e0

200045d4 <__wrap___aeabi_memcpy>:
200045d4:	4b01      	ldr	r3, [pc, #4]	@ (200045dc <__wrap___aeabi_memcpy+0x8>)
200045d6:	685b      	ldr	r3, [r3, #4]
200045d8:	4718      	bx	r3
200045da:	0000      	.short	0x0000
200045dc:	200069e0 	.word	0x200069e0

200045e0 <_out_char>:
200045e0:	b510      	push	{r4, lr}
200045e2:	2800      	cmp	r0, #0
200045e4:	d100      	bne.n	200045e8 <_out_char+0x8>
200045e6:	bd10      	pop	{r4, pc}
200045e8:	f000 f900 	bl	200047ec <__wrap_putchar>
200045ec:	e7fb      	b.n	200045e6 <_out_char+0x6>
200045ee:	46c0      	nop			@ (mov r8, r8)

200045f0 <weak_raw_vprintf>:
200045f0:	b510      	push	{r4, lr}
200045f2:	4a09      	ldr	r2, [pc, #36]	@ (20004618 <weak_raw_vprintf+0x28>)
200045f4:	0003      	movs	r3, r0
200045f6:	6814      	ldr	r4, [r2, #0]
200045f8:	b084      	sub	sp, #16
200045fa:	2c00      	cmp	r4, #0
200045fc:	d008      	beq.n	20004610 <weak_raw_vprintf+0x20>
200045fe:	2201      	movs	r2, #1
20004600:	9100      	str	r1, [sp, #0]
20004602:	4806      	ldr	r0, [pc, #24]	@ (2000461c <weak_raw_vprintf+0x2c>)
20004604:	4252      	negs	r2, r2
20004606:	a903      	add	r1, sp, #12
20004608:	47a0      	blx	r4
2000460a:	2001      	movs	r0, #1
2000460c:	b004      	add	sp, #16
2000460e:	bd10      	pop	{r4, pc}
20004610:	f000 f936 	bl	20004880 <__wrap_puts>
20004614:	2000      	movs	r0, #0
20004616:	e7f9      	b.n	2000460c <weak_raw_vprintf+0x1c>
20004618:	20007154 	.word	0x20007154
2000461c:	200045e1 	.word	0x200045e1

20004620 <_exit>:
20004620:	be00      	bkpt	0x0000
20004622:	e7fd      	b.n	20004620 <_exit>

20004624 <exit>:
20004624:	b510      	push	{r4, lr}
20004626:	f7ff fffb 	bl	20004620 <_exit>
2000462a:	46c0      	nop			@ (mov r8, r8)

2000462c <runtime_init>:
2000462c:	b570      	push	{r4, r5, r6, lr}
2000462e:	f7ff fcc9 	bl	20003fc4 <runtime_run_initializers>
20004632:	4d07      	ldr	r5, [pc, #28]	@ (20004650 <runtime_init+0x24>)
20004634:	4e07      	ldr	r6, [pc, #28]	@ (20004654 <runtime_init+0x28>)
20004636:	42b5      	cmp	r5, r6
20004638:	d209      	bcs.n	2000464e <runtime_init+0x22>
2000463a:	2400      	movs	r4, #0
2000463c:	3e01      	subs	r6, #1
2000463e:	1b76      	subs	r6, r6, r5
20004640:	08b6      	lsrs	r6, r6, #2
20004642:	3601      	adds	r6, #1
20004644:	cd08      	ldmia	r5!, {r3}
20004646:	3401      	adds	r4, #1
20004648:	4798      	blx	r3
2000464a:	42b4      	cmp	r4, r6
2000464c:	d1fa      	bne.n	20004644 <runtime_init+0x18>
2000464e:	bd70      	pop	{r4, r5, r6, pc}
20004650:	20006a3c 	.word	0x20006a3c
20004654:	20006a48 	.word	0x20006a48

20004658 <stdio_out_chars_no_crlf>:
20004658:	0003      	movs	r3, r0
2000465a:	b510      	push	{r4, lr}
2000465c:	0008      	movs	r0, r1
2000465e:	0011      	movs	r1, r2
20004660:	681b      	ldr	r3, [r3, #0]
20004662:	4798      	blx	r3
20004664:	bd10      	pop	{r4, pc}
20004666:	46c0      	nop			@ (mov r8, r8)

20004668 <stdio_out_chars_crlf>:
20004668:	b5f8      	push	{r3, r4, r5, r6, r7, lr}
2000466a:	7d43      	ldrb	r3, [r0, #21]
2000466c:	0007      	movs	r7, r0
2000466e:	000d      	movs	r5, r1
20004670:	0016      	movs	r6, r2
20004672:	2b00      	cmp	r3, #0
20004674:	d038      	beq.n	200046e8 <stdio_out_chars_crlf+0x80>
20004676:	2a00      	cmp	r2, #0
20004678:	dd1a      	ble.n	200046b0 <stdio_out_chars_crlf+0x48>
2000467a:	780b      	ldrb	r3, [r1, #0]
2000467c:	2b0a      	cmp	r3, #10
2000467e:	d018      	beq.n	200046b2 <stdio_out_chars_crlf+0x4a>
20004680:	2000      	movs	r0, #0
20004682:	2e01      	cmp	r6, #1
20004684:	d009      	beq.n	2000469a <stdio_out_chars_crlf+0x32>
20004686:	2401      	movs	r4, #1
20004688:	0021      	movs	r1, r4
2000468a:	5c6b      	ldrb	r3, [r5, r1]
2000468c:	3401      	adds	r4, #1
2000468e:	2b0a      	cmp	r3, #10
20004690:	d01a      	beq.n	200046c8 <stdio_out_chars_crlf+0x60>
20004692:	42b4      	cmp	r4, r6
20004694:	d1f8      	bne.n	20004688 <stdio_out_chars_crlf+0x20>
20004696:	4286      	cmp	r6, r0
20004698:	dd03      	ble.n	200046a2 <stdio_out_chars_crlf+0x3a>
2000469a:	1a31      	subs	r1, r6, r0
2000469c:	683b      	ldr	r3, [r7, #0]
2000469e:	1828      	adds	r0, r5, r0
200046a0:	4798      	blx	r3
200046a2:	19ad      	adds	r5, r5, r6
200046a4:	3d01      	subs	r5, #1
200046a6:	782b      	ldrb	r3, [r5, #0]
200046a8:	3b0d      	subs	r3, #13
200046aa:	425a      	negs	r2, r3
200046ac:	4153      	adcs	r3, r2
200046ae:	753b      	strb	r3, [r7, #20]
200046b0:	bdf8      	pop	{r3, r4, r5, r6, r7, pc}
200046b2:	7d03      	ldrb	r3, [r0, #20]
200046b4:	2b00      	cmp	r3, #0
200046b6:	d1e3      	bne.n	20004680 <stdio_out_chars_crlf+0x18>
200046b8:	2102      	movs	r1, #2
200046ba:	480e      	ldr	r0, [pc, #56]	@ (200046f4 <stdio_out_chars_crlf+0x8c>)
200046bc:	683b      	ldr	r3, [r7, #0]
200046be:	4798      	blx	r3
200046c0:	2e01      	cmp	r6, #1
200046c2:	d0ee      	beq.n	200046a2 <stdio_out_chars_crlf+0x3a>
200046c4:	2001      	movs	r0, #1
200046c6:	e7de      	b.n	20004686 <stdio_out_chars_crlf+0x1e>
200046c8:	1e6b      	subs	r3, r5, #1
200046ca:	5c5b      	ldrb	r3, [r3, r1]
200046cc:	2b0d      	cmp	r3, #13
200046ce:	d0e0      	beq.n	20004692 <stdio_out_chars_crlf+0x2a>
200046d0:	4288      	cmp	r0, r1
200046d2:	da03      	bge.n	200046dc <stdio_out_chars_crlf+0x74>
200046d4:	1a09      	subs	r1, r1, r0
200046d6:	683b      	ldr	r3, [r7, #0]
200046d8:	1828      	adds	r0, r5, r0
200046da:	4798      	blx	r3
200046dc:	4805      	ldr	r0, [pc, #20]	@ (200046f4 <stdio_out_chars_crlf+0x8c>)
200046de:	2102      	movs	r1, #2
200046e0:	683b      	ldr	r3, [r7, #0]
200046e2:	4798      	blx	r3
200046e4:	0020      	movs	r0, r4
200046e6:	e7d4      	b.n	20004692 <stdio_out_chars_crlf+0x2a>
200046e8:	6803      	ldr	r3, [r0, #0]
200046ea:	0011      	movs	r1, r2
200046ec:	0028      	movs	r0, r5
200046ee:	4798      	blx	r3
200046f0:	e7de      	b.n	200046b0 <stdio_out_chars_crlf+0x48>
200046f2:	46c0      	nop			@ (mov r8, r8)
200046f4:	2000694c 	.word	0x2000694c

200046f8 <stdio_put_string>:
200046f8:	b5f0      	push	{r4, r5, r6, r7, lr}
200046fa:	4646      	mov	r6, r8
200046fc:	46d6      	mov	lr, sl
200046fe:	464f      	mov	r7, r9
20004700:	b5c0      	push	{r6, r7, lr}
20004702:	b082      	sub	sp, #8
20004704:	4690      	mov	r8, r2
20004706:	001c      	movs	r4, r3
20004708:	0006      	movs	r6, r0
2000470a:	000d      	movs	r5, r1
2000470c:	f7ff faa6 	bl	20003c5c <time_us_64>
20004710:	2300      	movs	r3, #0
20004712:	4a2f      	ldr	r2, [pc, #188]	@ (200047d0 <stdio_put_string+0xd8>)
20004714:	1812      	adds	r2, r2, r0
20004716:	414b      	adcs	r3, r1
20004718:	2b00      	cmp	r3, #0
2000471a:	da02      	bge.n	20004722 <stdio_put_string+0x2a>
2000471c:	2201      	movs	r2, #1
2000471e:	4b2d      	ldr	r3, [pc, #180]	@ (200047d4 <stdio_put_string+0xdc>)
20004720:	4252      	negs	r2, r2
20004722:	492d      	ldr	r1, [pc, #180]	@ (200047d8 <stdio_put_string+0xe0>)
20004724:	0008      	movs	r0, r1
20004726:	468a      	mov	sl, r1
20004728:	f000 ffec 	bl	20005704 <mutex_try_enter_block_until>
2000472c:	4681      	mov	r9, r0
2000472e:	1c6b      	adds	r3, r5, #1
20004730:	d103      	bne.n	2000473a <stdio_put_string+0x42>
20004732:	0030      	movs	r0, r6
20004734:	f000 fbc0 	bl	20004eb8 <strlen>
20004738:	0005      	movs	r5, r0
2000473a:	2c00      	cmp	r4, #0
2000473c:	d027      	beq.n	2000478e <stdio_put_string+0x96>
2000473e:	4f27      	ldr	r7, [pc, #156]	@ (200047dc <stdio_put_string+0xe4>)
20004740:	4b27      	ldr	r3, [pc, #156]	@ (200047e0 <stdio_put_string+0xe8>)
20004742:	681c      	ldr	r4, [r3, #0]
20004744:	2c00      	cmp	r4, #0
20004746:	d018      	beq.n	2000477a <stdio_put_string+0x82>
20004748:	4643      	mov	r3, r8
2000474a:	2b00      	cmp	r3, #0
2000474c:	d121      	bne.n	20004792 <stdio_put_string+0x9a>
2000474e:	4b25      	ldr	r3, [pc, #148]	@ (200047e4 <stdio_put_string+0xec>)
20004750:	4698      	mov	r8, r3
20004752:	e002      	b.n	2000475a <stdio_put_string+0x62>
20004754:	6924      	ldr	r4, [r4, #16]
20004756:	2c00      	cmp	r4, #0
20004758:	d00f      	beq.n	2000477a <stdio_put_string+0x82>
2000475a:	6823      	ldr	r3, [r4, #0]
2000475c:	2b00      	cmp	r3, #0
2000475e:	d0f9      	beq.n	20004754 <stdio_put_string+0x5c>
20004760:	4643      	mov	r3, r8
20004762:	681b      	ldr	r3, [r3, #0]
20004764:	2b00      	cmp	r3, #0
20004766:	d001      	beq.n	2000476c <stdio_put_string+0x74>
20004768:	429c      	cmp	r4, r3
2000476a:	d1f3      	bne.n	20004754 <stdio_put_string+0x5c>
2000476c:	0020      	movs	r0, r4
2000476e:	002a      	movs	r2, r5
20004770:	0031      	movs	r1, r6
20004772:	47b8      	blx	r7
20004774:	6924      	ldr	r4, [r4, #16]
20004776:	2c00      	cmp	r4, #0
20004778:	d1ef      	bne.n	2000475a <stdio_put_string+0x62>
2000477a:	464b      	mov	r3, r9
2000477c:	2b00      	cmp	r3, #0
2000477e:	d123      	bne.n	200047c8 <stdio_put_string+0xd0>
20004780:	0028      	movs	r0, r5
20004782:	b002      	add	sp, #8
20004784:	bce0      	pop	{r5, r6, r7}
20004786:	46ba      	mov	sl, r7
20004788:	46b1      	mov	r9, r6
2000478a:	46a8      	mov	r8, r5
2000478c:	bdf0      	pop	{r4, r5, r6, r7, pc}
2000478e:	4f16      	ldr	r7, [pc, #88]	@ (200047e8 <stdio_put_string+0xf0>)
20004790:	e7d6      	b.n	20004740 <stdio_put_string+0x48>
20004792:	4b14      	ldr	r3, [pc, #80]	@ (200047e4 <stdio_put_string+0xec>)
20004794:	4698      	mov	r8, r3
20004796:	e002      	b.n	2000479e <stdio_put_string+0xa6>
20004798:	6924      	ldr	r4, [r4, #16]
2000479a:	2c00      	cmp	r4, #0
2000479c:	d0ed      	beq.n	2000477a <stdio_put_string+0x82>
2000479e:	6823      	ldr	r3, [r4, #0]
200047a0:	2b00      	cmp	r3, #0
200047a2:	d0f9      	beq.n	20004798 <stdio_put_string+0xa0>
200047a4:	4643      	mov	r3, r8
200047a6:	681b      	ldr	r3, [r3, #0]
200047a8:	2b00      	cmp	r3, #0
200047aa:	d001      	beq.n	200047b0 <stdio_put_string+0xb8>
200047ac:	42a3      	cmp	r3, r4
200047ae:	d1f3      	bne.n	20004798 <stdio_put_string+0xa0>
200047b0:	002a      	movs	r2, r5
200047b2:	0031      	movs	r1, r6
200047b4:	0020      	movs	r0, r4
200047b6:	47b8      	blx	r7
200047b8:	466b      	mov	r3, sp
200047ba:	220a      	movs	r2, #10
200047bc:	0020      	movs	r0, r4
200047be:	71da      	strb	r2, [r3, #7]
200047c0:	1dd9      	adds	r1, r3, #7
200047c2:	3a09      	subs	r2, #9
200047c4:	47b8      	blx	r7
200047c6:	e7e7      	b.n	20004798 <stdio_put_string+0xa0>
200047c8:	4650      	mov	r0, sl
200047ca:	f000 ffe7 	bl	2000579c <mutex_exit>
200047ce:	e7d7      	b.n	20004780 <stdio_put_string+0x88>
200047d0:	000f4240 	.word	0x000f4240
200047d4:	7fffffff 	.word	0x7fffffff
200047d8:	200069f8 	.word	0x200069f8
200047dc:	20004669 	.word	0x20004669
200047e0:	2000714c 	.word	0x2000714c
200047e4:	20007150 	.word	0x20007150
200047e8:	20004659 	.word	0x20004659

200047ec <__wrap_putchar>:
200047ec:	b5f0      	push	{r4, r5, r6, r7, lr}
200047ee:	46ce      	mov	lr, r9
200047f0:	4647      	mov	r7, r8
200047f2:	b580      	push	{r7, lr}
200047f4:	b083      	sub	sp, #12
200047f6:	466b      	mov	r3, sp
200047f8:	0006      	movs	r6, r0
200047fa:	1ddd      	adds	r5, r3, #7
200047fc:	7028      	strb	r0, [r5, #0]
200047fe:	f7ff fa2d 	bl	20003c5c <time_us_64>
20004802:	2300      	movs	r3, #0
20004804:	4a19      	ldr	r2, [pc, #100]	@ (2000486c <__wrap_putchar+0x80>)
20004806:	1812      	adds	r2, r2, r0
20004808:	414b      	adcs	r3, r1
2000480a:	2b00      	cmp	r3, #0
2000480c:	da02      	bge.n	20004814 <__wrap_putchar+0x28>
2000480e:	2201      	movs	r2, #1
20004810:	4b17      	ldr	r3, [pc, #92]	@ (20004870 <__wrap_putchar+0x84>)
20004812:	4252      	negs	r2, r2
20004814:	4917      	ldr	r1, [pc, #92]	@ (20004874 <__wrap_putchar+0x88>)
20004816:	0008      	movs	r0, r1
20004818:	4689      	mov	r9, r1
2000481a:	f000 ff73 	bl	20005704 <mutex_try_enter_block_until>
2000481e:	4b16      	ldr	r3, [pc, #88]	@ (20004878 <__wrap_putchar+0x8c>)
20004820:	4680      	mov	r8, r0
20004822:	681c      	ldr	r4, [r3, #0]
20004824:	2c00      	cmp	r4, #0
20004826:	d014      	beq.n	20004852 <__wrap_putchar+0x66>
20004828:	4f14      	ldr	r7, [pc, #80]	@ (2000487c <__wrap_putchar+0x90>)
2000482a:	e002      	b.n	20004832 <__wrap_putchar+0x46>
2000482c:	6924      	ldr	r4, [r4, #16]
2000482e:	2c00      	cmp	r4, #0
20004830:	d00f      	beq.n	20004852 <__wrap_putchar+0x66>
20004832:	6823      	ldr	r3, [r4, #0]
20004834:	2b00      	cmp	r3, #0
20004836:	d0f9      	beq.n	2000482c <__wrap_putchar+0x40>
20004838:	683b      	ldr	r3, [r7, #0]
2000483a:	2b00      	cmp	r3, #0
2000483c:	d001      	beq.n	20004842 <__wrap_putchar+0x56>
2000483e:	429c      	cmp	r4, r3
20004840:	d1f4      	bne.n	2000482c <__wrap_putchar+0x40>
20004842:	0020      	movs	r0, r4
20004844:	2201      	movs	r2, #1
20004846:	0029      	movs	r1, r5
20004848:	f7ff ff0e 	bl	20004668 <stdio_out_chars_crlf>
2000484c:	6924      	ldr	r4, [r4, #16]
2000484e:	2c00      	cmp	r4, #0
20004850:	d1ef      	bne.n	20004832 <__wrap_putchar+0x46>
20004852:	4643      	mov	r3, r8
20004854:	2b00      	cmp	r3, #0
20004856:	d105      	bne.n	20004864 <__wrap_putchar+0x78>
20004858:	0030      	movs	r0, r6
2000485a:	b003      	add	sp, #12
2000485c:	bcc0      	pop	{r6, r7}
2000485e:	46b9      	mov	r9, r7
20004860:	46b0      	mov	r8, r6
20004862:	bdf0      	pop	{r4, r5, r6, r7, pc}
20004864:	4648      	mov	r0, r9
20004866:	f000 ff99 	bl	2000579c <mutex_exit>
2000486a:	e7f5      	b.n	20004858 <__wrap_putchar+0x6c>
2000486c:	000f4240 	.word	0x000f4240
20004870:	7fffffff 	.word	0x7fffffff
20004874:	200069f8 	.word	0x200069f8
20004878:	2000714c 	.word	0x2000714c
2000487c:	20007150 	.word	0x20007150

20004880 <__wrap_puts>:
20004880:	b570      	push	{r4, r5, r6, lr}
20004882:	0004      	movs	r4, r0
20004884:	f000 fb18 	bl	20004eb8 <strlen>
20004888:	2301      	movs	r3, #1
2000488a:	0001      	movs	r1, r0
2000488c:	0005      	movs	r5, r0
2000488e:	2201      	movs	r2, #1
20004890:	0020      	movs	r0, r4
20004892:	f7ff ff31 	bl	200046f8 <stdio_put_string>
20004896:	4b08      	ldr	r3, [pc, #32]	@ (200048b8 <__wrap_puts+0x38>)
20004898:	681c      	ldr	r4, [r3, #0]
2000489a:	2c00      	cmp	r4, #0
2000489c:	d006      	beq.n	200048ac <__wrap_puts+0x2c>
2000489e:	6863      	ldr	r3, [r4, #4]
200048a0:	2b00      	cmp	r3, #0
200048a2:	d005      	beq.n	200048b0 <__wrap_puts+0x30>
200048a4:	4798      	blx	r3
200048a6:	6924      	ldr	r4, [r4, #16]
200048a8:	2c00      	cmp	r4, #0
200048aa:	d1f8      	bne.n	2000489e <__wrap_puts+0x1e>
200048ac:	0028      	movs	r0, r5
200048ae:	bd70      	pop	{r4, r5, r6, pc}
200048b0:	6924      	ldr	r4, [r4, #16]
200048b2:	2c00      	cmp	r4, #0
200048b4:	d1f3      	bne.n	2000489e <__wrap_puts+0x1e>
200048b6:	e7f9      	b.n	200048ac <__wrap_puts+0x2c>
200048b8:	2000714c 	.word	0x2000714c

200048bc <_retrieve_unique_id_on_boot>:
200048bc:	b510      	push	{r4, lr}
200048be:	4802      	ldr	r0, [pc, #8]	@ (200048c8 <_retrieve_unique_id_on_boot+0xc>)
200048c0:	f000 f804 	bl	200048cc <flash_get_unique_id>
200048c4:	bd10      	pop	{r4, pc}
200048c6:	46c0      	nop			@ (mov r8, r8)
200048c8:	20007180 	.word	0x20007180

200048cc <flash_get_unique_id>:
200048cc:	b510      	push	{r4, lr}
200048ce:	b088      	sub	sp, #32
200048d0:	0004      	movs	r4, r0
200048d2:	220d      	movs	r2, #13
200048d4:	2100      	movs	r1, #0
200048d6:	4668      	mov	r0, sp
200048d8:	f7ff fe76 	bl	200045c8 <__wrap_memset>
200048dc:	220d      	movs	r2, #13
200048de:	2100      	movs	r1, #0
200048e0:	a804      	add	r0, sp, #16
200048e2:	f7ff fe71 	bl	200045c8 <__wrap_memset>
200048e6:	234b      	movs	r3, #75	@ 0x4b
200048e8:	466a      	mov	r2, sp
200048ea:	4668      	mov	r0, sp
200048ec:	7013      	strb	r3, [r2, #0]
200048ee:	a904      	add	r1, sp, #16
200048f0:	220d      	movs	r2, #13
200048f2:	f001 f851 	bl	20005998 <flash_do_cmd>
200048f6:	2115      	movs	r1, #21
200048f8:	2208      	movs	r2, #8
200048fa:	0020      	movs	r0, r4
200048fc:	4469      	add	r1, sp
200048fe:	f7ff fe69 	bl	200045d4 <__wrap___aeabi_memcpy>
20004902:	b008      	add	sp, #32
20004904:	bd10      	pop	{r4, pc}
20004906:	46c0      	nop			@ (mov r8, r8)

20004908 <adc_init>:
20004908:	2301      	movs	r3, #1
2000490a:	2101      	movs	r1, #1
2000490c:	4a08      	ldr	r2, [pc, #32]	@ (20004930 <adc_init+0x28>)
2000490e:	6013      	str	r3, [r2, #0]
20004910:	4a08      	ldr	r2, [pc, #32]	@ (20004934 <adc_init+0x2c>)
20004912:	6013      	str	r3, [r2, #0]
20004914:	4a08      	ldr	r2, [pc, #32]	@ (20004938 <adc_init+0x30>)
20004916:	0008      	movs	r0, r1
20004918:	6813      	ldr	r3, [r2, #0]
2000491a:	4398      	bics	r0, r3
2000491c:	d1fb      	bne.n	20004916 <adc_init+0xe>
2000491e:	4a07      	ldr	r2, [pc, #28]	@ (2000493c <adc_init+0x34>)
20004920:	6011      	str	r1, [r2, #0]
20004922:	2180      	movs	r1, #128	@ 0x80
20004924:	0049      	lsls	r1, r1, #1
20004926:	6813      	ldr	r3, [r2, #0]
20004928:	420b      	tst	r3, r1
2000492a:	d0fc      	beq.n	20004926 <adc_init+0x1e>
2000492c:	4770      	bx	lr
2000492e:	46c0      	nop			@ (mov r8, r8)
20004930:	4000e000 	.word	0x4000e000
20004934:	4000f000 	.word	0x4000f000
20004938:	4000c008 	.word	0x4000c008
2000493c:	4004c000 	.word	0x4004c000

20004940 <dma_claim_unused_channel>:
20004940:	b500      	push	{lr}
20004942:	4b05      	ldr	r3, [pc, #20]	@ (20004958 <dma_claim_unused_channel+0x18>)
20004944:	b083      	sub	sp, #12
20004946:	0001      	movs	r1, r0
20004948:	9300      	str	r3, [sp, #0]
2000494a:	2200      	movs	r2, #0
2000494c:	230b      	movs	r3, #11
2000494e:	4803      	ldr	r0, [pc, #12]	@ (2000495c <dma_claim_unused_channel+0x1c>)
20004950:	f7fe fb8c 	bl	2000306c <hw_claim_unused_from_range>
20004954:	b003      	add	sp, #12
20004956:	bd00      	pop	{pc}
20004958:	200068d8 	.word	0x200068d8
2000495c:	20007190 	.word	0x20007190

20004960 <dma_channel_cleanup>:
20004960:	4b10      	ldr	r3, [pc, #64]	@ (200049a4 <dma_channel_cleanup+0x44>)
20004962:	0182      	lsls	r2, r0, #6
20004964:	18d3      	adds	r3, r2, r3
20004966:	6819      	ldr	r1, [r3, #0]
20004968:	02c3      	lsls	r3, r0, #11
2000496a:	404b      	eors	r3, r1
2000496c:	490e      	ldr	r1, [pc, #56]	@ (200049a8 <dma_channel_cleanup+0x48>)
2000496e:	b510      	push	{r4, lr}
20004970:	400b      	ands	r3, r1
20004972:	490e      	ldr	r1, [pc, #56]	@ (200049ac <dma_channel_cleanup+0x4c>)
20004974:	24a0      	movs	r4, #160	@ 0xa0
20004976:	1851      	adds	r1, r2, r1
20004978:	600b      	str	r3, [r1, #0]
2000497a:	2301      	movs	r3, #1
2000497c:	4083      	lsls	r3, r0
2000497e:	0018      	movs	r0, r3
20004980:	2180      	movs	r1, #128	@ 0x80
20004982:	4b0b      	ldr	r3, [pc, #44]	@ (200049b0 <dma_channel_cleanup+0x50>)
20004984:	05e4      	lsls	r4, r4, #23
20004986:	6018      	str	r0, [r3, #0]
20004988:	4b0a      	ldr	r3, [pc, #40]	@ (200049b4 <dma_channel_cleanup+0x54>)
2000498a:	0449      	lsls	r1, r1, #17
2000498c:	6018      	str	r0, [r3, #0]
2000498e:	4b0a      	ldr	r3, [pc, #40]	@ (200049b8 <dma_channel_cleanup+0x58>)
20004990:	50e0      	str	r0, [r4, r3]
20004992:	4b0a      	ldr	r3, [pc, #40]	@ (200049bc <dma_channel_cleanup+0x5c>)
20004994:	18d2      	adds	r2, r2, r3
20004996:	6813      	ldr	r3, [r2, #0]
20004998:	420b      	tst	r3, r1
2000499a:	d1fc      	bne.n	20004996 <dma_channel_cleanup+0x36>
2000499c:	2380      	movs	r3, #128	@ 0x80
2000499e:	00db      	lsls	r3, r3, #3
200049a0:	50e0      	str	r0, [r4, r3]
200049a2:	bd10      	pop	{r4, pc}
200049a4:	50000010 	.word	0x50000010
200049a8:	00007801 	.word	0x00007801
200049ac:	50001010 	.word	0x50001010
200049b0:	50003404 	.word	0x50003404
200049b4:	50003414 	.word	0x50003414
200049b8:	00000444 	.word	0x00000444
200049bc:	5000000c 	.word	0x5000000c

200049c0 <spi_init>:
200049c0:	b5f0      	push	{r4, r5, r6, r7, lr}
200049c2:	4645      	mov	r5, r8
200049c4:	4680      	mov	r8, r0
200049c6:	4a3b      	ldr	r2, [pc, #236]	@ (20004ab4 <spi_init+0xf4>)
200049c8:	464e      	mov	r6, r9
200049ca:	46de      	mov	lr, fp
200049cc:	4657      	mov	r7, sl
200049ce:	4442      	add	r2, r8
200049d0:	1e53      	subs	r3, r2, #1
200049d2:	419a      	sbcs	r2, r3
200049d4:	2380      	movs	r3, #128	@ 0x80
200049d6:	b5e0      	push	{r5, r6, r7, lr}
200049d8:	025b      	lsls	r3, r3, #9
200049da:	0412      	lsls	r2, r2, #16
200049dc:	18d2      	adds	r2, r2, r3
200049de:	4b36      	ldr	r3, [pc, #216]	@ (20004ab8 <spi_init+0xf8>)
200049e0:	b083      	sub	sp, #12
200049e2:	601a      	str	r2, [r3, #0]
200049e4:	4b35      	ldr	r3, [pc, #212]	@ (20004abc <spi_init+0xfc>)
200049e6:	4689      	mov	r9, r1
200049e8:	4935      	ldr	r1, [pc, #212]	@ (20004ac0 <spi_init+0x100>)
200049ea:	601a      	str	r2, [r3, #0]
200049ec:	0015      	movs	r5, r2
200049ee:	680b      	ldr	r3, [r1, #0]
200049f0:	439d      	bics	r5, r3
200049f2:	d1fb      	bne.n	200049ec <spi_init+0x2c>
200049f4:	2006      	movs	r0, #6
200049f6:	f7ff fa31 	bl	20003e5c <clock_get_hz>
200049fa:	4643      	mov	r3, r8
200049fc:	685a      	ldr	r2, [r3, #4]
200049fe:	2302      	movs	r3, #2
20004a00:	401a      	ands	r2, r3
20004a02:	9200      	str	r2, [sp, #0]
20004a04:	4a2f      	ldr	r2, [pc, #188]	@ (20004ac4 <spi_init+0x104>)
20004a06:	2680      	movs	r6, #128	@ 0x80
20004a08:	4442      	add	r2, r8
20004a0a:	6013      	str	r3, [r2, #0]
20004a0c:	464b      	mov	r3, r9
20004a0e:	4682      	mov	sl, r0
20004a10:	0dd9      	lsrs	r1, r3, #23
20004a12:	0258      	lsls	r0, r3, #9
20004a14:	9201      	str	r2, [sp, #4]
20004a16:	000b      	movs	r3, r1
20004a18:	0002      	movs	r2, r0
20004a1a:	2402      	movs	r4, #2
20004a1c:	0076      	lsls	r6, r6, #1
20004a1e:	e006      	b.n	20004a2e <spi_init+0x6e>
20004a20:	4592      	cmp	sl, r2
20004a22:	d306      	bcc.n	20004a32 <spi_init+0x72>
20004a24:	3402      	adds	r4, #2
20004a26:	1812      	adds	r2, r2, r0
20004a28:	414b      	adcs	r3, r1
20004a2a:	42b4      	cmp	r4, r6
20004a2c:	d001      	beq.n	20004a32 <spi_init+0x72>
20004a2e:	2b00      	cmp	r3, #0
20004a30:	d0f6      	beq.n	20004a20 <spi_init+0x60>
20004a32:	2780      	movs	r7, #128	@ 0x80
20004a34:	0226      	lsls	r6, r4, #8
20004a36:	1b36      	subs	r6, r6, r4
20004a38:	007f      	lsls	r7, r7, #1
20004a3a:	e002      	b.n	20004a42 <spi_init+0x82>
20004a3c:	1b36      	subs	r6, r6, r4
20004a3e:	2f01      	cmp	r7, #1
20004a40:	d036      	beq.n	20004ab0 <spi_init+0xf0>
20004a42:	0031      	movs	r1, r6
20004a44:	4650      	mov	r0, sl
20004a46:	46bb      	mov	fp, r7
20004a48:	3f01      	subs	r7, #1
20004a4a:	f7ff fc09 	bl	20004260 <__wrap___aeabi_uidiv>
20004a4e:	4581      	cmp	r9, r0
20004a50:	d2f4      	bcs.n	20004a3c <spi_init+0x7c>
20004a52:	4659      	mov	r1, fp
20004a54:	4361      	muls	r1, r4
20004a56:	023d      	lsls	r5, r7, #8
20004a58:	4643      	mov	r3, r8
20004a5a:	611c      	str	r4, [r3, #16]
20004a5c:	681b      	ldr	r3, [r3, #0]
20004a5e:	22ff      	movs	r2, #255	@ 0xff
20004a60:	406b      	eors	r3, r5
20004a62:	2580      	movs	r5, #128	@ 0x80
20004a64:	0212      	lsls	r2, r2, #8
20004a66:	016d      	lsls	r5, r5, #5
20004a68:	4013      	ands	r3, r2
20004a6a:	4445      	add	r5, r8
20004a6c:	4a16      	ldr	r2, [pc, #88]	@ (20004ac8 <spi_init+0x108>)
20004a6e:	602b      	str	r3, [r5, #0]
20004a70:	9b00      	ldr	r3, [sp, #0]
20004a72:	4442      	add	r2, r8
20004a74:	6013      	str	r3, [r2, #0]
20004a76:	2002      	movs	r0, #2
20004a78:	4643      	mov	r3, r8
20004a7a:	9c01      	ldr	r4, [sp, #4]
20004a7c:	685b      	ldr	r3, [r3, #4]
20004a7e:	6020      	str	r0, [r4, #0]
20004a80:	4644      	mov	r4, r8
20004a82:	6826      	ldr	r6, [r4, #0]
20004a84:	2407      	movs	r4, #7
20004a86:	4066      	eors	r6, r4
20004a88:	34c8      	adds	r4, #200	@ 0xc8
20004a8a:	4034      	ands	r4, r6
20004a8c:	602c      	str	r4, [r5, #0]
20004a8e:	2403      	movs	r4, #3
20004a90:	4003      	ands	r3, r0
20004a92:	6013      	str	r3, [r2, #0]
20004a94:	4b0d      	ldr	r3, [pc, #52]	@ (20004acc <spi_init+0x10c>)
20004a96:	4443      	add	r3, r8
20004a98:	601c      	str	r4, [r3, #0]
20004a9a:	6010      	str	r0, [r2, #0]
20004a9c:	4650      	mov	r0, sl
20004a9e:	f7ff fbdf 	bl	20004260 <__wrap___aeabi_uidiv>
20004aa2:	b003      	add	sp, #12
20004aa4:	bcf0      	pop	{r4, r5, r6, r7}
20004aa6:	46bb      	mov	fp, r7
20004aa8:	46b2      	mov	sl, r6
20004aaa:	46a9      	mov	r9, r5
20004aac:	46a0      	mov	r8, r4
20004aae:	bdf0      	pop	{r4, r5, r6, r7, pc}
20004ab0:	0021      	movs	r1, r4
20004ab2:	e7d1      	b.n	20004a58 <spi_init+0x98>
20004ab4:	bffc4000 	.word	0xbffc4000
20004ab8:	4000e000 	.word	0x4000e000
20004abc:	4000f000 	.word	0x4000f000
20004ac0:	4000c008 	.word	0x4000c008
20004ac4:	00003004 	.word	0x00003004
20004ac8:	00002004 	.word	0x00002004
20004acc:	00002024 	.word	0x00002024

20004ad0 <i2c_write_blocking_internal>:
20004ad0:	b5f0      	push	{r4, r5, r6, r7, lr}
20004ad2:	4657      	mov	r7, sl
20004ad4:	464e      	mov	r6, r9
20004ad6:	4645      	mov	r5, r8
20004ad8:	46de      	mov	lr, fp
20004ada:	b5e0      	push	{r5, r6, r7, lr}
20004adc:	b087      	sub	sp, #28
20004ade:	001c      	movs	r4, r3
20004ae0:	9303      	str	r3, [sp, #12]
20004ae2:	ab10      	add	r3, sp, #64	@ 0x40
20004ae4:	9201      	str	r2, [sp, #4]
20004ae6:	781a      	ldrb	r2, [r3, #0]
20004ae8:	2300      	movs	r3, #0
20004aea:	0006      	movs	r6, r0
20004aec:	6800      	ldr	r0, [r0, #0]
20004aee:	9d11      	ldr	r5, [sp, #68]	@ 0x44
20004af0:	66c3      	str	r3, [r0, #108]	@ 0x6c
20004af2:	3301      	adds	r3, #1
20004af4:	6041      	str	r1, [r0, #4]
20004af6:	9f12      	ldr	r7, [sp, #72]	@ 0x48
20004af8:	9204      	str	r2, [sp, #16]
20004afa:	66c3      	str	r3, [r0, #108]	@ 0x6c
20004afc:	2c00      	cmp	r4, #0
20004afe:	dc00      	bgt.n	20004b02 <i2c_write_blocking_internal+0x32>
20004b00:	e092      	b.n	20004c28 <i2c_write_blocking_internal+0x158>
20004b02:	1e63      	subs	r3, r4, #1
20004b04:	469b      	mov	fp, r3
20004b06:	2301      	movs	r3, #1
20004b08:	405a      	eors	r2, r3
20004b0a:	9202      	str	r2, [sp, #8]
20004b0c:	2d00      	cmp	r5, #0
20004b0e:	d003      	beq.n	20004b18 <i2c_write_blocking_internal+0x48>
20004b10:	2101      	movs	r1, #1
20004b12:	0038      	movs	r0, r7
20004b14:	47a8      	blx	r5
20004b16:	6830      	ldr	r0, [r6, #0]
20004b18:	2200      	movs	r2, #0
20004b1a:	7933      	ldrb	r3, [r6, #4]
20004b1c:	4691      	mov	r9, r2
20004b1e:	3210      	adds	r2, #16
20004b20:	4690      	mov	r8, r2
20004b22:	029a      	lsls	r2, r3, #10
20004b24:	4659      	mov	r1, fp
20004b26:	464b      	mov	r3, r9
20004b28:	1a5b      	subs	r3, r3, r1
20004b2a:	4259      	negs	r1, r3
20004b2c:	414b      	adcs	r3, r1
20004b2e:	464c      	mov	r4, r9
20004b30:	9902      	ldr	r1, [sp, #8]
20004b32:	400b      	ands	r3, r1
20004b34:	9901      	ldr	r1, [sp, #4]
20004b36:	025b      	lsls	r3, r3, #9
20004b38:	5d09      	ldrb	r1, [r1, r4]
20004b3a:	2400      	movs	r4, #0
20004b3c:	430b      	orrs	r3, r1
20004b3e:	4313      	orrs	r3, r2
20004b40:	6103      	str	r3, [r0, #16]
20004b42:	2d00      	cmp	r5, #0
20004b44:	d106      	bne.n	20004b54 <i2c_write_blocking_internal+0x84>
20004b46:	e02a      	b.n	20004b9e <i2c_write_blocking_internal+0xce>
20004b48:	4641      	mov	r1, r8
20004b4a:	6833      	ldr	r3, [r6, #0]
20004b4c:	b2e4      	uxtb	r4, r4
20004b4e:	6b5a      	ldr	r2, [r3, #52]	@ 0x34
20004b50:	4211      	tst	r1, r2
20004b52:	d111      	bne.n	20004b78 <i2c_write_blocking_internal+0xa8>
20004b54:	2100      	movs	r1, #0
20004b56:	0038      	movs	r0, r7
20004b58:	47a8      	blx	r5
20004b5a:	2800      	cmp	r0, #0
20004b5c:	d0f4      	beq.n	20004b48 <i2c_write_blocking_internal+0x78>
20004b5e:	2302      	movs	r3, #2
20004b60:	425b      	negs	r3, r3
20004b62:	4699      	mov	r9, r3
20004b64:	4648      	mov	r0, r9
20004b66:	9b04      	ldr	r3, [sp, #16]
20004b68:	7133      	strb	r3, [r6, #4]
20004b6a:	b007      	add	sp, #28
20004b6c:	bcf0      	pop	{r4, r5, r6, r7}
20004b6e:	46bb      	mov	fp, r7
20004b70:	46b2      	mov	sl, r6
20004b72:	46a9      	mov	r9, r5
20004b74:	46a0      	mov	r8, r4
20004b76:	bdf0      	pop	{r4, r5, r6, r7, pc}
20004b78:	2280      	movs	r2, #128	@ 0x80
20004b7a:	589a      	ldr	r2, [r3, r2]
20004b7c:	2a00      	cmp	r2, #0
20004b7e:	d11f      	bne.n	20004bc0 <i2c_write_blocking_internal+0xf0>
20004b80:	2c00      	cmp	r4, #0
20004b82:	d11f      	bne.n	20004bc4 <i2c_write_blocking_internal+0xf4>
20004b84:	45d9      	cmp	r9, fp
20004b86:	d046      	beq.n	20004c16 <i2c_write_blocking_internal+0x146>
20004b88:	2301      	movs	r3, #1
20004b8a:	4499      	add	r9, r3
20004b8c:	9b03      	ldr	r3, [sp, #12]
20004b8e:	454b      	cmp	r3, r9
20004b90:	d0e8      	beq.n	20004b64 <i2c_write_blocking_internal+0x94>
20004b92:	2101      	movs	r1, #1
20004b94:	0038      	movs	r0, r7
20004b96:	47a8      	blx	r5
20004b98:	2200      	movs	r2, #0
20004b9a:	6830      	ldr	r0, [r6, #0]
20004b9c:	e7c2      	b.n	20004b24 <i2c_write_blocking_internal+0x54>
20004b9e:	2210      	movs	r2, #16
20004ba0:	6b43      	ldr	r3, [r0, #52]	@ 0x34
20004ba2:	421a      	tst	r2, r3
20004ba4:	d0fc      	beq.n	20004ba0 <i2c_write_blocking_internal+0xd0>
20004ba6:	2380      	movs	r3, #128	@ 0x80
20004ba8:	58c2      	ldr	r2, [r0, r3]
20004baa:	2a00      	cmp	r2, #0
20004bac:	d128      	bne.n	20004c00 <i2c_write_blocking_internal+0x130>
20004bae:	45d9      	cmp	r9, fp
20004bb0:	d035      	beq.n	20004c1e <i2c_write_blocking_internal+0x14e>
20004bb2:	2301      	movs	r3, #1
20004bb4:	4499      	add	r9, r3
20004bb6:	9b03      	ldr	r3, [sp, #12]
20004bb8:	454b      	cmp	r3, r9
20004bba:	d0d3      	beq.n	20004b64 <i2c_write_blocking_internal+0x94>
20004bbc:	2200      	movs	r2, #0
20004bbe:	e7b1      	b.n	20004b24 <i2c_write_blocking_internal+0x54>
20004bc0:	2401      	movs	r4, #1
20004bc2:	6d5b      	ldr	r3, [r3, #84]	@ 0x54
20004bc4:	2380      	movs	r3, #128	@ 0x80
20004bc6:	009b      	lsls	r3, r3, #2
20004bc8:	469a      	mov	sl, r3
20004bca:	9205      	str	r2, [sp, #20]
20004bcc:	e004      	b.n	20004bd8 <i2c_write_blocking_internal+0x108>
20004bce:	4651      	mov	r1, sl
20004bd0:	6833      	ldr	r3, [r6, #0]
20004bd2:	6b5a      	ldr	r2, [r3, #52]	@ 0x34
20004bd4:	420a      	tst	r2, r1
20004bd6:	d105      	bne.n	20004be4 <i2c_write_blocking_internal+0x114>
20004bd8:	2100      	movs	r1, #0
20004bda:	0038      	movs	r0, r7
20004bdc:	47a8      	blx	r5
20004bde:	2800      	cmp	r0, #0
20004be0:	d0f5      	beq.n	20004bce <i2c_write_blocking_internal+0xfe>
20004be2:	e7bc      	b.n	20004b5e <i2c_write_blocking_internal+0x8e>
20004be4:	9a05      	ldr	r2, [sp, #20]
20004be6:	6e1b      	ldr	r3, [r3, #96]	@ 0x60
20004be8:	2c00      	cmp	r4, #0
20004bea:	d0cd      	beq.n	20004b88 <i2c_write_blocking_internal+0xb8>
20004bec:	2a00      	cmp	r2, #0
20004bee:	d003      	beq.n	20004bf8 <i2c_write_blocking_internal+0x128>
20004bf0:	2309      	movs	r3, #9
20004bf2:	4013      	ands	r3, r2
20004bf4:	2b08      	cmp	r3, #8
20004bf6:	d0b5      	beq.n	20004b64 <i2c_write_blocking_internal+0x94>
20004bf8:	2301      	movs	r3, #1
20004bfa:	425b      	negs	r3, r3
20004bfc:	4699      	mov	r9, r3
20004bfe:	e7b1      	b.n	20004b64 <i2c_write_blocking_internal+0x94>
20004c00:	2401      	movs	r4, #1
20004c02:	6d43      	ldr	r3, [r0, #84]	@ 0x54
20004c04:	2180      	movs	r1, #128	@ 0x80
20004c06:	0089      	lsls	r1, r1, #2
20004c08:	6b43      	ldr	r3, [r0, #52]	@ 0x34
20004c0a:	420b      	tst	r3, r1
20004c0c:	d0fc      	beq.n	20004c08 <i2c_write_blocking_internal+0x138>
20004c0e:	6e03      	ldr	r3, [r0, #96]	@ 0x60
20004c10:	2c00      	cmp	r4, #0
20004c12:	d0ce      	beq.n	20004bb2 <i2c_write_blocking_internal+0xe2>
20004c14:	e7ea      	b.n	20004bec <i2c_write_blocking_internal+0x11c>
20004c16:	9b04      	ldr	r3, [sp, #16]
20004c18:	2b00      	cmp	r3, #0
20004c1a:	d1b5      	bne.n	20004b88 <i2c_write_blocking_internal+0xb8>
20004c1c:	e7d2      	b.n	20004bc4 <i2c_write_blocking_internal+0xf4>
20004c1e:	9b04      	ldr	r3, [sp, #16]
20004c20:	2b00      	cmp	r3, #0
20004c22:	d1c6      	bne.n	20004bb2 <i2c_write_blocking_internal+0xe2>
20004c24:	2400      	movs	r4, #0
20004c26:	e7ed      	b.n	20004c04 <i2c_write_blocking_internal+0x134>
20004c28:	2300      	movs	r3, #0
20004c2a:	4699      	mov	r9, r3
20004c2c:	e79a      	b.n	20004b64 <i2c_write_blocking_internal+0x94>
20004c2e:	46c0      	nop			@ (mov r8, r8)

20004c30 <i2c_read_blocking_internal>:
20004c30:	b5f0      	push	{r4, r5, r6, r7, lr}
20004c32:	46de      	mov	lr, fp
20004c34:	464e      	mov	r6, r9
20004c36:	4645      	mov	r5, r8
20004c38:	4657      	mov	r7, sl
20004c3a:	b5e0      	push	{r5, r6, r7, lr}
20004c3c:	0005      	movs	r5, r0
20004c3e:	b085      	sub	sp, #20
20004c40:	001c      	movs	r4, r3
20004c42:	9302      	str	r3, [sp, #8]
20004c44:	ab0e      	add	r3, sp, #56	@ 0x38
20004c46:	7818      	ldrb	r0, [r3, #0]
20004c48:	2300      	movs	r3, #0
20004c4a:	9201      	str	r2, [sp, #4]
20004c4c:	682a      	ldr	r2, [r5, #0]
20004c4e:	4683      	mov	fp, r0
20004c50:	66d3      	str	r3, [r2, #108]	@ 0x6c
20004c52:	3301      	adds	r3, #1
20004c54:	6051      	str	r1, [r2, #4]
20004c56:	9e0f      	ldr	r6, [sp, #60]	@ 0x3c
20004c58:	66d3      	str	r3, [r2, #108]	@ 0x6c
20004c5a:	2c00      	cmp	r4, #0
20004c5c:	dd63      	ble.n	20004d26 <i2c_read_blocking_internal+0xf6>
20004c5e:	1e63      	subs	r3, r4, #1
20004c60:	4699      	mov	r9, r3
20004c62:	2301      	movs	r3, #1
20004c64:	4058      	eors	r0, r3
20004c66:	4682      	mov	sl, r0
20004c68:	2400      	movs	r4, #0
20004c6a:	2e00      	cmp	r6, #0
20004c6c:	d003      	beq.n	20004c76 <i2c_read_blocking_internal+0x46>
20004c6e:	2101      	movs	r1, #1
20004c70:	9810      	ldr	r0, [sp, #64]	@ 0x40
20004c72:	47b0      	blx	r6
20004c74:	682a      	ldr	r2, [r5, #0]
20004c76:	2380      	movs	r3, #128	@ 0x80
20004c78:	005b      	lsls	r3, r3, #1
20004c7a:	469c      	mov	ip, r3
20004c7c:	0013      	movs	r3, r2
20004c7e:	6f51      	ldr	r1, [r2, #116]	@ 0x74
20004c80:	2910      	cmp	r1, #16
20004c82:	d0fc      	beq.n	20004c7e <i2c_read_blocking_internal+0x4e>
20004c84:	2000      	movs	r0, #0
20004c86:	2c00      	cmp	r4, #0
20004c88:	d101      	bne.n	20004c8e <i2c_read_blocking_internal+0x5e>
20004c8a:	7928      	ldrb	r0, [r5, #4]
20004c8c:	0280      	lsls	r0, r0, #10
20004c8e:	4649      	mov	r1, r9
20004c90:	1a67      	subs	r7, r4, r1
20004c92:	4279      	negs	r1, r7
20004c94:	4179      	adcs	r1, r7
20004c96:	4657      	mov	r7, sl
20004c98:	4039      	ands	r1, r7
20004c9a:	0249      	lsls	r1, r1, #9
20004c9c:	4301      	orrs	r1, r0
20004c9e:	4660      	mov	r0, ip
20004ca0:	4301      	orrs	r1, r0
20004ca2:	6111      	str	r1, [r2, #16]
20004ca4:	2e00      	cmp	r6, #0
20004ca6:	d028      	beq.n	20004cfa <i2c_read_blocking_internal+0xca>
20004ca8:	2280      	movs	r2, #128	@ 0x80
20004caa:	2740      	movs	r7, #64	@ 0x40
20004cac:	4690      	mov	r8, r2
20004cae:	e008      	b.n	20004cc2 <i2c_read_blocking_internal+0x92>
20004cb0:	2100      	movs	r1, #0
20004cb2:	9810      	ldr	r0, [sp, #64]	@ 0x40
20004cb4:	47b0      	blx	r6
20004cb6:	2800      	cmp	r0, #0
20004cb8:	d137      	bne.n	20004d2a <i2c_read_blocking_internal+0xfa>
20004cba:	682b      	ldr	r3, [r5, #0]
20004cbc:	6f9a      	ldr	r2, [r3, #120]	@ 0x78
20004cbe:	2a00      	cmp	r2, #0
20004cc0:	d113      	bne.n	20004cea <i2c_read_blocking_internal+0xba>
20004cc2:	4642      	mov	r2, r8
20004cc4:	589a      	ldr	r2, [r3, r2]
20004cc6:	6b5a      	ldr	r2, [r3, #52]	@ 0x34
20004cc8:	4217      	tst	r7, r2
20004cca:	d0f1      	beq.n	20004cb0 <i2c_read_blocking_internal+0x80>
20004ccc:	2100      	movs	r1, #0
20004cce:	9810      	ldr	r0, [sp, #64]	@ 0x40
20004cd0:	6d5b      	ldr	r3, [r3, #84]	@ 0x54
20004cd2:	47b0      	blx	r6
20004cd4:	43c4      	mvns	r4, r0
20004cd6:	465b      	mov	r3, fp
20004cd8:	0020      	movs	r0, r4
20004cda:	712b      	strb	r3, [r5, #4]
20004cdc:	b005      	add	sp, #20
20004cde:	bcf0      	pop	{r4, r5, r6, r7}
20004ce0:	46bb      	mov	fp, r7
20004ce2:	46b2      	mov	sl, r6
20004ce4:	46a9      	mov	r9, r5
20004ce6:	46a0      	mov	r8, r4
20004ce8:	bdf0      	pop	{r4, r5, r6, r7, pc}
20004cea:	691b      	ldr	r3, [r3, #16]
20004cec:	9a01      	ldr	r2, [sp, #4]
20004cee:	5513      	strb	r3, [r2, r4]
20004cf0:	9b02      	ldr	r3, [sp, #8]
20004cf2:	3401      	adds	r4, #1
20004cf4:	42a3      	cmp	r3, r4
20004cf6:	d1ba      	bne.n	20004c6e <i2c_read_blocking_internal+0x3e>
20004cf8:	e7ed      	b.n	20004cd6 <i2c_read_blocking_internal+0xa6>
20004cfa:	2080      	movs	r0, #128	@ 0x80
20004cfc:	2140      	movs	r1, #64	@ 0x40
20004cfe:	5813      	ldr	r3, [r2, r0]
20004d00:	6b53      	ldr	r3, [r2, #52]	@ 0x34
20004d02:	4219      	tst	r1, r3
20004d04:	d003      	beq.n	20004d0e <i2c_read_blocking_internal+0xde>
20004d06:	2401      	movs	r4, #1
20004d08:	6d53      	ldr	r3, [r2, #84]	@ 0x54
20004d0a:	4264      	negs	r4, r4
20004d0c:	e7e3      	b.n	20004cd6 <i2c_read_blocking_internal+0xa6>
20004d0e:	6f93      	ldr	r3, [r2, #120]	@ 0x78
20004d10:	2b00      	cmp	r3, #0
20004d12:	d0f4      	beq.n	20004cfe <i2c_read_blocking_internal+0xce>
20004d14:	6913      	ldr	r3, [r2, #16]
20004d16:	9a01      	ldr	r2, [sp, #4]
20004d18:	5513      	strb	r3, [r2, r4]
20004d1a:	9b02      	ldr	r3, [sp, #8]
20004d1c:	3401      	adds	r4, #1
20004d1e:	42a3      	cmp	r3, r4
20004d20:	d0d9      	beq.n	20004cd6 <i2c_read_blocking_internal+0xa6>
20004d22:	682a      	ldr	r2, [r5, #0]
20004d24:	e7aa      	b.n	20004c7c <i2c_read_blocking_internal+0x4c>
20004d26:	2400      	movs	r4, #0
20004d28:	e7d5      	b.n	20004cd6 <i2c_read_blocking_internal+0xa6>
20004d2a:	2402      	movs	r4, #2
20004d2c:	4264      	negs	r4, r4
20004d2e:	e7d2      	b.n	20004cd6 <i2c_read_blocking_internal+0xa6>

20004d30 <i2c_set_baudrate>:
20004d30:	b5f0      	push	{r4, r5, r6, r7, lr}
20004d32:	46d6      	mov	lr, sl
20004d34:	464f      	mov	r7, r9
20004d36:	4646      	mov	r6, r8
20004d38:	4682      	mov	sl, r0
20004d3a:	b5c0      	push	{r6, r7, lr}
20004d3c:	2005      	movs	r0, #5
20004d3e:	000c      	movs	r4, r1
20004d40:	f7ff f88c 	bl	20003e5c <clock_get_hz>
20004d44:	0005      	movs	r5, r0
20004d46:	0860      	lsrs	r0, r4, #1
20004d48:	0021      	movs	r1, r4
20004d4a:	1940      	adds	r0, r0, r5
20004d4c:	f7ff fa88 	bl	20004260 <__wrap___aeabi_uidiv>
20004d50:	0047      	lsls	r7, r0, #1
20004d52:	183f      	adds	r7, r7, r0
20004d54:	0006      	movs	r6, r0
20004d56:	2105      	movs	r1, #5
20004d58:	0038      	movs	r0, r7
20004d5a:	f7ff fa81 	bl	20004260 <__wrap___aeabi_uidiv>
20004d5e:	46a0      	mov	r8, r4
20004d60:	4b1c      	ldr	r3, [pc, #112]	@ (20004dd4 <i2c_set_baudrate+0xa4>)
20004d62:	1a32      	subs	r2, r6, r0
20004d64:	0004      	movs	r4, r0
20004d66:	0068      	lsls	r0, r5, #1
20004d68:	4691      	mov	r9, r2
20004d6a:	1940      	adds	r0, r0, r5
20004d6c:	4598      	cmp	r8, r3
20004d6e:	d82b      	bhi.n	20004dc8 <i2c_set_baudrate+0x98>
20004d70:	4919      	ldr	r1, [pc, #100]	@ (20004dd8 <i2c_set_baudrate+0xa8>)
20004d72:	f7ff fa75 	bl	20004260 <__wrap___aeabi_uidiv>
20004d76:	3001      	adds	r0, #1
20004d78:	4653      	mov	r3, sl
20004d7a:	2200      	movs	r2, #0
20004d7c:	681b      	ldr	r3, [r3, #0]
20004d7e:	66da      	str	r2, [r3, #108]	@ 0x6c
20004d80:	6819      	ldr	r1, [r3, #0]
20004d82:	3204      	adds	r2, #4
20004d84:	4051      	eors	r1, r2
20004d86:	3202      	adds	r2, #2
20004d88:	400a      	ands	r2, r1
20004d8a:	2180      	movs	r1, #128	@ 0x80
20004d8c:	0149      	lsls	r1, r1, #5
20004d8e:	1859      	adds	r1, r3, r1
20004d90:	600a      	str	r2, [r1, #0]
20004d92:	464a      	mov	r2, r9
20004d94:	61da      	str	r2, [r3, #28]
20004d96:	2201      	movs	r2, #1
20004d98:	621c      	str	r4, [r3, #32]
20004d9a:	2f4f      	cmp	r7, #79	@ 0x4f
20004d9c:	d900      	bls.n	20004da0 <i2c_set_baudrate+0x70>
20004d9e:	0922      	lsrs	r2, r4, #4
20004da0:	21a0      	movs	r1, #160	@ 0xa0
20004da2:	505a      	str	r2, [r3, r1]
20004da4:	6fda      	ldr	r2, [r3, #124]	@ 0x7c
20004da6:	0031      	movs	r1, r6
20004da8:	4050      	eors	r0, r2
20004daa:	4a0c      	ldr	r2, [pc, #48]	@ (20004ddc <i2c_set_baudrate+0xac>)
20004dac:	0400      	lsls	r0, r0, #16
20004dae:	189a      	adds	r2, r3, r2
20004db0:	0c00      	lsrs	r0, r0, #16
20004db2:	6010      	str	r0, [r2, #0]
20004db4:	2201      	movs	r2, #1
20004db6:	0028      	movs	r0, r5
20004db8:	66da      	str	r2, [r3, #108]	@ 0x6c
20004dba:	f7ff fa51 	bl	20004260 <__wrap___aeabi_uidiv>
20004dbe:	bce0      	pop	{r5, r6, r7}
20004dc0:	46ba      	mov	sl, r7
20004dc2:	46b1      	mov	r9, r6
20004dc4:	46a8      	mov	r8, r5
20004dc6:	bdf0      	pop	{r4, r5, r6, r7, pc}
20004dc8:	4905      	ldr	r1, [pc, #20]	@ (20004de0 <i2c_set_baudrate+0xb0>)
20004dca:	f7ff fa49 	bl	20004260 <__wrap___aeabi_uidiv>
20004dce:	3001      	adds	r0, #1
20004dd0:	e7d2      	b.n	20004d78 <i2c_set_baudrate+0x48>
20004dd2:	46c0      	nop			@ (mov r8, r8)
20004dd4:	000f423f 	.word	0x000f423f
20004dd8:	00989680 	.word	0x00989680
20004ddc:	0000107c 	.word	0x0000107c
20004de0:	017d7840 	.word	0x017d7840

20004de4 <i2c_init>:
20004de4:	4a0f      	ldr	r2, [pc, #60]	@ (20004e24 <i2c_init+0x40>)
20004de6:	b570      	push	{r4, r5, r6, lr}
20004de8:	1a82      	subs	r2, r0, r2
20004dea:	1e53      	subs	r3, r2, #1
20004dec:	419a      	sbcs	r2, r3
20004dee:	4b0e      	ldr	r3, [pc, #56]	@ (20004e28 <i2c_init+0x44>)
20004df0:	00d2      	lsls	r2, r2, #3
20004df2:	3208      	adds	r2, #8
20004df4:	601a      	str	r2, [r3, #0]
20004df6:	4b0d      	ldr	r3, [pc, #52]	@ (20004e2c <i2c_init+0x48>)
20004df8:	4c0d      	ldr	r4, [pc, #52]	@ (20004e30 <i2c_init+0x4c>)
20004dfa:	601a      	str	r2, [r3, #0]
20004dfc:	0015      	movs	r5, r2
20004dfe:	6823      	ldr	r3, [r4, #0]
20004e00:	439d      	bics	r5, r3
20004e02:	1e2b      	subs	r3, r5, #0
20004e04:	d1fa      	bne.n	20004dfc <i2c_init+0x18>
20004e06:	2466      	movs	r4, #102	@ 0x66
20004e08:	6802      	ldr	r2, [r0, #0]
20004e0a:	34ff      	adds	r4, #255	@ 0xff
20004e0c:	7105      	strb	r5, [r0, #4]
20004e0e:	66d5      	str	r5, [r2, #108]	@ 0x6c
20004e10:	6014      	str	r4, [r2, #0]
20004e12:	3c63      	subs	r4, #99	@ 0x63
20004e14:	3388      	adds	r3, #136	@ 0x88
20004e16:	3cff      	subs	r4, #255	@ 0xff
20004e18:	63d5      	str	r5, [r2, #60]	@ 0x3c
20004e1a:	6395      	str	r5, [r2, #56]	@ 0x38
20004e1c:	50d4      	str	r4, [r2, r3]
20004e1e:	f7ff ff87 	bl	20004d30 <i2c_set_baudrate>
20004e22:	bd70      	pop	{r4, r5, r6, pc}
20004e24:	200069f0 	.word	0x200069f0
20004e28:	4000e000 	.word	0x4000e000
20004e2c:	4000f000 	.word	0x4000f000
20004e30:	4000c008 	.word	0x4000c008

20004e34 <i2c_write_blocking_until>:
20004e34:	b5f0      	push	{r4, r5, r6, r7, lr}
20004e36:	46ce      	mov	lr, r9
20004e38:	4647      	mov	r7, r8
20004e3a:	b580      	push	{r7, lr}
20004e3c:	b089      	sub	sp, #36	@ 0x24
20004e3e:	001e      	movs	r6, r3
20004e40:	ac04      	add	r4, sp, #16
20004e42:	ab10      	add	r3, sp, #64	@ 0x40
20004e44:	781d      	ldrb	r5, [r3, #0]
20004e46:	4681      	mov	r9, r0
20004e48:	0017      	movs	r7, r2
20004e4a:	9a12      	ldr	r2, [sp, #72]	@ 0x48
20004e4c:	9b13      	ldr	r3, [sp, #76]	@ 0x4c
20004e4e:	0020      	movs	r0, r4
20004e50:	4688      	mov	r8, r1
20004e52:	f7fe feeb 	bl	20003c2c <init_single_timeout_until>
20004e56:	0033      	movs	r3, r6
20004e58:	9001      	str	r0, [sp, #4]
20004e5a:	003a      	movs	r2, r7
20004e5c:	4641      	mov	r1, r8
20004e5e:	4648      	mov	r0, r9
20004e60:	9402      	str	r4, [sp, #8]
20004e62:	9500      	str	r5, [sp, #0]
20004e64:	f7ff fe34 	bl	20004ad0 <i2c_write_blocking_internal>
20004e68:	b009      	add	sp, #36	@ 0x24
20004e6a:	bcc0      	pop	{r6, r7}
20004e6c:	46b9      	mov	r9, r7
20004e6e:	46b0      	mov	r8, r6
20004e70:	bdf0      	pop	{r4, r5, r6, r7, pc}
20004e72:	46c0      	nop			@ (mov r8, r8)

20004e74 <i2c_read_blocking_until>:
20004e74:	b5f0      	push	{r4, r5, r6, r7, lr}
20004e76:	46ce      	mov	lr, r9
20004e78:	4647      	mov	r7, r8
20004e7a:	b580      	push	{r7, lr}
20004e7c:	b089      	sub	sp, #36	@ 0x24
20004e7e:	001e      	movs	r6, r3
20004e80:	ac04      	add	r4, sp, #16
20004e82:	ab10      	add	r3, sp, #64	@ 0x40
20004e84:	781d      	ldrb	r5, [r3, #0]
20004e86:	4681      	mov	r9, r0
20004e88:	0017      	movs	r7, r2
20004e8a:	9a12      	ldr	r2, [sp, #72]	@ 0x48
20004e8c:	9b13      	ldr	r3, [sp, #76]	@ 0x4c
20004e8e:	0020      	movs	r0, r4
20004e90:	4688      	mov	r8, r1
20004e92:	f7fe fecb 	bl	20003c2c <init_single_timeout_until>
20004e96:	0033      	movs	r3, r6
20004e98:	9001      	str	r0, [sp, #4]
20004e9a:	003a      	movs	r2, r7
20004e9c:	4641      	mov	r1, r8
20004e9e:	4648      	mov	r0, r9
20004ea0:	9402      	str	r4, [sp, #8]
20004ea2:	9500      	str	r5, [sp, #0]
20004ea4:	f7ff fec4 	bl	20004c30 <i2c_read_blocking_internal>
20004ea8:	b009      	add	sp, #36	@ 0x24
20004eaa:	bcc0      	pop	{r6, r7}
20004eac:	46b9      	mov	r9, r7
20004eae:	46b0      	mov	r8, r6
20004eb0:	bdf0      	pop	{r4, r5, r6, r7, pc}
20004eb2:	46c0      	nop			@ (mov r8, r8)

20004eb4 <__aeabi_idiv0>:
20004eb4:	4770      	bx	lr
20004eb6:	46c0      	nop			@ (mov r8, r8)

20004eb8 <strlen>:
20004eb8:	0003      	movs	r3, r0
20004eba:	4684      	mov	ip, r0
20004ebc:	079b      	lsls	r3, r3, #30
20004ebe:	d00b      	beq.n	20004ed8 <strlen+0x20>
20004ec0:	0003      	movs	r3, r0
20004ec2:	2103      	movs	r1, #3
20004ec4:	e002      	b.n	20004ecc <strlen+0x14>
20004ec6:	3301      	adds	r3, #1
20004ec8:	420b      	tst	r3, r1
20004eca:	d006      	beq.n	20004eda <strlen+0x22>
20004ecc:	781a      	ldrb	r2, [r3, #0]
20004ece:	2a00      	cmp	r2, #0
20004ed0:	d1f9      	bne.n	20004ec6 <strlen+0xe>
20004ed2:	4662      	mov	r2, ip
20004ed4:	1a98      	subs	r0, r3, r2
20004ed6:	4770      	bx	lr
20004ed8:	0003      	movs	r3, r0
20004eda:	6819      	ldr	r1, [r3, #0]
20004edc:	4a0c      	ldr	r2, [pc, #48]	@ (20004f10 <strlen+0x58>)
20004ede:	480d      	ldr	r0, [pc, #52]	@ (20004f14 <strlen+0x5c>)
20004ee0:	188a      	adds	r2, r1, r2
20004ee2:	438a      	bics	r2, r1
20004ee4:	4202      	tst	r2, r0
20004ee6:	d10f      	bne.n	20004f08 <strlen+0x50>
20004ee8:	6859      	ldr	r1, [r3, #4]
20004eea:	4a09      	ldr	r2, [pc, #36]	@ (20004f10 <strlen+0x58>)
20004eec:	3304      	adds	r3, #4
20004eee:	188a      	adds	r2, r1, r2
20004ef0:	438a      	bics	r2, r1
20004ef2:	4202      	tst	r2, r0
20004ef4:	d108      	bne.n	20004f08 <strlen+0x50>
20004ef6:	6859      	ldr	r1, [r3, #4]
20004ef8:	4a05      	ldr	r2, [pc, #20]	@ (20004f10 <strlen+0x58>)
20004efa:	3304      	adds	r3, #4
20004efc:	188a      	adds	r2, r1, r2
20004efe:	438a      	bics	r2, r1
20004f00:	4202      	tst	r2, r0
20004f02:	d0f1      	beq.n	20004ee8 <strlen+0x30>
20004f04:	e000      	b.n	20004f08 <strlen+0x50>
20004f06:	3301      	adds	r3, #1
20004f08:	781a      	ldrb	r2, [r3, #0]
20004f0a:	2a00      	cmp	r2, #0
20004f0c:	d1fb      	bne.n	20004f06 <strlen+0x4e>
20004f0e:	e7e0      	b.n	20004ed2 <strlen+0x1a>
20004f10:	fefefeff 	.word	0xfefefeff
20004f14:	80808080 	.word	0x80808080

20004f18 <_fini>:
20004f18:	b5f8      	push	{r3, r4, r5, r6, r7, lr}
20004f1a:	46c0      	nop			@ (mov r8, r8)

Disassembly of section .data:

20004f20 <_ZN12ComputerCard11AudioWorkerEv>:
20004f20:	21e0      	movs	r1, #224	@ 0xe0
20004f22:	b5f0      	push	{r4, r5, r6, r7, lr}
20004f24:	46d6      	mov	lr, sl
20004f26:	464f      	mov	r7, r9
20004f28:	4646      	mov	r6, r8
20004f2a:	4a61      	ldr	r2, [pc, #388]	@ (200050b0 <_ZN12ComputerCard11AudioWorkerEv+0x190>)
20004f2c:	01c9      	lsls	r1, r1, #7
20004f2e:	6813      	ldr	r3, [r2, #0]
20004f30:	b5c0      	push	{r6, r7, lr}
20004f32:	400b      	ands	r3, r1
20004f34:	495f      	ldr	r1, [pc, #380]	@ (200050b4 <_ZN12ComputerCard11AudioWorkerEv+0x194>)
20004f36:	0004      	movs	r4, r0
20004f38:	600b      	str	r3, [r1, #0]
20004f3a:	23f0      	movs	r3, #240	@ 0xf0
20004f3c:	6810      	ldr	r0, [r2, #0]
20004f3e:	031b      	lsls	r3, r3, #12
20004f40:	4043      	eors	r3, r0
20004f42:	20f8      	movs	r0, #248	@ 0xf8
20004f44:	0340      	lsls	r0, r0, #13
20004f46:	4003      	ands	r3, r0
20004f48:	600b      	str	r3, [r1, #0]
20004f4a:	4b5b      	ldr	r3, [pc, #364]	@ (200050b8 <_ZN12ComputerCard11AudioWorkerEv+0x198>)
20004f4c:	2001      	movs	r0, #1
20004f4e:	6819      	ldr	r1, [r3, #0]
20004f50:	4b5a      	ldr	r3, [pc, #360]	@ (200050bc <_ZN12ComputerCard11AudioWorkerEv+0x19c>)
20004f52:	25b4      	movs	r5, #180	@ 0xb4
20004f54:	404b      	eors	r3, r1
20004f56:	495a      	ldr	r1, [pc, #360]	@ (200050c0 <_ZN12ComputerCard11AudioWorkerEv+0x1a0>)
20004f58:	006d      	lsls	r5, r5, #1
20004f5a:	400b      	ands	r3, r1
20004f5c:	4959      	ldr	r1, [pc, #356]	@ (200050c4 <_ZN12ComputerCard11AudioWorkerEv+0x1a4>)
20004f5e:	26b5      	movs	r6, #181	@ 0xb5
20004f60:	600b      	str	r3, [r1, #0]
20004f62:	23f8      	movs	r3, #248	@ 0xf8
20004f64:	01db      	lsls	r3, r3, #7
20004f66:	6113      	str	r3, [r2, #16]
20004f68:	f7ff fcea 	bl	20004940 <dma_claim_unused_channel>
20004f6c:	5560      	strb	r0, [r4, r5]
20004f6e:	2001      	movs	r0, #1
20004f70:	f7ff fce6 	bl	20004940 <dma_claim_unused_channel>
20004f74:	236a      	movs	r3, #106	@ 0x6a
20004f76:	33ff      	adds	r3, #255	@ 0xff
20004f78:	54e0      	strb	r0, [r4, r3]
20004f7a:	20a0      	movs	r0, #160	@ 0xa0
20004f7c:	469a      	mov	sl, r3
20004f7e:	5d63      	ldrb	r3, [r4, r5]
20004f80:	4f51      	ldr	r7, [pc, #324]	@ (200050c8 <_ZN12ComputerCard11AudioWorkerEv+0x1a8>)
20004f82:	02da      	lsls	r2, r3, #11
20004f84:	4951      	ldr	r1, [pc, #324]	@ (200050cc <_ZN12ComputerCard11AudioWorkerEv+0x1ac>)
20004f86:	403a      	ands	r2, r7
20004f88:	0076      	lsls	r6, r6, #1
20004f8a:	4311      	orrs	r1, r2
20004f8c:	5da2      	ldrb	r2, [r4, r6]
20004f8e:	05c0      	lsls	r0, r0, #23
20004f90:	3214      	adds	r2, #20
20004f92:	019b      	lsls	r3, r3, #6
20004f94:	181b      	adds	r3, r3, r0
20004f96:	0112      	lsls	r2, r2, #4
20004f98:	484d      	ldr	r0, [pc, #308]	@ (200050d0 <_ZN12ComputerCard11AudioWorkerEv+0x1b0>)
20004f9a:	18a2      	adds	r2, r4, r2
20004f9c:	6018      	str	r0, [r3, #0]
20004f9e:	605a      	str	r2, [r3, #4]
20004fa0:	2208      	movs	r2, #8
20004fa2:	609a      	str	r2, [r3, #8]
20004fa4:	60d9      	str	r1, [r3, #12]
20004fa6:	2301      	movs	r3, #1
20004fa8:	4691      	mov	r9, r2
20004faa:	5d62      	ldrb	r2, [r4, r5]
20004fac:	2101      	movs	r1, #1
20004fae:	4093      	lsls	r3, r2
20004fb0:	4a48      	ldr	r2, [pc, #288]	@ (200050d4 <_ZN12ComputerCard11AudioWorkerEv+0x1b4>)
20004fb2:	200b      	movs	r0, #11
20004fb4:	6013      	str	r3, [r2, #0]
20004fb6:	f7fe f8db 	bl	20003170 <irq_set_enabled>
20004fba:	200b      	movs	r0, #11
20004fbc:	4946      	ldr	r1, [pc, #280]	@ (200050d8 <_ZN12ComputerCard11AudioWorkerEv+0x1b8>)
20004fbe:	f7fe f8e9 	bl	20003194 <irq_set_exclusive_handler>
20004fc2:	4649      	mov	r1, r9
20004fc4:	23a4      	movs	r3, #164	@ 0xa4
20004fc6:	4a45      	ldr	r2, [pc, #276]	@ (200050dc <_ZN12ComputerCard11AudioWorkerEv+0x1bc>)
20004fc8:	2004      	movs	r0, #4
20004fca:	50d1      	str	r1, [r2, r3]
20004fcc:	4b44      	ldr	r3, [pc, #272]	@ (200050e0 <_ZN12ComputerCard11AudioWorkerEv+0x1c0>)
20004fce:	6019      	str	r1, [r3, #0]
20004fd0:	4b44      	ldr	r3, [pc, #272]	@ (200050e4 <_ZN12ComputerCard11AudioWorkerEv+0x1c4>)
20004fd2:	0019      	movs	r1, r3
20004fd4:	4698      	mov	r8, r3
20004fd6:	f7fe f8dd 	bl	20003194 <irq_set_exclusive_handler>
20004fda:	21ff      	movs	r1, #255	@ 0xff
20004fdc:	2004      	movs	r0, #4
20004fde:	f7fe f9e7 	bl	200033b0 <irq_set_priority>
20004fe2:	2101      	movs	r1, #1
20004fe4:	2004      	movs	r0, #4
20004fe6:	f7fe f8c3 	bl	20003170 <irq_set_enabled>
20004fea:	4653      	mov	r3, sl
20004fec:	5ce3      	ldrb	r3, [r4, r3]
20004fee:	4a3e      	ldr	r2, [pc, #248]	@ (200050e8 <_ZN12ComputerCard11AudioWorkerEv+0x1c8>)
20004ff0:	02d9      	lsls	r1, r3, #11
20004ff2:	4039      	ands	r1, r7
20004ff4:	430a      	orrs	r2, r1
20004ff6:	21a0      	movs	r1, #160	@ 0xa0
20004ff8:	019b      	lsls	r3, r3, #6
20004ffa:	05c9      	lsls	r1, r1, #23
20004ffc:	185b      	adds	r3, r3, r1
20004ffe:	2100      	movs	r1, #0
20005000:	6019      	str	r1, [r3, #0]
20005002:	493a      	ldr	r1, [pc, #232]	@ (200050ec <_ZN12ComputerCard11AudioWorkerEv+0x1cc>)
20005004:	6059      	str	r1, [r3, #4]
20005006:	2102      	movs	r1, #2
20005008:	6099      	str	r1, [r3, #8]
2000500a:	611a      	str	r2, [r3, #16]
2000500c:	464a      	mov	r2, r9
2000500e:	4b38      	ldr	r3, [pc, #224]	@ (200050f0 <_ZN12ComputerCard11AudioWorkerEv+0x1d0>)
20005010:	601a      	str	r2, [r3, #0]
20005012:	233e      	movs	r3, #62	@ 0x3e
20005014:	33ff      	adds	r3, #255	@ 0xff
20005016:	5ce2      	ldrb	r2, [r4, r3]
20005018:	2a03      	cmp	r2, #3
2000501a:	d013      	beq.n	20005044 <_ZN12ComputerCard11AudioWorkerEv+0x124>
2000501c:	5ce2      	ldrb	r2, [r4, r3]
2000501e:	2a02      	cmp	r2, #2
20005020:	d1f9      	bne.n	20005016 <_ZN12ComputerCard11AudioWorkerEv+0xf6>
20005022:	2100      	movs	r1, #0
20005024:	2004      	movs	r0, #4
20005026:	f7fe f8a3 	bl	20003170 <irq_set_enabled>
2000502a:	23a4      	movs	r3, #164	@ 0xa4
2000502c:	2108      	movs	r1, #8
2000502e:	4a2b      	ldr	r2, [pc, #172]	@ (200050dc <_ZN12ComputerCard11AudioWorkerEv+0x1bc>)
20005030:	2004      	movs	r0, #4
20005032:	50d1      	str	r1, [r2, r3]
20005034:	4641      	mov	r1, r8
20005036:	f7fe f8d7 	bl	200031e8 <irq_remove_handler>
2000503a:	bce0      	pop	{r5, r6, r7}
2000503c:	46ba      	mov	sl, r7
2000503e:	46b1      	mov	r9, r6
20005040:	46a8      	mov	r8, r5
20005042:	bdf0      	pop	{r4, r5, r6, r7, pc}
20005044:	2200      	movs	r2, #0
20005046:	2101      	movs	r1, #1
20005048:	54e2      	strb	r2, [r4, r3]
2000504a:	5d62      	ldrb	r2, [r4, r5]
2000504c:	4829      	ldr	r0, [pc, #164]	@ (200050f4 <_ZN12ComputerCard11AudioWorkerEv+0x1d4>)
2000504e:	4091      	lsls	r1, r2
20005050:	000a      	movs	r2, r1
20005052:	21a0      	movs	r1, #160	@ 0xa0
20005054:	05c9      	lsls	r1, r1, #23
20005056:	500a      	str	r2, [r1, r0]
20005058:	20a0      	movs	r0, #160	@ 0xa0
2000505a:	5da2      	ldrb	r2, [r4, r6]
2000505c:	5d61      	ldrb	r1, [r4, r5]
2000505e:	3214      	adds	r2, #20
20005060:	05c0      	lsls	r0, r0, #23
20005062:	0112      	lsls	r2, r2, #4
20005064:	0189      	lsls	r1, r1, #6
20005066:	1809      	adds	r1, r1, r0
20005068:	18a2      	adds	r2, r4, r2
2000506a:	62ca      	str	r2, [r1, #44]	@ 0x2c
2000506c:	4651      	mov	r1, sl
2000506e:	5da2      	ldrb	r2, [r4, r6]
20005070:	5c61      	ldrb	r1, [r4, r1]
20005072:	3258      	adds	r2, #88	@ 0x58
20005074:	0092      	lsls	r2, r2, #2
20005076:	0189      	lsls	r1, r1, #6
20005078:	1809      	adds	r1, r1, r0
2000507a:	18a2      	adds	r2, r4, r2
2000507c:	63ca      	str	r2, [r1, #60]	@ 0x3c
2000507e:	21f8      	movs	r1, #248	@ 0xf8
20005080:	27e0      	movs	r7, #224	@ 0xe0
20005082:	4a0b      	ldr	r2, [pc, #44]	@ (200050b0 <_ZN12ComputerCard11AudioWorkerEv+0x190>)
20005084:	0349      	lsls	r1, r1, #13
20005086:	6810      	ldr	r0, [r2, #0]
20005088:	468c      	mov	ip, r1
2000508a:	4008      	ands	r0, r1
2000508c:	4909      	ldr	r1, [pc, #36]	@ (200050b4 <_ZN12ComputerCard11AudioWorkerEv+0x194>)
2000508e:	01ff      	lsls	r7, r7, #7
20005090:	6008      	str	r0, [r1, #0]
20005092:	6810      	ldr	r0, [r2, #0]
20005094:	4038      	ands	r0, r7
20005096:	6008      	str	r0, [r1, #0]
20005098:	6810      	ldr	r0, [r2, #0]
2000509a:	22f0      	movs	r2, #240	@ 0xf0
2000509c:	0312      	lsls	r2, r2, #12
2000509e:	4042      	eors	r2, r0
200050a0:	4660      	mov	r0, ip
200050a2:	4002      	ands	r2, r0
200050a4:	600a      	str	r2, [r1, #0]
200050a6:	2108      	movs	r1, #8
200050a8:	4a11      	ldr	r2, [pc, #68]	@ (200050f0 <_ZN12ComputerCard11AudioWorkerEv+0x1d0>)
200050aa:	6011      	str	r1, [r2, #0]
200050ac:	e7b3      	b.n	20005016 <_ZN12ComputerCard11AudioWorkerEv+0xf6>
200050ae:	46c0      	nop			@ (mov r8, r8)
200050b0:	4004c000 	.word	0x4004c000
200050b4:	4004d000 	.word	0x4004d000
200050b8:	4004c008 	.word	0x4004c008
200050bc:	01000009 	.word	0x01000009
200050c0:	0f00000f 	.word	0x0f00000f
200050c4:	4004d008 	.word	0x4004d008
200050c8:	ffe07fff 	.word	0xffe07fff
200050cc:	00120025 	.word	0x00120025
200050d0:	4004c00c 	.word	0x4004c00c
200050d4:	50002404 	.word	0x50002404
200050d8:	20000215 	.word	0x20000215
200050dc:	40050000 	.word	0x40050000
200050e0:	400520a8 	.word	0x400520a8
200050e4:	20000111 	.word	0x20000111
200050e8:	00080015 	.word	0x00080015
200050ec:	4003c008 	.word	0x4003c008
200050f0:	4004e000 	.word	0x4004e000
200050f4:	0000040c 	.word	0x0000040c

200050f8 <_ZN12ComputerCard10BufferFullEv>:
200050f8:	b5f0      	push	{r4, r5, r6, r7, lr}
200050fa:	46de      	mov	lr, fp
200050fc:	464e      	mov	r6, r9
200050fe:	4657      	mov	r7, sl
20005100:	4645      	mov	r5, r8
20005102:	22e0      	movs	r2, #224	@ 0xe0
20005104:	4bde      	ldr	r3, [pc, #888]	@ (20005480 <_ZN12ComputerCard10BufferFullEv+0x388>)
20005106:	b5e0      	push	{r5, r6, r7, lr}
20005108:	681b      	ldr	r3, [r3, #0]
2000510a:	01d2      	lsls	r2, r2, #7
2000510c:	4013      	ands	r3, r2
2000510e:	4add      	ldr	r2, [pc, #884]	@ (20005484 <_ZN12ComputerCard10BufferFullEv+0x38c>)
20005110:	b087      	sub	sp, #28
20005112:	6013      	str	r3, [r2, #0]
20005114:	2203      	movs	r2, #3
20005116:	4bdc      	ldr	r3, [pc, #880]	@ (20005488 <_ZN12ComputerCard10BufferFullEv+0x390>)
20005118:	0004      	movs	r4, r0
2000511a:	681e      	ldr	r6, [r3, #0]
2000511c:	9305      	str	r3, [sp, #20]
2000511e:	1c73      	adds	r3, r6, #1
20005120:	401a      	ands	r2, r3
20005122:	4693      	mov	fp, r2
20005124:	07da      	lsls	r2, r3, #31
20005126:	d400      	bmi.n	2000512a <_ZN12ComputerCard10BufferFullEv+0x32>
20005128:	e28f      	b.n	2000564a <_ZN12ComputerCard10BufferFullEv+0x552>
2000512a:	22d0      	movs	r2, #208	@ 0xd0
2000512c:	2180      	movs	r1, #128	@ 0x80
2000512e:	0612      	lsls	r2, r2, #24
20005130:	0449      	lsls	r1, r1, #17
20005132:	6151      	str	r1, [r2, #20]
20005134:	079b      	lsls	r3, r3, #30
20005136:	d400      	bmi.n	2000513a <_ZN12ComputerCard10BufferFullEv+0x42>
20005138:	e281      	b.n	2000563e <_ZN12ComputerCard10BufferFullEv+0x546>
2000513a:	23d0      	movs	r3, #208	@ 0xd0
2000513c:	2280      	movs	r2, #128	@ 0x80
2000513e:	061b      	lsls	r3, r3, #24
20005140:	0492      	lsls	r2, r2, #18
20005142:	615a      	str	r2, [r3, #20]
20005144:	21b5      	movs	r1, #181	@ 0xb5
20005146:	0049      	lsls	r1, r1, #1
20005148:	5c63      	ldrb	r3, [r4, r1]
2000514a:	2201      	movs	r2, #1
2000514c:	469a      	mov	sl, r3
2000514e:	2301      	movs	r3, #1
20005150:	4698      	mov	r8, r3
20005152:	4650      	mov	r0, sl
20005154:	4643      	mov	r3, r8
20005156:	1a1b      	subs	r3, r3, r0
20005158:	20b4      	movs	r0, #180	@ 0xb4
2000515a:	0017      	movs	r7, r2
2000515c:	5463      	strb	r3, [r4, r1]
2000515e:	0040      	lsls	r0, r0, #1
20005160:	5c23      	ldrb	r3, [r4, r0]
20005162:	409f      	lsls	r7, r3
20005164:	23a0      	movs	r3, #160	@ 0xa0
20005166:	003d      	movs	r5, r7
20005168:	4fc8      	ldr	r7, [pc, #800]	@ (2000548c <_ZN12ComputerCard10BufferFullEv+0x394>)
2000516a:	05db      	lsls	r3, r3, #23
2000516c:	51dd      	str	r5, [r3, r7]
2000516e:	25a0      	movs	r5, #160	@ 0xa0
20005170:	5c63      	ldrb	r3, [r4, r1]
20005172:	5c20      	ldrb	r0, [r4, r0]
20005174:	3314      	adds	r3, #20
20005176:	05ed      	lsls	r5, r5, #23
20005178:	011b      	lsls	r3, r3, #4
2000517a:	0180      	lsls	r0, r0, #6
2000517c:	1940      	adds	r0, r0, r5
2000517e:	18e3      	adds	r3, r4, r3
20005180:	62c3      	str	r3, [r0, #44]	@ 0x2c
20005182:	5c63      	ldrb	r3, [r4, r1]
20005184:	216a      	movs	r1, #106	@ 0x6a
20005186:	31ff      	adds	r1, #255	@ 0xff
20005188:	5c61      	ldrb	r1, [r4, r1]
2000518a:	3358      	adds	r3, #88	@ 0x58
2000518c:	009b      	lsls	r3, r3, #2
2000518e:	0189      	lsls	r1, r1, #6
20005190:	1949      	adds	r1, r1, r5
20005192:	18e3      	adds	r3, r4, r3
20005194:	63cb      	str	r3, [r1, #60]	@ 0x3c
20005196:	0ff3      	lsrs	r3, r6, #31
20005198:	18f1      	adds	r1, r6, r3
2000519a:	400a      	ands	r2, r1
2000519c:	1ad5      	subs	r5, r2, r3
2000519e:	4653      	mov	r3, sl
200051a0:	0119      	lsls	r1, r3, #4
200051a2:	1861      	adds	r1, r4, r1
200051a4:	0008      	movs	r0, r1
200051a6:	2380      	movs	r3, #128	@ 0x80
200051a8:	4fb9      	ldr	r7, [pc, #740]	@ (20005490 <_ZN12ComputerCard10BufferFullEv+0x398>)
200051aa:	304f      	adds	r0, #79	@ 0x4f
200051ac:	46bc      	mov	ip, r7
200051ae:	30ff      	adds	r0, #255	@ 0xff
200051b0:	8802      	ldrh	r2, [r0, #0]
200051b2:	009b      	lsls	r3, r3, #2
200051b4:	9504      	str	r5, [sp, #16]
200051b6:	001d      	movs	r5, r3
200051b8:	18d3      	adds	r3, r2, r3
200051ba:	b29b      	uxth	r3, r3
200051bc:	0a9b      	lsrs	r3, r3, #10
200051be:	00db      	lsls	r3, r3, #3
200051c0:	18d3      	adds	r3, r2, r3
200051c2:	0592      	lsls	r2, r2, #22
200051c4:	0d92      	lsrs	r2, r2, #22
200051c6:	4462      	add	r2, ip
200051c8:	4257      	negs	r7, r2
200051ca:	417a      	adcs	r2, r7
200051cc:	0092      	lsls	r2, r2, #2
200051ce:	4fb1      	ldr	r7, [pc, #708]	@ (20005494 <_ZN12ComputerCard10BufferFullEv+0x39c>)
200051d0:	189b      	adds	r3, r3, r2
200051d2:	b29b      	uxth	r3, r3
200051d4:	437b      	muls	r3, r7
200051d6:	0cda      	lsrs	r2, r3, #19
200051d8:	8002      	strh	r2, [r0, #0]
200051da:	20a0      	movs	r0, #160	@ 0xa0
200051dc:	0040      	lsls	r0, r0, #1
200051de:	9200      	str	r2, [sp, #0]
200051e0:	5a0a      	ldrh	r2, [r1, r0]
200051e2:	1953      	adds	r3, r2, r5
200051e4:	b29b      	uxth	r3, r3
200051e6:	0a9b      	lsrs	r3, r3, #10
200051e8:	00db      	lsls	r3, r3, #3
200051ea:	18d3      	adds	r3, r2, r3
200051ec:	0592      	lsls	r2, r2, #22
200051ee:	0d92      	lsrs	r2, r2, #22
200051f0:	4462      	add	r2, ip
200051f2:	0015      	movs	r5, r2
200051f4:	426a      	negs	r2, r5
200051f6:	416a      	adcs	r2, r5
200051f8:	0092      	lsls	r2, r2, #2
200051fa:	189b      	adds	r3, r3, r2
200051fc:	b29b      	uxth	r3, r3
200051fe:	437b      	muls	r3, r7
20005200:	0cdd      	lsrs	r5, r3, #19
20005202:	520d      	strh	r5, [r1, r0]
20005204:	0008      	movs	r0, r1
20005206:	2380      	movs	r3, #128	@ 0x80
20005208:	46ac      	mov	ip, r5
2000520a:	4da1      	ldr	r5, [pc, #644]	@ (20005490 <_ZN12ComputerCard10BufferFullEv+0x398>)
2000520c:	3049      	adds	r0, #73	@ 0x49
2000520e:	46a9      	mov	r9, r5
20005210:	30ff      	adds	r0, #255	@ 0xff
20005212:	8802      	ldrh	r2, [r0, #0]
20005214:	009b      	lsls	r3, r3, #2
20005216:	18d3      	adds	r3, r2, r3
20005218:	b29b      	uxth	r3, r3
2000521a:	0a9b      	lsrs	r3, r3, #10
2000521c:	00db      	lsls	r3, r3, #3
2000521e:	18d3      	adds	r3, r2, r3
20005220:	0592      	lsls	r2, r2, #22
20005222:	0d92      	lsrs	r2, r2, #22
20005224:	444a      	add	r2, r9
20005226:	0015      	movs	r5, r2
20005228:	426a      	negs	r2, r5
2000522a:	416a      	adcs	r2, r5
2000522c:	0092      	lsls	r2, r2, #2
2000522e:	189b      	adds	r3, r3, r2
20005230:	b29b      	uxth	r3, r3
20005232:	437b      	muls	r3, r7
20005234:	0cda      	lsrs	r2, r3, #19
20005236:	2380      	movs	r3, #128	@ 0x80
20005238:	8002      	strh	r2, [r0, #0]
2000523a:	3806      	subs	r0, #6
2000523c:	9202      	str	r2, [sp, #8]
2000523e:	8802      	ldrh	r2, [r0, #0]
20005240:	009b      	lsls	r3, r3, #2
20005242:	18d3      	adds	r3, r2, r3
20005244:	b29b      	uxth	r3, r3
20005246:	0a9b      	lsrs	r3, r3, #10
20005248:	00db      	lsls	r3, r3, #3
2000524a:	18d3      	adds	r3, r2, r3
2000524c:	0592      	lsls	r2, r2, #22
2000524e:	0d92      	lsrs	r2, r2, #22
20005250:	444a      	add	r2, r9
20005252:	0015      	movs	r5, r2
20005254:	426a      	negs	r2, r5
20005256:	416a      	adcs	r2, r5
20005258:	0092      	lsls	r2, r2, #2
2000525a:	189b      	adds	r3, r3, r2
2000525c:	2280      	movs	r2, #128	@ 0x80
2000525e:	b29b      	uxth	r3, r3
20005260:	437b      	muls	r3, r7
20005262:	0cdb      	lsrs	r3, r3, #19
20005264:	8003      	strh	r3, [r0, #0]
20005266:	3008      	adds	r0, #8
20005268:	9303      	str	r3, [sp, #12]
2000526a:	0003      	movs	r3, r0
2000526c:	8800      	ldrh	r0, [r0, #0]
2000526e:	0092      	lsls	r2, r2, #2
20005270:	1882      	adds	r2, r0, r2
20005272:	b292      	uxth	r2, r2
20005274:	0a92      	lsrs	r2, r2, #10
20005276:	00d2      	lsls	r2, r2, #3
20005278:	1882      	adds	r2, r0, r2
2000527a:	0580      	lsls	r0, r0, #22
2000527c:	0d80      	lsrs	r0, r0, #22
2000527e:	4448      	add	r0, r9
20005280:	0005      	movs	r5, r0
20005282:	4268      	negs	r0, r5
20005284:	4168      	adcs	r0, r5
20005286:	0080      	lsls	r0, r0, #2
20005288:	1810      	adds	r0, r2, r0
2000528a:	b280      	uxth	r0, r0
2000528c:	4378      	muls	r0, r7
2000528e:	9d04      	ldr	r5, [sp, #16]
20005290:	0cc0      	lsrs	r0, r0, #19
20005292:	8018      	strh	r0, [r3, #0]
20005294:	4b80      	ldr	r3, [pc, #512]	@ (20005498 <_ZN12ComputerCard10BufferFullEv+0x3a0>)
20005296:	9001      	str	r0, [sp, #4]
20005298:	00a8      	lsls	r0, r5, #2
2000529a:	58c2      	ldr	r2, [r0, r3]
2000529c:	9f00      	ldr	r7, [sp, #0]
2000529e:	0115      	lsls	r5, r2, #4
200052a0:	1aaa      	subs	r2, r5, r2
200052a2:	013d      	lsls	r5, r7, #4
200052a4:	1952      	adds	r2, r2, r5
200052a6:	1112      	asrs	r2, r2, #4
200052a8:	50c2      	str	r2, [r0, r3]
200052aa:	2580      	movs	r5, #128	@ 0x80
200052ac:	58c2      	ldr	r2, [r0, r3]
200052ae:	1827      	adds	r7, r4, r0
200052b0:	2086      	movs	r0, #134	@ 0x86
200052b2:	012d      	lsls	r5, r5, #4
200052b4:	1112      	asrs	r2, r2, #4
200052b6:	1aaa      	subs	r2, r5, r2
200052b8:	0040      	lsls	r0, r0, #1
200052ba:	503a      	str	r2, [r7, r0]
200052bc:	9b03      	ldr	r3, [sp, #12]
200052be:	9801      	ldr	r0, [sp, #4]
200052c0:	46b9      	mov	r9, r7
200052c2:	181b      	adds	r3, r3, r0
200052c4:	278b      	movs	r7, #139	@ 0x8b
200052c6:	208a      	movs	r0, #138	@ 0x8a
200052c8:	9a02      	ldr	r2, [sp, #8]
200052ca:	4d74      	ldr	r5, [pc, #464]	@ (2000549c <_ZN12ComputerCard10BufferFullEv+0x3a4>)
200052cc:	4462      	add	r2, ip
200052ce:	1952      	adds	r2, r2, r5
200052d0:	195b      	adds	r3, r3, r5
200052d2:	1052      	asrs	r2, r2, #1
200052d4:	105b      	asrs	r3, r3, #1
200052d6:	0040      	lsls	r0, r0, #1
200052d8:	007f      	lsls	r7, r7, #1
200052da:	4252      	negs	r2, r2
200052dc:	425b      	negs	r3, r3
200052de:	53e2      	strh	r2, [r4, r7]
200052e0:	5223      	strh	r3, [r4, r0]
200052e2:	5be3      	ldrh	r3, [r4, r7]
200052e4:	69a2      	ldr	r2, [r4, #24]
200052e6:	b21b      	sxth	r3, r3
200052e8:	4f6d      	ldr	r7, [pc, #436]	@ (200054a0 <_ZN12ComputerCard10BufferFullEv+0x3a8>)
200052ea:	18d2      	adds	r2, r2, r3
200052ec:	4357      	muls	r7, r2
200052ee:	6a22      	ldr	r2, [r4, #32]
200052f0:	001d      	movs	r5, r3
200052f2:	0493      	lsls	r3, r2, #18
200052f4:	1a9b      	subs	r3, r3, r2
200052f6:	01db      	lsls	r3, r3, #7
200052f8:	189b      	adds	r3, r3, r2
200052fa:	009b      	lsls	r3, r3, #2
200052fc:	189b      	adds	r3, r3, r2
200052fe:	011b      	lsls	r3, r3, #4
20005300:	189b      	adds	r3, r3, r2
20005302:	005b      	lsls	r3, r3, #1
20005304:	189b      	adds	r3, r3, r2
20005306:	18fa      	adds	r2, r7, r3
20005308:	278b      	movs	r7, #139	@ 0x8b
2000530a:	6963      	ldr	r3, [r4, #20]
2000530c:	1392      	asrs	r2, r2, #14
2000530e:	61a3      	str	r3, [r4, #24]
20005310:	69e3      	ldr	r3, [r4, #28]
20005312:	007f      	lsls	r7, r7, #1
20005314:	6165      	str	r5, [r4, #20]
20005316:	61e2      	str	r2, [r4, #28]
20005318:	6223      	str	r3, [r4, #32]
2000531a:	53e2      	strh	r2, [r4, r7]
2000531c:	5a23      	ldrh	r3, [r4, r0]
2000531e:	68a2      	ldr	r2, [r4, #8]
20005320:	b21b      	sxth	r3, r3
20005322:	469c      	mov	ip, r3
20005324:	4f5e      	ldr	r7, [pc, #376]	@ (200054a0 <_ZN12ComputerCard10BufferFullEv+0x3a8>)
20005326:	4462      	add	r2, ip
20005328:	4357      	muls	r7, r2
2000532a:	6922      	ldr	r2, [r4, #16]
2000532c:	250c      	movs	r5, #12
2000532e:	0493      	lsls	r3, r2, #18
20005330:	1a9b      	subs	r3, r3, r2
20005332:	01db      	lsls	r3, r3, #7
20005334:	189b      	adds	r3, r3, r2
20005336:	009b      	lsls	r3, r3, #2
20005338:	189b      	adds	r3, r3, r2
2000533a:	011b      	lsls	r3, r3, #4
2000533c:	189b      	adds	r3, r3, r2
2000533e:	005b      	lsls	r3, r3, #1
20005340:	189b      	adds	r3, r3, r2
20005342:	18fa      	adds	r2, r7, r3
20005344:	6863      	ldr	r3, [r4, #4]
20005346:	1392      	asrs	r2, r2, #14
20005348:	60a3      	str	r3, [r4, #8]
2000534a:	4663      	mov	r3, ip
2000534c:	6063      	str	r3, [r4, #4]
2000534e:	68e3      	ldr	r3, [r4, #12]
20005350:	60e2      	str	r2, [r4, #12]
20005352:	6123      	str	r3, [r4, #16]
20005354:	5222      	strh	r2, [r4, r0]
20005356:	2285      	movs	r2, #133	@ 0x85
20005358:	380c      	subs	r0, #12
2000535a:	5c23      	ldrb	r3, [r4, r0]
2000535c:	0052      	lsls	r2, r2, #1
2000535e:	54a3      	strb	r3, [r4, r2]
20005360:	220a      	movs	r2, #10
20005362:	32ff      	adds	r2, #255	@ 0xff
20005364:	5ca3      	ldrb	r3, [r4, r2]
20005366:	35ff      	adds	r5, #255	@ 0xff
20005368:	5563      	strb	r3, [r4, r5]
2000536a:	23d0      	movs	r3, #208	@ 0xd0
2000536c:	4645      	mov	r5, r8
2000536e:	061b      	lsls	r3, r3, #24
20005370:	469c      	mov	ip, r3
20005372:	685b      	ldr	r3, [r3, #4]
20005374:	314d      	adds	r1, #77	@ 0x4d
20005376:	075b      	lsls	r3, r3, #29
20005378:	0fdb      	lsrs	r3, r3, #31
2000537a:	406b      	eors	r3, r5
2000537c:	5423      	strb	r3, [r4, r0]
2000537e:	4663      	mov	r3, ip
20005380:	4640      	mov	r0, r8
20005382:	685b      	ldr	r3, [r3, #4]
20005384:	31ff      	adds	r1, #255	@ 0xff
20005386:	071b      	lsls	r3, r3, #28
20005388:	0fdb      	lsrs	r3, r3, #31
2000538a:	4043      	eors	r3, r0
2000538c:	54a3      	strb	r3, [r4, r2]
2000538e:	4b45      	ldr	r3, [pc, #276]	@ (200054a4 <_ZN12ComputerCard10BufferFullEv+0x3ac>)
20005390:	00b2      	lsls	r2, r6, #2
20005392:	4694      	mov	ip, r2
20005394:	58d2      	ldr	r2, [r2, r3]
20005396:	363e      	adds	r6, #62	@ 0x3e
20005398:	4690      	mov	r8, r2
2000539a:	880a      	ldrh	r2, [r1, #0]
2000539c:	4641      	mov	r1, r8
2000539e:	4640      	mov	r0, r8
200053a0:	01c9      	lsls	r1, r1, #7
200053a2:	1a09      	subs	r1, r1, r0
200053a4:	0112      	lsls	r2, r2, #4
200053a6:	1852      	adds	r2, r2, r1
200053a8:	4661      	mov	r1, ip
200053aa:	11d2      	asrs	r2, r2, #7
200053ac:	50ca      	str	r2, [r1, r3]
200053ae:	58cb      	ldr	r3, [r1, r3]
200053b0:	00b6      	lsls	r6, r6, #2
200053b2:	111b      	asrs	r3, r3, #4
200053b4:	5133      	str	r3, [r6, r4]
200053b6:	2382      	movs	r3, #130	@ 0x82
200053b8:	22fa      	movs	r2, #250	@ 0xfa
200053ba:	005b      	lsls	r3, r3, #1
200053bc:	58e1      	ldr	r1, [r4, r3]
200053be:	0092      	lsls	r2, r2, #2
200053c0:	58e6      	ldr	r6, [r4, r3]
200053c2:	2301      	movs	r3, #1
200053c4:	4291      	cmp	r1, r2
200053c6:	dc00      	bgt.n	200053ca <_ZN12ComputerCard10BufferFullEv+0x2d2>
200053c8:	2300      	movs	r3, #0
200053ca:	4937      	ldr	r1, [pc, #220]	@ (200054a8 <_ZN12ComputerCard10BufferFullEv+0x3b0>)
200053cc:	2201      	movs	r2, #1
200053ce:	428e      	cmp	r6, r1
200053d0:	dc00      	bgt.n	200053d4 <_ZN12ComputerCard10BufferFullEv+0x2dc>
200053d2:	2200      	movs	r2, #0
200053d4:	189b      	adds	r3, r3, r2
200053d6:	223c      	movs	r2, #60	@ 0x3c
200053d8:	4e34      	ldr	r6, [pc, #208]	@ (200054ac <_ZN12ComputerCard10BufferFullEv+0x3b4>)
200053da:	32ff      	adds	r2, #255	@ 0xff
200053dc:	54a3      	strb	r3, [r4, r2]
200053de:	6832      	ldr	r2, [r6, #0]
200053e0:	2a00      	cmp	r2, #0
200053e2:	d002      	beq.n	200053ea <_ZN12ComputerCard10BufferFullEv+0x2f2>
200053e4:	229e      	movs	r2, #158	@ 0x9e
200053e6:	0052      	lsls	r2, r2, #1
200053e8:	54a3      	strb	r3, [r4, r2]
200053ea:	239d      	movs	r3, #157	@ 0x9d
200053ec:	005b      	lsls	r3, r3, #1
200053ee:	5ce3      	ldrb	r3, [r4, r3]
200053f0:	2b00      	cmp	r3, #0
200053f2:	d000      	beq.n	200053f6 <_ZN12ComputerCard10BufferFullEv+0x2fe>
200053f4:	e07c      	b.n	200054f0 <_ZN12ComputerCard10BufferFullEv+0x3f8>
200053f6:	4b2e      	ldr	r3, [pc, #184]	@ (200054b0 <_ZN12ComputerCard10BufferFullEv+0x3b8>)
200053f8:	4698      	mov	r8, r3
200053fa:	6823      	ldr	r3, [r4, #0]
200053fc:	0020      	movs	r0, r4
200053fe:	681b      	ldr	r3, [r3, #0]
20005400:	4798      	blx	r3
20005402:	23f2      	movs	r3, #242	@ 0xf2
20005404:	4651      	mov	r1, sl
20005406:	2080      	movs	r0, #128	@ 0x80
20005408:	5ae3      	ldrh	r3, [r4, r3]
2000540a:	3158      	adds	r1, #88	@ 0x58
2000540c:	425b      	negs	r3, r3
2000540e:	1c1a      	adds	r2, r3, #0
20005410:	b21b      	sxth	r3, r3
20005412:	0089      	lsls	r1, r1, #2
20005414:	0100      	lsls	r0, r0, #4
20005416:	4283      	cmp	r3, r0
20005418:	db01      	blt.n	2000541e <_ZN12ComputerCard10BufferFullEv+0x326>
2000541a:	4b26      	ldr	r3, [pc, #152]	@ (200054b4 <_ZN12ComputerCard10BufferFullEv+0x3bc>)
2000541c:	1c1a      	adds	r2, r3, #0
2000541e:	4b26      	ldr	r3, [pc, #152]	@ (200054b8 <_ZN12ComputerCard10BufferFullEv+0x3c0>)
20005420:	b210      	sxth	r0, r2
20005422:	4298      	cmp	r0, r3
20005424:	da00      	bge.n	20005428 <_ZN12ComputerCard10BufferFullEv+0x330>
20005426:	1c1a      	adds	r2, r3, #0
20005428:	2380      	movs	r3, #128	@ 0x80
2000542a:	011b      	lsls	r3, r3, #4
2000542c:	469c      	mov	ip, r3
2000542e:	23c0      	movs	r3, #192	@ 0xc0
20005430:	4462      	add	r2, ip
20005432:	019b      	lsls	r3, r3, #6
20005434:	4313      	orrs	r3, r2
20005436:	530b      	strh	r3, [r1, r4]
20005438:	4653      	mov	r3, sl
2000543a:	009d      	lsls	r5, r3, #2
2000543c:	23f4      	movs	r3, #244	@ 0xf4
2000543e:	5ae3      	ldrh	r3, [r4, r3]
20005440:	1965      	adds	r5, r4, r5
20005442:	425b      	negs	r3, r3
20005444:	3563      	adds	r5, #99	@ 0x63
20005446:	1c1a      	adds	r2, r3, #0
20005448:	b21b      	sxth	r3, r3
2000544a:	35ff      	adds	r5, #255	@ 0xff
2000544c:	4563      	cmp	r3, ip
2000544e:	db01      	blt.n	20005454 <_ZN12ComputerCard10BufferFullEv+0x35c>
20005450:	4b18      	ldr	r3, [pc, #96]	@ (200054b4 <_ZN12ComputerCard10BufferFullEv+0x3bc>)
20005452:	1c1a      	adds	r2, r3, #0
20005454:	4b18      	ldr	r3, [pc, #96]	@ (200054b8 <_ZN12ComputerCard10BufferFullEv+0x3c0>)
20005456:	b211      	sxth	r1, r2
20005458:	4299      	cmp	r1, r3
2000545a:	da00      	bge.n	2000545e <_ZN12ComputerCard10BufferFullEv+0x366>
2000545c:	1c1a      	adds	r2, r3, #0
2000545e:	2380      	movs	r3, #128	@ 0x80
20005460:	011b      	lsls	r3, r3, #4
20005462:	18d2      	adds	r2, r2, r3
20005464:	4b15      	ldr	r3, [pc, #84]	@ (200054bc <_ZN12ComputerCard10BufferFullEv+0x3c4>)
20005466:	4313      	orrs	r3, r2
20005468:	802b      	strh	r3, [r5, #0]
2000546a:	465a      	mov	r2, fp
2000546c:	253e      	movs	r5, #62	@ 0x3e
2000546e:	9b05      	ldr	r3, [sp, #20]
20005470:	35ff      	adds	r5, #255	@ 0xff
20005472:	601a      	str	r2, [r3, #0]
20005474:	5d63      	ldrb	r3, [r4, r5]
20005476:	b2da      	uxtb	r2, r3
20005478:	2b01      	cmp	r3, #1
2000547a:	d100      	bne.n	2000547e <_ZN12ComputerCard10BufferFullEv+0x386>
2000547c:	e0ff      	b.n	2000567e <_ZN12ComputerCard10BufferFullEv+0x586>
2000547e:	e01f      	b.n	200054c0 <_ZN12ComputerCard10BufferFullEv+0x3c8>
20005480:	4004c000 	.word	0x4004c000
20005484:	4004d000 	.word	0x4004d000
20005488:	20007014 	.word	0x20007014
2000548c:	0000040c 	.word	0x0000040c
20005490:	fffffe01 	.word	0xfffffe01
20005494:	0007f09d 	.word	0x0007f09d
20005498:	20006ffc 	.word	0x20006ffc
2000549c:	fffff000 	.word	0xfffff000
200054a0:	00003fae 	.word	0x00003fae
200054a4:	20007004 	.word	0x20007004
200054a8:	00000bb8 	.word	0x00000bb8
200054ac:	20006950 	.word	0x20006950
200054b0:	20006ff4 	.word	0x20006ff4
200054b4:	000007ff 	.word	0x000007ff
200054b8:	fffff800 	.word	0xfffff800
200054bc:	ffffb000 	.word	0xffffb000
200054c0:	4643      	mov	r3, r8
200054c2:	681a      	ldr	r2, [r3, #0]
200054c4:	230f      	movs	r3, #15
200054c6:	3201      	adds	r2, #1
200054c8:	4013      	ands	r3, r2
200054ca:	4642      	mov	r2, r8
200054cc:	6013      	str	r3, [r2, #0]
200054ce:	233c      	movs	r3, #60	@ 0x3c
200054d0:	33ff      	adds	r3, #255	@ 0xff
200054d2:	5ce2      	ldrb	r2, [r4, r3]
200054d4:	3301      	adds	r3, #1
200054d6:	54e2      	strb	r2, [r4, r3]
200054d8:	6833      	ldr	r3, [r6, #0]
200054da:	2b00      	cmp	r3, #0
200054dc:	d001      	beq.n	200054e2 <_ZN12ComputerCard10BufferFullEv+0x3ea>
200054de:	3b01      	subs	r3, #1
200054e0:	6033      	str	r3, [r6, #0]
200054e2:	b007      	add	sp, #28
200054e4:	bcf0      	pop	{r4, r5, r6, r7}
200054e6:	46bb      	mov	fp, r7
200054e8:	46b2      	mov	sl, r6
200054ea:	46a9      	mov	r9, r5
200054ec:	46a0      	mov	r8, r4
200054ee:	bdf0      	pop	{r4, r5, r6, r7, pc}
200054f0:	4b7a      	ldr	r3, [pc, #488]	@ (200056dc <_ZN12ComputerCard10BufferFullEv+0x5e4>)
200054f2:	4698      	mov	r8, r3
200054f4:	681b      	ldr	r3, [r3, #0]
200054f6:	2b00      	cmp	r3, #0
200054f8:	d100      	bne.n	200054fc <_ZN12ComputerCard10BufferFullEv+0x404>
200054fa:	e0ac      	b.n	20005656 <_ZN12ComputerCard10BufferFullEv+0x55e>
200054fc:	001a      	movs	r2, r3
200054fe:	3a0e      	subs	r2, #14
20005500:	2a01      	cmp	r2, #1
20005502:	d864      	bhi.n	200055ce <_ZN12ComputerCard10BufferFullEv+0x4d6>
20005504:	25e1      	movs	r5, #225	@ 0xe1
20005506:	00ed      	lsls	r5, r5, #3
20005508:	46ac      	mov	ip, r5
2000550a:	2192      	movs	r1, #146	@ 0x92
2000550c:	4648      	mov	r0, r9
2000550e:	9d00      	ldr	r5, [sp, #0]
20005510:	0049      	lsls	r1, r1, #1
20005512:	4565      	cmp	r5, ip
20005514:	41ad      	sbcs	r5, r5
20005516:	5842      	ldr	r2, [r0, r1]
20005518:	426d      	negs	r5, r5
2000551a:	0052      	lsls	r2, r2, #1
2000551c:	1952      	adds	r2, r2, r5
2000551e:	5042      	str	r2, [r0, r1]
20005520:	2b0f      	cmp	r3, #15
20005522:	d154      	bne.n	200055ce <_ZN12ComputerCard10BufferFullEv+0x4d6>
20005524:	258e      	movs	r5, #142	@ 0x8e
20005526:	9a01      	ldr	r2, [sp, #4]
20005528:	006d      	lsls	r5, r5, #1
2000552a:	4562      	cmp	r2, ip
2000552c:	4180      	sbcs	r0, r0
2000552e:	5963      	ldr	r3, [r4, r5]
20005530:	2796      	movs	r7, #150	@ 0x96
20005532:	005b      	lsls	r3, r3, #1
20005534:	1a1b      	subs	r3, r3, r0
20005536:	2090      	movs	r0, #144	@ 0x90
20005538:	5163      	str	r3, [r4, r5]
2000553a:	9b02      	ldr	r3, [sp, #8]
2000553c:	0040      	lsls	r0, r0, #1
2000553e:	4563      	cmp	r3, ip
20005540:	419b      	sbcs	r3, r3
20005542:	5822      	ldr	r2, [r4, r0]
20005544:	007f      	lsls	r7, r7, #1
20005546:	0052      	lsls	r2, r2, #1
20005548:	1ad2      	subs	r2, r2, r3
2000554a:	5022      	str	r2, [r4, r0]
2000554c:	2284      	movs	r2, #132	@ 0x84
2000554e:	59e3      	ldr	r3, [r4, r7]
20005550:	0052      	lsls	r2, r2, #1
20005552:	5ca2      	ldrb	r2, [r4, r2]
20005554:	005b      	lsls	r3, r3, #1
20005556:	189b      	adds	r3, r3, r2
20005558:	51e3      	str	r3, [r4, r7]
2000555a:	2398      	movs	r3, #152	@ 0x98
2000555c:	220a      	movs	r2, #10
2000555e:	005b      	lsls	r3, r3, #1
20005560:	469c      	mov	ip, r3
20005562:	32ff      	adds	r2, #255	@ 0xff
20005564:	58e3      	ldr	r3, [r4, r3]
20005566:	5ca2      	ldrb	r2, [r4, r2]
20005568:	005b      	lsls	r3, r3, #1
2000556a:	189b      	adds	r3, r3, r2
2000556c:	4662      	mov	r2, ip
2000556e:	50a3      	str	r3, [r4, r2]
20005570:	4b5b      	ldr	r3, [pc, #364]	@ (200056e0 <_ZN12ComputerCard10BufferFullEv+0x5e8>)
20005572:	5962      	ldr	r2, [r4, r5]
20005574:	681b      	ldr	r3, [r3, #0]
20005576:	1a9a      	subs	r2, r3, r2
20005578:	1e55      	subs	r5, r2, #1
2000557a:	41aa      	sbcs	r2, r5
2000557c:	259a      	movs	r5, #154	@ 0x9a
2000557e:	006d      	lsls	r5, r5, #1
20005580:	5562      	strb	r2, [r4, r5]
20005582:	5822      	ldr	r2, [r4, r0]
20005584:	1a9a      	subs	r2, r3, r2
20005586:	1e50      	subs	r0, r2, #1
20005588:	4182      	sbcs	r2, r0
2000558a:	2036      	movs	r0, #54	@ 0x36
2000558c:	30ff      	adds	r0, #255	@ 0xff
2000558e:	5422      	strb	r2, [r4, r0]
20005590:	5862      	ldr	r2, [r4, r1]
20005592:	1a9a      	subs	r2, r3, r2
20005594:	1e51      	subs	r1, r2, #1
20005596:	418a      	sbcs	r2, r1
20005598:	219b      	movs	r1, #155	@ 0x9b
2000559a:	0049      	lsls	r1, r1, #1
2000559c:	5462      	strb	r2, [r4, r1]
2000559e:	2294      	movs	r2, #148	@ 0x94
200055a0:	0052      	lsls	r2, r2, #1
200055a2:	58a2      	ldr	r2, [r4, r2]
200055a4:	1a9a      	subs	r2, r3, r2
200055a6:	1e51      	subs	r1, r2, #1
200055a8:	418a      	sbcs	r2, r1
200055aa:	2138      	movs	r1, #56	@ 0x38
200055ac:	31ff      	adds	r1, #255	@ 0xff
200055ae:	5462      	strb	r2, [r4, r1]
200055b0:	59e2      	ldr	r2, [r4, r7]
200055b2:	1a9a      	subs	r2, r3, r2
200055b4:	1e51      	subs	r1, r2, #1
200055b6:	418a      	sbcs	r2, r1
200055b8:	219c      	movs	r1, #156	@ 0x9c
200055ba:	0049      	lsls	r1, r1, #1
200055bc:	5462      	strb	r2, [r4, r1]
200055be:	4662      	mov	r2, ip
200055c0:	58a2      	ldr	r2, [r4, r2]
200055c2:	1ad3      	subs	r3, r2, r3
200055c4:	1e5a      	subs	r2, r3, #1
200055c6:	4193      	sbcs	r3, r2
200055c8:	223a      	movs	r2, #58	@ 0x3a
200055ca:	32ff      	adds	r2, #255	@ 0xff
200055cc:	54a3      	strb	r3, [r4, r2]
200055ce:	239a      	movs	r3, #154	@ 0x9a
200055d0:	005b      	lsls	r3, r3, #1
200055d2:	5ce3      	ldrb	r3, [r4, r3]
200055d4:	b2da      	uxtb	r2, r3
200055d6:	2b00      	cmp	r3, #0
200055d8:	d102      	bne.n	200055e0 <_ZN12ComputerCard10BufferFullEv+0x4e8>
200055da:	3315      	adds	r3, #21
200055dc:	33ff      	adds	r3, #255	@ 0xff
200055de:	52e2      	strh	r2, [r4, r3]
200055e0:	2336      	movs	r3, #54	@ 0x36
200055e2:	33ff      	adds	r3, #255	@ 0xff
200055e4:	5ce3      	ldrb	r3, [r4, r3]
200055e6:	b2da      	uxtb	r2, r3
200055e8:	2b00      	cmp	r3, #0
200055ea:	d102      	bne.n	200055f2 <_ZN12ComputerCard10BufferFullEv+0x4fa>
200055ec:	3317      	adds	r3, #23
200055ee:	33ff      	adds	r3, #255	@ 0xff
200055f0:	52e2      	strh	r2, [r4, r3]
200055f2:	239b      	movs	r3, #155	@ 0x9b
200055f4:	005b      	lsls	r3, r3, #1
200055f6:	5ce3      	ldrb	r3, [r4, r3]
200055f8:	b2da      	uxtb	r2, r3
200055fa:	2b00      	cmp	r3, #0
200055fc:	d102      	bne.n	20005604 <_ZN12ComputerCard10BufferFullEv+0x50c>
200055fe:	330d      	adds	r3, #13
20005600:	33ff      	adds	r3, #255	@ 0xff
20005602:	50e2      	str	r2, [r4, r3]
20005604:	2338      	movs	r3, #56	@ 0x38
20005606:	33ff      	adds	r3, #255	@ 0xff
20005608:	5ce3      	ldrb	r3, [r4, r3]
2000560a:	b2da      	uxtb	r2, r3
2000560c:	2b00      	cmp	r3, #0
2000560e:	d102      	bne.n	20005616 <_ZN12ComputerCard10BufferFullEv+0x51e>
20005610:	3311      	adds	r3, #17
20005612:	33ff      	adds	r3, #255	@ 0xff
20005614:	50e2      	str	r2, [r4, r3]
20005616:	239c      	movs	r3, #156	@ 0x9c
20005618:	005b      	lsls	r3, r3, #1
2000561a:	5ce3      	ldrb	r3, [r4, r3]
2000561c:	b2da      	uxtb	r2, r3
2000561e:	2b00      	cmp	r3, #0
20005620:	d102      	bne.n	20005628 <_ZN12ComputerCard10BufferFullEv+0x530>
20005622:	3309      	adds	r3, #9
20005624:	33ff      	adds	r3, #255	@ 0xff
20005626:	54e2      	strb	r2, [r4, r3]
20005628:	233a      	movs	r3, #58	@ 0x3a
2000562a:	33ff      	adds	r3, #255	@ 0xff
2000562c:	5ce3      	ldrb	r3, [r4, r3]
2000562e:	b2da      	uxtb	r2, r3
20005630:	2b00      	cmp	r3, #0
20005632:	d000      	beq.n	20005636 <_ZN12ComputerCard10BufferFullEv+0x53e>
20005634:	e6e1      	b.n	200053fa <_ZN12ComputerCard10BufferFullEv+0x302>
20005636:	230a      	movs	r3, #10
20005638:	33ff      	adds	r3, #255	@ 0xff
2000563a:	54e2      	strb	r2, [r4, r3]
2000563c:	e6dd      	b.n	200053fa <_ZN12ComputerCard10BufferFullEv+0x302>
2000563e:	23d0      	movs	r3, #208	@ 0xd0
20005640:	2280      	movs	r2, #128	@ 0x80
20005642:	061b      	lsls	r3, r3, #24
20005644:	0492      	lsls	r2, r2, #18
20005646:	619a      	str	r2, [r3, #24]
20005648:	e57c      	b.n	20005144 <_ZN12ComputerCard10BufferFullEv+0x4c>
2000564a:	22d0      	movs	r2, #208	@ 0xd0
2000564c:	2180      	movs	r1, #128	@ 0x80
2000564e:	0612      	lsls	r2, r2, #24
20005650:	0449      	lsls	r1, r1, #17
20005652:	6191      	str	r1, [r2, #24]
20005654:	e56e      	b.n	20005134 <_ZN12ComputerCard10BufferFullEv+0x3c>
20005656:	4a23      	ldr	r2, [pc, #140]	@ (200056e4 <_ZN12ComputerCard10BufferFullEv+0x5ec>)
20005658:	4b23      	ldr	r3, [pc, #140]	@ (200056e8 <_ZN12ComputerCard10BufferFullEv+0x5f0>)
2000565a:	6811      	ldr	r1, [r2, #0]
2000565c:	434b      	muls	r3, r1
2000565e:	4923      	ldr	r1, [pc, #140]	@ (200056ec <_ZN12ComputerCard10BufferFullEv+0x5f4>)
20005660:	185b      	adds	r3, r3, r1
20005662:	6013      	str	r3, [r2, #0]
20005664:	0fd9      	lsrs	r1, r3, #31
20005666:	2b00      	cmp	r3, #0
20005668:	db33      	blt.n	200056d2 <_ZN12ComputerCard10BufferFullEv+0x5da>
2000566a:	23d0      	movs	r3, #208	@ 0xd0
2000566c:	2210      	movs	r2, #16
2000566e:	061b      	lsls	r3, r3, #24
20005670:	619a      	str	r2, [r3, #24]
20005672:	4a1b      	ldr	r2, [pc, #108]	@ (200056e0 <_ZN12ComputerCard10BufferFullEv+0x5e8>)
20005674:	6813      	ldr	r3, [r2, #0]
20005676:	005b      	lsls	r3, r3, #1
20005678:	185b      	adds	r3, r3, r1
2000567a:	6013      	str	r3, [r2, #0]
2000567c:	e7a7      	b.n	200055ce <_ZN12ComputerCard10BufferFullEv+0x4d6>
2000567e:	2108      	movs	r1, #8
20005680:	4b1b      	ldr	r3, [pc, #108]	@ (200056f0 <_ZN12ComputerCard10BufferFullEv+0x5f8>)
20005682:	481c      	ldr	r0, [pc, #112]	@ (200056f4 <_ZN12ComputerCard10BufferFullEv+0x5fc>)
20005684:	6019      	str	r1, [r3, #0]
20005686:	21f8      	movs	r1, #248	@ 0xf8
20005688:	6803      	ldr	r3, [r0, #0]
2000568a:	0349      	lsls	r1, r1, #13
2000568c:	400b      	ands	r3, r1
2000568e:	491a      	ldr	r1, [pc, #104]	@ (200056f8 <_ZN12ComputerCard10BufferFullEv+0x600>)
20005690:	600b      	str	r3, [r1, #0]
20005692:	6803      	ldr	r3, [r0, #0]
20005694:	20e0      	movs	r0, #224	@ 0xe0
20005696:	01c0      	lsls	r0, r0, #7
20005698:	4003      	ands	r3, r0
2000569a:	600b      	str	r3, [r1, #0]
2000569c:	23b4      	movs	r3, #180	@ 0xb4
2000569e:	005b      	lsls	r3, r3, #1
200056a0:	5ce1      	ldrb	r1, [r4, r3]
200056a2:	20a0      	movs	r0, #160	@ 0xa0
200056a4:	408a      	lsls	r2, r1
200056a6:	4915      	ldr	r1, [pc, #84]	@ (200056fc <_ZN12ComputerCard10BufferFullEv+0x604>)
200056a8:	05c0      	lsls	r0, r0, #23
200056aa:	5042      	str	r2, [r0, r1]
200056ac:	5ce0      	ldrb	r0, [r4, r3]
200056ae:	f7ff f957 	bl	20004960 <dma_channel_cleanup>
200056b2:	236a      	movs	r3, #106	@ 0x6a
200056b4:	33ff      	adds	r3, #255	@ 0xff
200056b6:	5ce0      	ldrb	r0, [r4, r3]
200056b8:	f7ff f952 	bl	20004960 <dma_channel_cleanup>
200056bc:	2100      	movs	r1, #0
200056be:	200b      	movs	r0, #11
200056c0:	f7fd fd56 	bl	20003170 <irq_set_enabled>
200056c4:	200b      	movs	r0, #11
200056c6:	490e      	ldr	r1, [pc, #56]	@ (20005700 <_ZN12ComputerCard10BufferFullEv+0x608>)
200056c8:	f7fd fd8e 	bl	200031e8 <irq_remove_handler>
200056cc:	2302      	movs	r3, #2
200056ce:	5563      	strb	r3, [r4, r5]
200056d0:	e6f6      	b.n	200054c0 <_ZN12ComputerCard10BufferFullEv+0x3c8>
200056d2:	23d0      	movs	r3, #208	@ 0xd0
200056d4:	2210      	movs	r2, #16
200056d6:	061b      	lsls	r3, r3, #24
200056d8:	615a      	str	r2, [r3, #20]
200056da:	e7ca      	b.n	20005672 <_ZN12ComputerCard10BufferFullEv+0x57a>
200056dc:	20006ff4 	.word	0x20006ff4
200056e0:	20006ff8 	.word	0x20006ff8
200056e4:	20006954 	.word	0x20006954
200056e8:	0019660d 	.word	0x0019660d
200056ec:	3c6ef35f 	.word	0x3c6ef35f
200056f0:	4004f000 	.word	0x4004f000
200056f4:	4004c000 	.word	0x4004c000
200056f8:	4004d000 	.word	0x4004d000
200056fc:	0000040c 	.word	0x0000040c
20005700:	20000215 	.word	0x20000215

20005704 <mutex_try_enter_block_until>:
20005704:	b5f0      	push	{r4, r5, r6, r7, lr}
20005706:	46c6      	mov	lr, r8
20005708:	0016      	movs	r6, r2
2000570a:	b500      	push	{lr}
2000570c:	0004      	movs	r4, r0
2000570e:	001f      	movs	r7, r3
20005710:	6802      	ldr	r2, [r0, #0]
20005712:	f3ef 8110 	mrs	r1, PRIMASK
20005716:	b672      	cpsid	i
20005718:	6813      	ldr	r3, [r2, #0]
2000571a:	2b00      	cmp	r3, #0
2000571c:	d0fc      	beq.n	20005718 <mutex_try_enter_block_until+0x14>
2000571e:	f3bf 8f5f 	dmb	sy
20005722:	2304      	movs	r3, #4
20005724:	56e3      	ldrsb	r3, [r4, r3]
20005726:	6822      	ldr	r2, [r4, #0]
20005728:	2b00      	cmp	r3, #0
2000572a:	db2b      	blt.n	20005784 <mutex_try_enter_block_until+0x80>
2000572c:	f3bf 8f5f 	dmb	sy
20005730:	2000      	movs	r0, #0
20005732:	6010      	str	r0, [r2, #0]
20005734:	f381 8810 	msr	PRIMASK, r1
20005738:	22d0      	movs	r2, #208	@ 0xd0
2000573a:	0612      	lsls	r2, r2, #24
2000573c:	7812      	ldrb	r2, [r2, #0]
2000573e:	2500      	movs	r5, #0
20005740:	b252      	sxtb	r2, r2
20005742:	4690      	mov	r8, r2
20005744:	429a      	cmp	r2, r3
20005746:	d10e      	bne.n	20005766 <mutex_try_enter_block_until+0x62>
20005748:	2000      	movs	r0, #0
2000574a:	bc80      	pop	{r7}
2000574c:	46b8      	mov	r8, r7
2000574e:	bdf0      	pop	{r4, r5, r6, r7, pc}
20005750:	f3bf 8f5f 	dmb	sy
20005754:	6015      	str	r5, [r2, #0]
20005756:	f381 8810 	msr	PRIMASK, r1
2000575a:	0030      	movs	r0, r6
2000575c:	0039      	movs	r1, r7
2000575e:	f7fe f9d1 	bl	20003b04 <best_effort_wfe_or_timeout>
20005762:	2800      	cmp	r0, #0
20005764:	d1f0      	bne.n	20005748 <mutex_try_enter_block_until+0x44>
20005766:	6822      	ldr	r2, [r4, #0]
20005768:	f3ef 8110 	mrs	r1, PRIMASK
2000576c:	b672      	cpsid	i
2000576e:	6813      	ldr	r3, [r2, #0]
20005770:	2b00      	cmp	r3, #0
20005772:	d0fc      	beq.n	2000576e <mutex_try_enter_block_until+0x6a>
20005774:	f3bf 8f5f 	dmb	sy
20005778:	7923      	ldrb	r3, [r4, #4]
2000577a:	6822      	ldr	r2, [r4, #0]
2000577c:	2b7f      	cmp	r3, #127	@ 0x7f
2000577e:	d9e7      	bls.n	20005750 <mutex_try_enter_block_until+0x4c>
20005780:	4643      	mov	r3, r8
20005782:	e002      	b.n	2000578a <mutex_try_enter_block_until+0x86>
20005784:	23d0      	movs	r3, #208	@ 0xd0
20005786:	061b      	lsls	r3, r3, #24
20005788:	681b      	ldr	r3, [r3, #0]
2000578a:	7123      	strb	r3, [r4, #4]
2000578c:	f3bf 8f5f 	dmb	sy
20005790:	2300      	movs	r3, #0
20005792:	6013      	str	r3, [r2, #0]
20005794:	f381 8810 	msr	PRIMASK, r1
20005798:	2001      	movs	r0, #1
2000579a:	e7d6      	b.n	2000574a <mutex_try_enter_block_until+0x46>

2000579c <mutex_exit>:
2000579c:	6802      	ldr	r2, [r0, #0]
2000579e:	f3ef 8110 	mrs	r1, PRIMASK
200057a2:	b672      	cpsid	i
200057a4:	6813      	ldr	r3, [r2, #0]
200057a6:	2b00      	cmp	r3, #0
200057a8:	d0fc      	beq.n	200057a4 <mutex_exit+0x8>
200057aa:	f3bf 8f5f 	dmb	sy
200057ae:	23ff      	movs	r3, #255	@ 0xff
200057b0:	7103      	strb	r3, [r0, #4]
200057b2:	6803      	ldr	r3, [r0, #0]
200057b4:	f3bf 8f5f 	dmb	sy
200057b8:	2200      	movs	r2, #0
200057ba:	601a      	str	r2, [r3, #0]
200057bc:	f381 8810 	msr	PRIMASK, r1
200057c0:	bf40      	sev
200057c2:	4770      	bx	lr

200057c4 <flash_init_boot2_copyout>:
200057c4:	4b08      	ldr	r3, [pc, #32]	@ (200057e8 <flash_init_boot2_copyout+0x24>)
200057c6:	469c      	mov	ip, r3
200057c8:	781b      	ldrb	r3, [r3, #0]
200057ca:	2b00      	cmp	r3, #0
200057cc:	d10b      	bne.n	200057e6 <flash_init_boot2_copyout+0x22>
200057ce:	2380      	movs	r3, #128	@ 0x80
200057d0:	4806      	ldr	r0, [pc, #24]	@ (200057ec <flash_init_boot2_copyout+0x28>)
200057d2:	4907      	ldr	r1, [pc, #28]	@ (200057f0 <flash_init_boot2_copyout+0x2c>)
200057d4:	055b      	lsls	r3, r3, #21
200057d6:	681a      	ldr	r2, [r3, #0]
200057d8:	50c2      	str	r2, [r0, r3]
200057da:	3304      	adds	r3, #4
200057dc:	428b      	cmp	r3, r1
200057de:	d1fa      	bne.n	200057d6 <flash_init_boot2_copyout+0x12>
200057e0:	2301      	movs	r3, #1
200057e2:	4662      	mov	r2, ip
200057e4:	7013      	strb	r3, [r2, #0]
200057e6:	4770      	bx	lr
200057e8:	20007192 	.word	0x20007192
200057ec:	10007020 	.word	0x10007020
200057f0:	10000100 	.word	0x10000100

200057f4 <flash_enable_xip_via_boot2>:
200057f4:	b510      	push	{r4, lr}
200057f6:	4b01      	ldr	r3, [pc, #4]	@ (200057fc <flash_enable_xip_via_boot2+0x8>)
200057f8:	4798      	blx	r3
200057fa:	bd10      	pop	{r4, pc}
200057fc:	20007021 	.word	0x20007021

20005800 <flash_save_hardware_state>:
20005800:	4b06      	ldr	r3, [pc, #24]	@ (2000581c <flash_save_hardware_state+0x1c>)
20005802:	685a      	ldr	r2, [r3, #4]
20005804:	6002      	str	r2, [r0, #0]
20005806:	689a      	ldr	r2, [r3, #8]
20005808:	6042      	str	r2, [r0, #4]
2000580a:	68da      	ldr	r2, [r3, #12]
2000580c:	6082      	str	r2, [r0, #8]
2000580e:	691a      	ldr	r2, [r3, #16]
20005810:	60c2      	str	r2, [r0, #12]
20005812:	695a      	ldr	r2, [r3, #20]
20005814:	6102      	str	r2, [r0, #16]
20005816:	699b      	ldr	r3, [r3, #24]
20005818:	6143      	str	r3, [r0, #20]
2000581a:	4770      	bx	lr
2000581c:	40020000 	.word	0x40020000

20005820 <flash_restore_hardware_state>:
20005820:	6802      	ldr	r2, [r0, #0]
20005822:	4b06      	ldr	r3, [pc, #24]	@ (2000583c <flash_restore_hardware_state+0x1c>)
20005824:	605a      	str	r2, [r3, #4]
20005826:	6842      	ldr	r2, [r0, #4]
20005828:	609a      	str	r2, [r3, #8]
2000582a:	6882      	ldr	r2, [r0, #8]
2000582c:	60da      	str	r2, [r3, #12]
2000582e:	68c2      	ldr	r2, [r0, #12]
20005830:	611a      	str	r2, [r3, #16]
20005832:	6902      	ldr	r2, [r0, #16]
20005834:	615a      	str	r2, [r3, #20]
20005836:	6942      	ldr	r2, [r0, #20]
20005838:	619a      	str	r2, [r3, #24]
2000583a:	4770      	bx	lr
2000583c:	40020000 	.word	0x40020000

20005840 <flash_cs_force.constprop.0>:
20005840:	4b03      	ldr	r3, [pc, #12]	@ (20005850 <flash_cs_force.constprop.0+0x10>)
20005842:	681a      	ldr	r2, [r3, #0]
20005844:	23c0      	movs	r3, #192	@ 0xc0
20005846:	009b      	lsls	r3, r3, #2
20005848:	4393      	bics	r3, r2
2000584a:	4a02      	ldr	r2, [pc, #8]	@ (20005854 <flash_cs_force.constprop.0+0x14>)
2000584c:	6013      	str	r3, [r2, #0]
2000584e:	4770      	bx	lr
20005850:	4001800c 	.word	0x4001800c
20005854:	4001900c 	.word	0x4001900c

20005858 <flash_cs_force.constprop.1>:
20005858:	4b05      	ldr	r3, [pc, #20]	@ (20005870 <flash_cs_force.constprop.1+0x18>)
2000585a:	681a      	ldr	r2, [r3, #0]
2000585c:	2380      	movs	r3, #128	@ 0x80
2000585e:	009b      	lsls	r3, r3, #2
20005860:	4053      	eors	r3, r2
20005862:	22c0      	movs	r2, #192	@ 0xc0
20005864:	0092      	lsls	r2, r2, #2
20005866:	4013      	ands	r3, r2
20005868:	4a02      	ldr	r2, [pc, #8]	@ (20005874 <flash_cs_force.constprop.1+0x1c>)
2000586a:	6013      	str	r3, [r2, #0]
2000586c:	4770      	bx	lr
2000586e:	46c0      	nop			@ (mov r8, r8)
20005870:	4001800c 	.word	0x4001800c
20005874:	4001900c 	.word	0x4001900c

20005878 <flash_range_erase>:
20005878:	b5f0      	push	{r4, r5, r6, r7, lr}
2000587a:	464f      	mov	r7, r9
2000587c:	4646      	mov	r6, r8
2000587e:	46d6      	mov	lr, sl
20005880:	2380      	movs	r3, #128	@ 0x80
20005882:	b5c0      	push	{r6, r7, lr}
20005884:	1842      	adds	r2, r0, r1
20005886:	0006      	movs	r6, r0
20005888:	000f      	movs	r7, r1
2000588a:	b086      	sub	sp, #24
2000588c:	039b      	lsls	r3, r3, #14
2000588e:	429a      	cmp	r2, r3
20005890:	d82e      	bhi.n	200058f0 <flash_range_erase+0x78>
20005892:	2500      	movs	r5, #0
20005894:	2400      	movs	r4, #0
20005896:	8aa8      	ldrh	r0, [r5, #20]
20005898:	8b23      	ldrh	r3, [r4, #24]
2000589a:	4917      	ldr	r1, [pc, #92]	@ (200058f8 <flash_range_erase+0x80>)
2000589c:	4798      	blx	r3
2000589e:	8b23      	ldrh	r3, [r4, #24]
200058a0:	4682      	mov	sl, r0
200058a2:	4916      	ldr	r1, [pc, #88]	@ (200058fc <flash_range_erase+0x84>)
200058a4:	8aa8      	ldrh	r0, [r5, #20]
200058a6:	4798      	blx	r3
200058a8:	8b23      	ldrh	r3, [r4, #24]
200058aa:	4681      	mov	r9, r0
200058ac:	4914      	ldr	r1, [pc, #80]	@ (20005900 <flash_range_erase+0x88>)
200058ae:	8aa8      	ldrh	r0, [r5, #20]
200058b0:	4798      	blx	r3
200058b2:	8b23      	ldrh	r3, [r4, #24]
200058b4:	4913      	ldr	r1, [pc, #76]	@ (20005904 <flash_range_erase+0x8c>)
200058b6:	4680      	mov	r8, r0
200058b8:	8aa8      	ldrh	r0, [r5, #20]
200058ba:	4798      	blx	r3
200058bc:	0004      	movs	r4, r0
200058be:	f7ff ff81 	bl	200057c4 <flash_init_boot2_copyout>
200058c2:	4668      	mov	r0, sp
200058c4:	f7ff ff9c 	bl	20005800 <flash_save_hardware_state>
200058c8:	47d0      	blx	sl
200058ca:	47c8      	blx	r9
200058cc:	2280      	movs	r2, #128	@ 0x80
200058ce:	23d8      	movs	r3, #216	@ 0xd8
200058d0:	0039      	movs	r1, r7
200058d2:	0030      	movs	r0, r6
200058d4:	0252      	lsls	r2, r2, #9
200058d6:	47c0      	blx	r8
200058d8:	47a0      	blx	r4
200058da:	f7ff ff8b 	bl	200057f4 <flash_enable_xip_via_boot2>
200058de:	4668      	mov	r0, sp
200058e0:	f7ff ff9e 	bl	20005820 <flash_restore_hardware_state>
200058e4:	b006      	add	sp, #24
200058e6:	bce0      	pop	{r5, r6, r7}
200058e8:	46ba      	mov	sl, r7
200058ea:	46b1      	mov	r9, r6
200058ec:	46a8      	mov	r8, r5
200058ee:	bdf0      	pop	{r4, r5, r6, r7, pc}
200058f0:	f7fe fb62 	bl	20003fb8 <hard_assertion_failure>
200058f4:	e7cd      	b.n	20005892 <flash_range_erase+0x1a>
200058f6:	46c0      	nop			@ (mov r8, r8)
200058f8:	00004649 	.word	0x00004649
200058fc:	00005845 	.word	0x00005845
20005900:	00004552 	.word	0x00004552
20005904:	00004346 	.word	0x00004346

20005908 <flash_range_program>:
20005908:	b5f0      	push	{r4, r5, r6, r7, lr}
2000590a:	46de      	mov	lr, fp
2000590c:	4657      	mov	r7, sl
2000590e:	464e      	mov	r6, r9
20005910:	4645      	mov	r5, r8
20005912:	2380      	movs	r3, #128	@ 0x80
20005914:	b5e0      	push	{r5, r6, r7, lr}
20005916:	0017      	movs	r7, r2
20005918:	1882      	adds	r2, r0, r2
2000591a:	0006      	movs	r6, r0
2000591c:	468b      	mov	fp, r1
2000591e:	b087      	sub	sp, #28
20005920:	039b      	lsls	r3, r3, #14
20005922:	429a      	cmp	r2, r3
20005924:	d82d      	bhi.n	20005982 <flash_range_program+0x7a>
20005926:	2500      	movs	r5, #0
20005928:	2400      	movs	r4, #0
2000592a:	8aa8      	ldrh	r0, [r5, #20]
2000592c:	8b23      	ldrh	r3, [r4, #24]
2000592e:	4916      	ldr	r1, [pc, #88]	@ (20005988 <flash_range_program+0x80>)
20005930:	4798      	blx	r3
20005932:	8b23      	ldrh	r3, [r4, #24]
20005934:	4682      	mov	sl, r0
20005936:	4915      	ldr	r1, [pc, #84]	@ (2000598c <flash_range_program+0x84>)
20005938:	8aa8      	ldrh	r0, [r5, #20]
2000593a:	4798      	blx	r3
2000593c:	8b23      	ldrh	r3, [r4, #24]
2000593e:	4681      	mov	r9, r0
20005940:	4913      	ldr	r1, [pc, #76]	@ (20005990 <flash_range_program+0x88>)
20005942:	8aa8      	ldrh	r0, [r5, #20]
20005944:	4798      	blx	r3
20005946:	8b23      	ldrh	r3, [r4, #24]
20005948:	4912      	ldr	r1, [pc, #72]	@ (20005994 <flash_range_program+0x8c>)
2000594a:	4680      	mov	r8, r0
2000594c:	8aa8      	ldrh	r0, [r5, #20]
2000594e:	4798      	blx	r3
20005950:	0004      	movs	r4, r0
20005952:	f7ff ff37 	bl	200057c4 <flash_init_boot2_copyout>
20005956:	4668      	mov	r0, sp
20005958:	f7ff ff52 	bl	20005800 <flash_save_hardware_state>
2000595c:	47d0      	blx	sl
2000595e:	47c8      	blx	r9
20005960:	003a      	movs	r2, r7
20005962:	4659      	mov	r1, fp
20005964:	0030      	movs	r0, r6
20005966:	47c0      	blx	r8
20005968:	47a0      	blx	r4
2000596a:	f7ff ff43 	bl	200057f4 <flash_enable_xip_via_boot2>
2000596e:	4668      	mov	r0, sp
20005970:	f7ff ff56 	bl	20005820 <flash_restore_hardware_state>
20005974:	b007      	add	sp, #28
20005976:	bcf0      	pop	{r4, r5, r6, r7}
20005978:	46bb      	mov	fp, r7
2000597a:	46b2      	mov	sl, r6
2000597c:	46a9      	mov	r9, r5
2000597e:	46a0      	mov	r8, r4
20005980:	bdf0      	pop	{r4, r5, r6, r7, pc}
20005982:	f7fe fb19 	bl	20003fb8 <hard_assertion_failure>
20005986:	e7ce      	b.n	20005926 <flash_range_program+0x1e>
20005988:	00004649 	.word	0x00004649
2000598c:	00005845 	.word	0x00005845
20005990:	00005052 	.word	0x00005052
20005994:	00004346 	.word	0x00004346

20005998 <flash_do_cmd>:
20005998:	b5f0      	push	{r4, r5, r6, r7, lr}
2000599a:	46d6      	mov	lr, sl
2000599c:	464f      	mov	r7, r9
2000599e:	4646      	mov	r6, r8
200059a0:	2300      	movs	r3, #0
200059a2:	b5c0      	push	{r6, r7, lr}
200059a4:	2718      	movs	r7, #24
200059a6:	b086      	sub	sp, #24
200059a8:	001e      	movs	r6, r3
200059aa:	4681      	mov	r9, r0
200059ac:	000d      	movs	r5, r1
200059ae:	8a98      	ldrh	r0, [r3, #20]
200059b0:	493f      	ldr	r1, [pc, #252]	@ (20005ab0 <flash_do_cmd+0x118>)
200059b2:	883b      	ldrh	r3, [r7, #0]
200059b4:	0014      	movs	r4, r2
200059b6:	4798      	blx	r3
200059b8:	883b      	ldrh	r3, [r7, #0]
200059ba:	4680      	mov	r8, r0
200059bc:	493d      	ldr	r1, [pc, #244]	@ (20005ab4 <flash_do_cmd+0x11c>)
200059be:	8ab0      	ldrh	r0, [r6, #20]
200059c0:	4798      	blx	r3
200059c2:	2300      	movs	r3, #0
200059c4:	493c      	ldr	r1, [pc, #240]	@ (20005ab8 <flash_do_cmd+0x120>)
200059c6:	0006      	movs	r6, r0
200059c8:	8a98      	ldrh	r0, [r3, #20]
200059ca:	883b      	ldrh	r3, [r7, #0]
200059cc:	4798      	blx	r3
200059ce:	4682      	mov	sl, r0
200059d0:	f7ff fef8 	bl	200057c4 <flash_init_boot2_copyout>
200059d4:	4668      	mov	r0, sp
200059d6:	f7ff ff13 	bl	20005800 <flash_save_hardware_state>
200059da:	47c0      	blx	r8
200059dc:	47b0      	blx	r6
200059de:	f7ff ff3b 	bl	20005858 <flash_cs_force.constprop.1>
200059e2:	1e21      	subs	r1, r4, #0
200059e4:	d01c      	beq.n	20005a20 <flash_do_cmd+0x88>
200059e6:	2308      	movs	r3, #8
200059e8:	20c0      	movs	r0, #192	@ 0xc0
200059ea:	469c      	mov	ip, r3
200059ec:	0540      	lsls	r0, r0, #21
200059ee:	3f16      	subs	r7, #22
200059f0:	4662      	mov	r2, ip
200059f2:	6a83      	ldr	r3, [r0, #40]	@ 0x28
200059f4:	401a      	ands	r2, r3
200059f6:	421f      	tst	r7, r3
200059f8:	d034      	beq.n	20005a64 <flash_do_cmd+0xcc>
200059fa:	1a63      	subs	r3, r4, r1
200059fc:	2900      	cmp	r1, #0
200059fe:	d126      	bne.n	20005a4e <flash_do_cmd+0xb6>
20005a00:	2a00      	cmp	r2, #0
20005a02:	d10b      	bne.n	20005a1c <flash_do_cmd+0x84>
20005a04:	2c00      	cmp	r4, #0
20005a06:	d00b      	beq.n	20005a20 <flash_do_cmd+0x88>
20005a08:	23c0      	movs	r3, #192	@ 0xc0
20005a0a:	2208      	movs	r2, #8
20005a0c:	2602      	movs	r6, #2
20005a0e:	055b      	lsls	r3, r3, #21
20005a10:	6a9b      	ldr	r3, [r3, #40]	@ 0x28
20005a12:	401a      	ands	r2, r3
20005a14:	421e      	tst	r6, r3
20005a16:	d03d      	beq.n	20005a94 <flash_do_cmd+0xfc>
20005a18:	2a00      	cmp	r2, #0
20005a1a:	d0f5      	beq.n	20005a08 <flash_do_cmd+0x70>
20005a1c:	2c00      	cmp	r4, #0
20005a1e:	d12b      	bne.n	20005a78 <flash_do_cmd+0xe0>
20005a20:	f7ff ff0e 	bl	20005840 <flash_cs_force.constprop.0>
20005a24:	47d0      	blx	sl
20005a26:	f7ff fee5 	bl	200057f4 <flash_enable_xip_via_boot2>
20005a2a:	4668      	mov	r0, sp
20005a2c:	f7ff fef8 	bl	20005820 <flash_restore_hardware_state>
20005a30:	b006      	add	sp, #24
20005a32:	bce0      	pop	{r5, r6, r7}
20005a34:	46ba      	mov	sl, r7
20005a36:	46b1      	mov	r9, r6
20005a38:	46a8      	mov	r8, r5
20005a3a:	bdf0      	pop	{r4, r5, r6, r7, pc}
20005a3c:	2c00      	cmp	r4, #0
20005a3e:	d12b      	bne.n	20005a98 <flash_do_cmd+0x100>
20005a40:	22c0      	movs	r2, #192	@ 0xc0
20005a42:	0552      	lsls	r2, r2, #21
20005a44:	6a96      	ldr	r6, [r2, #40]	@ 0x28
20005a46:	2208      	movs	r2, #8
20005a48:	4032      	ands	r2, r6
20005a4a:	07b6      	lsls	r6, r6, #30
20005a4c:	d52b      	bpl.n	20005aa6 <flash_do_cmd+0x10e>
20005a4e:	2b0d      	cmp	r3, #13
20005a50:	d919      	bls.n	20005a86 <flash_do_cmd+0xee>
20005a52:	2a00      	cmp	r2, #0
20005a54:	d1f2      	bne.n	20005a3c <flash_do_cmd+0xa4>
20005a56:	22c0      	movs	r2, #192	@ 0xc0
20005a58:	0552      	lsls	r2, r2, #21
20005a5a:	6a96      	ldr	r6, [r2, #40]	@ 0x28
20005a5c:	2208      	movs	r2, #8
20005a5e:	4032      	ands	r2, r6
20005a60:	07b6      	lsls	r6, r6, #30
20005a62:	d4f4      	bmi.n	20005a4e <flash_do_cmd+0xb6>
20005a64:	2a00      	cmp	r2, #0
20005a66:	d104      	bne.n	20005a72 <flash_do_cmd+0xda>
20005a68:	000b      	movs	r3, r1
20005a6a:	4323      	orrs	r3, r4
20005a6c:	2b00      	cmp	r3, #0
20005a6e:	d1bf      	bne.n	200059f0 <flash_do_cmd+0x58>
20005a70:	e7d6      	b.n	20005a20 <flash_do_cmd+0x88>
20005a72:	000b      	movs	r3, r1
20005a74:	2c00      	cmp	r4, #0
20005a76:	d0f9      	beq.n	20005a6c <flash_do_cmd+0xd4>
20005a78:	6e03      	ldr	r3, [r0, #96]	@ 0x60
20005a7a:	3c01      	subs	r4, #1
20005a7c:	702b      	strb	r3, [r5, #0]
20005a7e:	0023      	movs	r3, r4
20005a80:	3501      	adds	r5, #1
20005a82:	430b      	orrs	r3, r1
20005a84:	e7f2      	b.n	20005a6c <flash_do_cmd+0xd4>
20005a86:	464b      	mov	r3, r9
20005a88:	781b      	ldrb	r3, [r3, #0]
20005a8a:	3901      	subs	r1, #1
20005a8c:	6603      	str	r3, [r0, #96]	@ 0x60
20005a8e:	2301      	movs	r3, #1
20005a90:	4499      	add	r9, r3
20005a92:	e7e7      	b.n	20005a64 <flash_do_cmd+0xcc>
20005a94:	2100      	movs	r1, #0
20005a96:	e7e5      	b.n	20005a64 <flash_do_cmd+0xcc>
20005a98:	23c0      	movs	r3, #192	@ 0xc0
20005a9a:	055b      	lsls	r3, r3, #21
20005a9c:	6e1b      	ldr	r3, [r3, #96]	@ 0x60
20005a9e:	3c01      	subs	r4, #1
20005aa0:	702b      	strb	r3, [r5, #0]
20005aa2:	3501      	adds	r5, #1
20005aa4:	e7a4      	b.n	200059f0 <flash_do_cmd+0x58>
20005aa6:	000b      	movs	r3, r1
20005aa8:	42a2      	cmp	r2, r4
20005aaa:	d1df      	bne.n	20005a6c <flash_do_cmd+0xd4>
20005aac:	e7dc      	b.n	20005a68 <flash_do_cmd+0xd0>
20005aae:	46c0      	nop			@ (mov r8, r8)
20005ab0:	00004649 	.word	0x00004649
20005ab4:	00005845 	.word	0x00005845
20005ab8:	00004346 	.word	0x00004346
20005abc:	20001314 	.word	0x20001314
20005ac0:	2000131c 	.word	0x2000131c
20005ac4:	200010be 	.word	0x200010be
20005ac8:	200016c8 	.word	0x200016c8
20005acc:	2000165e 	.word	0x2000165e
20005ad0:	200015c2 	.word	0x200015c2
20005ad4:	200014ec 	.word	0x200014ec
20005ad8:	20001b72 	.word	0x20001b72
20005adc:	20001a70 	.word	0x20001a70
20005ae0:	20001a7c 	.word	0x20001a7c
20005ae4:	20001a88 	.word	0x20001a88
20005ae8:	20001988 	.word	0x20001988
20005aec:	20001a58 	.word	0x20001a58
20005af0:	20001a94 	.word	0x20001a94
20005af4:	20001aa0 	.word	0x20001aa0
20005af8:	20001a64 	.word	0x20001a64
20005afc:	20001358 	.word	0x20001358
20005b00:	2000133c 	.word	0x2000133c
20005b04:	20001246 	.word	0x20001246
20005b08:	200014a2 	.word	0x200014a2
20005b0c:	20001444 	.word	0x20001444
20005b10:	200011a4 	.word	0x200011a4
20005b14:	2000137e 	.word	0x2000137e
20005b18:	20001bee 	.word	0x20001bee
20005b1c:	20001adc 	.word	0x20001adc
20005b20:	20001af8 	.word	0x20001af8
20005b24:	20001ad4 	.word	0x20001ad4
20005b28:	20001aec 	.word	0x20001aec
20005b2c:	20001ae6 	.word	0x20001ae6
20005b30:	20001af0 	.word	0x20001af0
20005b34:	20001cce 	.word	0x20001cce
20005b38:	20001adc 	.word	0x20001adc
20005b3c:	20001ad2 	.word	0x20001ad2
20005b40:	20001ad4 	.word	0x20001ad4
20005b44:	20001b9a 	.word	0x20001b9a
20005b48:	20001ae6 	.word	0x20001ae6
20005b4c:	2000194e 	.word	0x2000194e
20005b50:	20001c80 	.word	0x20001c80
20005b54:	20001adc 	.word	0x20001adc
20005b58:	20001bea 	.word	0x20001bea
20005b5c:	20001ad4 	.word	0x20001ad4
20005b60:	20001b9a 	.word	0x20001b9a
20005b64:	20001ae6 	.word	0x20001ae6
20005b68:	20001be2 	.word	0x20001be2

20005b6c <_ZTV12ComputerCard>:
	...

20005b78 <_ZTV6C1ZZL3>:
	...
20005b80:	20001e3d                                =.. 

20005b84 <_ZZN6C1ZZL314pitchFrequencyElE16SemitoneRatioQ15>:
20005b84:	00008000 0000879c 00008fad 00009838     ............8...
20005b94:	0000a145 0000aadc 0000b505 0000bfc9     E...............
20005ba4:	0000cb30 0000d745 0000e412 0000f1a2     0...E...........
20005bb4:	00010000                                ....

20005bb8 <_ZN12ComputerCard4ledsE>:
20005bb8:	0d0c0b0a 00000f0e 00000fff 000000f0     ................
20005bc8:	00000a28 00002ee0 000004b0 00005dc0     (............]..
20005bd8:	00000000 00008ca0 00000000 00000001     ................
20005be8:	00000000 00000001 00000000 00000001     ................
20005bf8:	00000000 00000001 00000800 000000f0     ................
20005c08:	00000640 00001770 000002bc 00005dc0     @...p........]..
20005c18:	00000000 0000a410 00000000 00000001     ................
20005c28:	00000000 00000001 00000000 00000001     ................
20005c38:	00000000 00000001 00000fff 000012c0     ................
20005c48:	00000d48 00007530 00000000 00004650     H...0u......PF..
20005c58:	00000000 00000001 00000000 00000001     ................
20005c68:	00000000 00000001 00000000 00000001     ................
20005c78:	00000000 00000001 00000700 000012c0     ................
20005c88:	00000384 00007530 00000000 00004650     ....0u......PF..
20005c98:	00000000 00000001 00000000 00000001     ................
20005ca8:	00000000 00000001 00000000 00000001     ................
20005cb8:	00000000 00000001 00000fff 000001e0     ................
20005cc8:	00000f3c 00002ee0 00000ed8 00002ee0     <...............
20005cd8:	00000e10 00002ee0 00000c80 00004650     ............PF..
20005ce8:	00000a28 00004650 00000640 00005dc0     (...PF..@....]..
20005cf8:	00000000 00008ca0 00000bb8 000001e0     ................
20005d08:	00000320 00002ee0 00000e10 00002ee0      ...............
20005d18:	000004b0 00002ee0 00000a28 00004650     ........(...PF..
20005d28:	00000258 00004650 00000708 00005dc0     X...PF.......]..
20005d38:	00000000 00008ca0 00000fff 000001e0     ................
20005d48:	00000000 00002ee0 00000000 00000001     ................
20005d58:	00000000 00000001 00000000 00000001     ................
20005d68:	00000000 00000001 00000000 00000001     ................
20005d78:	00000000 00000001 00000400 000001e0     ................
20005d88:	00000000 00002ee0 00000000 00000001     ................
20005d98:	00000000 00000001 00000000 00000001     ................
20005da8:	00000000 00000001 00000000 00000001     ................
20005db8:	00000000 00000001 00000fff 000000b4     ................
20005dc8:	000002bc 000012c0 00000000 00000960     ............`...
20005dd8:	00000e10 000000b4 00000384 00001770     ............p...
20005de8:	0000015e 00001770 00000078 00001770     ^...p...x...p...
20005df8:	00000000 00002ee0 00000640 000000b4     ........@.......
20005e08:	000001f4 000012c0 00000000 00000960     ............`...
20005e18:	00000898 000000b4 000002bc 00001770     ............p...
20005e28:	0000012c 00001770 00000078 00001770     ,...p...x...p...
20005e38:	00000000 00002ee0 00000fff 00000078     ............x...
20005e48:	000004b0 00000e10 00000ce4 00000e10     ................
20005e58:	000006a4 000012c0 00000a28 000012c0     ........(.......
20005e68:	00000384 00001c20 00000640 00001c20     .... ...@... ...
20005e78:	00000000 00002ee0 000009c4 00000078     ............x...
20005e88:	00000320 00000e10 00000898 00000e10      ...............
20005e98:	000002bc 000012c0 00000640 000012c0     ........@.......
20005ea8:	000001f4 00001c20 000004b0 00001c20     .... ....... ...
20005eb8:	00000000 00002ee0 00000898 00005dc0     .............]..
20005ec8:	00000e10 00005dc0 00000ed8 0000bb80     .....]..........
20005ed8:	00000e10 0000bb80 00000d48 0000bb80     ........H.......
20005ee8:	00000bb8 0000bb80 00000708 0000bb80     ................
20005ef8:	00000000 00017700 00000190 00002ee0     .....w..........
20005f08:	00000384 00008ca0 000004b0 00008ca0     ................
20005f18:	00000384 0000bb80 000002bc 0000bb80     ................
20005f28:	000001f4 0000bb80 00000190 0000bb80     ................
20005f38:	0000012c 00017700 000000c8 00002ee0     ,....w..........
20005f48:	00000384 00004650 00000708 00004650     ....PF......PF..
20005f58:	00000bb8 00004650 00000fff 00002ee0     ....PF..........
20005f68:	00000a28 00000960 00000384 00000960     (...`.......`...
20005f78:	00000000 000012c0 000000c8 00002ee0     ................
20005f88:	000001f4 00004650 000003e8 00004650     ....PF......PF..
20005f98:	00000708 00004650 00000a28 00002ee0     ....PF..(.......
20005fa8:	00000514 00000960 000001f4 00000960     ....`.......`...
20005fb8:	00000000 000012c0 00000000 00000001     ................
20005fc8:	00000000 00000001 00000000 00000001     ................
20005fd8:	00000000 00000001 00000000 00000001     ................
20005fe8:	00000000 00000001 00000000 00000001     ................
20005ff8:	00000000 00000001 00000000 00000001     ................
20006008:	00000000 00000001 00000000 00000001     ................
20006018:	00000000 00000001 00000000 00000001     ................
20006028:	00000000 00000001 00000000 00000001     ................
20006038:	00000000 00000001                       ........

20006040 <sineLUT>:
20006040:	000d0000 00260019 003f0032 0058004b     ......&.2.?.K.X.
20006050:	00710064 008a007e 00a30097 00bc00b0     d.q.~...........
20006060:	00d500c9 00ee00e2 010700fb 01200113     .............. .
20006070:	0139012c 01520145 016a015e 01830177     ,.9.E.R.^.j.w...
20006080:	019c018f 01b401a8 01cd01c1 01e501d9     ................
20006090:	01fe01f1 0216020a 022e0222 0246023a     ........"...:.F.
200060a0:	025e0252 0276026a 028e0282 02a6029a     R.^.j.v.........
200060b0:	02bd02b2 02d502c9 02ec02e1 030402f8     ................
200060c0:	031b030f 03320327 0349033e 03600354     ....'.2.>.I.T.`.
200060d0:	0377036b 038d0382 03a40398 03ba03af     k.w.............
200060e0:	03d003c5 03e603db 03fc03f1 04120407     ................
200060f0:	0427041c 043d0432 04520447 0467045c     ..'.2.=.G.R.\.g.
20006100:	047c0471 04900486 04a5049b 04b904af     q.|.............
20006110:	04cd04c3 04e104d7 04f504eb 050904ff     ................
20006120:	051c0513 05300526 05430539 0555054c     ....&.0.9.C.L.U.
20006130:	0568055f 057a0571 058d0583 059f0596     _.h.q.z.........
20006140:	05b005a7 05c205b9 05d305cb 05e405dc     ................
20006150:	05f505ed 060605fd 0616060e 0626061e     ..............&.
20006160:	0636062e 0646063e 0655064e 0665065d     ..6.>.F.N.U.].e.
20006170:	0674066c 0682067b 0691068a 069f0698     l.t.{...........
20006180:	06ad06a6 06bb06b4 06c806c1 06d506cf     ................
20006190:	06e206dc 06ef06e9 06fb06f5 07070701     ................
200061a0:	0713070d 071f0719 072a0724 07350730     ........$.*.0.5.
200061b0:	0740073a 074a0745 0754074f 075e0759     :.@.E.J.O.T.Y.^.
200061c0:	07680763 0771076d 077a0776 0783077f     c.h.m.q.v.z.....
200061d0:	078c0787 07940790 079c0798 07a3079f     ................
200061e0:	07aa07a7 07b107ae 07b807b5 07bf07bb     ................
200061f0:	07c507c2 07ca07c8 07d007cd 07d507d3     ................
20006200:	07da07d8 07df07dc 07e307e1 07e707e5     ................
20006210:	07eb07e9 07ee07ec 07f107f0 07f407f3     ................
20006220:	07f607f5 07f807f7 07fa07f9 07fc07fb     ................
20006230:	07fd07fd 07fe07fe 07ff07fe 07ff07ff     ................
20006240:	07ff07ff 07ff07ff 07fe07fe 07fd07fe     ................
20006250:	07fc07fd 07fa07fb 07f807f9 07f607f7     ................
20006260:	07f407f5 07f107f3 07ee07f0 07eb07ec     ................
20006270:	07e707e9 07e307e5 07df07e1 07da07dc     ................
20006280:	07d507d8 07d007d3 07ca07cd 07c507c8     ................
20006290:	07bf07c2 07b807bb 07b107b5 07aa07ae     ................
200062a0:	07a307a7 079c079f 07940798 078c0790     ................
200062b0:	07830787 077a077f 07710776 0768076d     ......z.v.q.m.h.
200062c0:	075e0763 07540759 074a074f 07400745     c.^.Y.T.O.J.E.@.
200062d0:	0735073a 072a0730 071f0724 07130719     :.5.0.*.$.......
200062e0:	0707070d 06fb0701 06ef06f5 06e206e9     ................
200062f0:	06d506dc 06c806cf 06bb06c1 06ad06b4     ................
20006300:	069f06a6 06910698 0682068a 0674067b     ............{.t.
20006310:	0665066c 0655065d 0646064e 0636063e     l.e.].U.N.F.>.6.
20006320:	0626062e 0616061e 0606060e 05f505fd     ..&.............
20006330:	05e405ed 05d305dc 05c205cb 05b005b9     ................
20006340:	059f05a7 058d0596 057a0583 05680571     ..........z.q.h.
20006350:	0555055f 0543054c 05300539 051c0526     _.U.L.C.9.0.&...
20006360:	05090513 04f504ff 04e104eb 04cd04d7     ................
20006370:	04b904c3 04a504af 0490049b 047c0486     ..............|.
20006380:	04670471 0452045c 043d0447 04270432     q.g.\.R.G.=.2.'.
20006390:	0412041c 03fc0407 03e603f1 03d003db     ................
200063a0:	03ba03c5 03a403af 038d0398 03770382     ..............w.
200063b0:	0360036b 03490354 0332033e 031b0327     k.`.T.I.>.2.'...
200063c0:	0304030f 02ec02f8 02d502e1 02bd02c9     ................
200063d0:	02a602b2 028e029a 02760282 025e026a     ..........v.j.^.
200063e0:	02460252 022e023a 02160222 01fe020a     R.F.:...".......
200063f0:	01e501f1 01cd01d9 01b401c1 019c01a8     ................
20006400:	0183018f 016a0177 0152015e 01390145     ....w.j.^.R.E.9.
20006410:	0120012c 01070113 00ee00fb 00d500e2     ,. .............
20006420:	00bc00c9 00a300b0 008a0097 0071007e     ............~.q.
20006430:	00580064 003f004b 00260032 000d0019     d.X.K.?.2.&.....
20006440:	fff30000 ffdaffe7 ffc1ffce ffa8ffb5     ................
20006450:	ff8fff9c ff76ff82 ff5dff69 ff44ff50     ......v.i.].P.D.
20006460:	ff2bff37 ff12ff1e fef9ff05 fee0feed     7.+.............
20006470:	fec7fed4 feaefebb fe96fea2 fe7dfe89     ..............}.
20006480:	fe64fe71 fe4cfe58 fe33fe3f fe1bfe27     q.d.X.L.?.3.'...
20006490:	fe02fe0f fdeafdf6 fdd2fdde fdbafdc6     ................
200064a0:	fda2fdae fd8afd96 fd72fd7e fd5afd66     ........~.r.f.Z.
200064b0:	fd43fd4e fd2bfd37 fd14fd1f fcfcfd08     N.C.7.+.........
200064c0:	fce5fcf1 fccefcd9 fcb7fcc2 fca0fcac     ................
200064d0:	fc89fc95 fc73fc7e fc5cfc68 fc46fc51     ....~.s.h.\.Q.F.
200064e0:	fc30fc3b fc1afc25 fc04fc0f fbeefbf9     ;.0.%...........
200064f0:	fbd9fbe4 fbc3fbce fbaefbb9 fb99fba4     ................
20006500:	fb84fb8f fb70fb7a fb5bfb65 fb47fb51     ....z.p.e.[.Q.G.
20006510:	fb33fb3d fb1ffb29 fb0bfb15 faf7fb01     =.3.)...........
20006520:	fae4faed fad0fada fabdfac7 faabfab4     ................
20006530:	fa98faa1 fa86fa8f fa73fa7d fa61fa6a     ........}.s.j.a.
20006540:	fa50fa59 fa3efa47 fa2dfa35 fa1cfa24     Y.P.G.>.5.-.$...
20006550:	fa0bfa13 f9fafa03 f9eaf9f2 f9daf9e2     ................
20006560:	f9caf9d2 f9baf9c2 f9abf9b2 f99bf9a3     ................
20006570:	f98cf994 f97ef985 f96ff976 f961f968     ......~.v.o.h.a.
20006580:	f953f95a f945f94c f938f93f f92bf931     Z.S.L.E.?.8.1.+.
20006590:	f91ef924 f911f917 f905f90b f8f9f8ff     $...............
200065a0:	f8edf8f3 f8e1f8e7 f8d6f8dc f8cbf8d0     ................
200065b0:	f8c0f8c6 f8b6f8bb f8acf8b1 f8a2f8a7     ................
200065c0:	f898f89d f88ff893 f886f88a f87df881     ..............}.
200065d0:	f874f879 f86cf870 f864f868 f85df861     y.t.p.l.h.d.a.].
200065e0:	f856f859 f84ff852 f848f84b f841f845     Y.V.R.O.K.H.E.A.
200065f0:	f83bf83e f836f838 f830f833 f82bf82d     >.;.8.6.3.0.-.+.
20006600:	f826f828 f821f824 f81df81f f819f81b     (.&.$.!.........
20006610:	f815f817 f812f814 f80ff810 f80cf80d     ................
20006620:	f80af80b f808f809 f806f807 f804f805     ................
20006630:	f803f803 f802f802 f801f802 f801f801     ................
20006640:	f801f801 f801f801 f802f802 f803f802     ................
20006650:	f804f803 f806f805 f808f807 f80af809     ................
20006660:	f80cf80b f80ff80d f812f810 f815f814     ................
20006670:	f819f817 f81df81b f821f81f f826f824     ..........!.$.&.
20006680:	f82bf828 f830f82d f836f833 f83bf838     (.+.-.0.3.6.8.;.
20006690:	f841f83e f848f845 f84ff84b f856f852     >.A.E.H.K.O.R.V.
200066a0:	f85df859 f864f861 f86cf868 f874f870     Y.].a.d.h.l.p.t.
200066b0:	f87df879 f886f881 f88ff88a f898f893     y.}.............
200066c0:	f8a2f89d f8acf8a7 f8b6f8b1 f8c0f8bb     ................
200066d0:	f8cbf8c6 f8d6f8d0 f8e1f8dc f8edf8e7     ................
200066e0:	f8f9f8f3 f905f8ff f911f90b f91ef917     ................
200066f0:	f92bf924 f938f931 f945f93f f953f94c     $.+.1.8.?.E.L.S.
20006700:	f961f95a f96ff968 f97ef976 f98cf985     Z.a.h.o.v.~.....
20006710:	f99bf994 f9abf9a3 f9baf9b2 f9caf9c2     ................
20006720:	f9daf9d2 f9eaf9e2 f9faf9f2 fa0bfa03     ................
20006730:	fa1cfa13 fa2dfa24 fa3efa35 fa50fa47     ....$.-.5.>.G.P.
20006740:	fa61fa59 fa73fa6a fa86fa7d fa98fa8f     Y.a.j.s.}.......
20006750:	faabfaa1 fabdfab4 fad0fac7 fae4fada     ................
20006760:	faf7faed fb0bfb01 fb1ffb15 fb33fb29     ............).3.
20006770:	fb47fb3d fb5bfb51 fb70fb65 fb84fb7a     =.G.Q.[.e.p.z...
20006780:	fb99fb8f fbaefba4 fbc3fbb9 fbd9fbce     ................
20006790:	fbeefbe4 fc04fbf9 fc1afc0f fc30fc25     ............%.0.
200067a0:	fc46fc3b fc5cfc51 fc73fc68 fc89fc7e     ;.F.Q.\.h.s.~...
200067b0:	fca0fc95 fcb7fcac fccefcc2 fce5fcd9     ................
200067c0:	fcfcfcf1 fd14fd08 fd2bfd1f fd43fd37     ..........+.7.C.
200067d0:	fd5afd4e fd72fd66 fd8afd7e fda2fd96     N.Z.f.r.~.......
200067e0:	fdbafdae fdd2fdc6 fdeafdde fe02fdf6     ................
200067f0:	fe1bfe0f fe33fe27 fe4cfe3f fe64fe58     ....'.3.?.L.X.d.
20006800:	fe7dfe71 fe96fe89 feaefea2 fec7febb     q.}.............
20006810:	fee0fed4 fef9feed ff12ff05 ff2bff1e     ..............+.
20006820:	ff44ff37 ff5dff50 ff76ff69 ff8fff82     7.D.P.].i.v.....
20006830:	ffa8ff9c ffc1ffb5 ffdaffce fff3ffe7     ................
20006840:	2a2a2a0a 4e415020 2a204349 000a2a2a     .*** PANIC ***..
20006850:	0000000a 64726148 65726177 616c6120     ....Hardware ala
20006860:	25206d72 6c612064 64616572 6c632079     rm %d already cl
20006870:	656d6961 00000064 64726148 73736120     aimed...Hard ass
20006880:	00747265 656c6552 00657361 746f6f62     ert.Release.boot
20006890:	32775f32 38307135 00000030 2e322e32     2_w25q080...2.2.
200068a0:	00000030 6f636970 00000000 5a5a3143     0...pico....C1ZZ
200068b0:	765f334c 735f3430 6c626174 78655f65     L3_v04_stable_ex
200068c0:	69726570 746e656d 00006c61 206e754a     perimental..Jun 
200068d0:	32203231 00363230 44206f4e 6320414d     12 2026.No DMA c
200068e0:	6e6e6168 20736c65 20657261 69617661     hannels are avai
200068f0:	6c62616c 00000065                       lable...

200068f8 <__bi_84>:
200068f8:	50520006 4275f0d3 20006884              ..RP..uB.h. 

20006904 <__bi_78>:
20006904:	50520006 7f8882e1 2000688c              ..RP.....h. 

20006910 <__bi_54>:
20006910:	50520006 5360b3ab 2000689c              ..RP..`S.h. 

2000691c <__bi_48>:
2000691c:	50520006 b63cffbb 200068a4              ..RP..<..h. 

20006928 <__bi_42>:
20006928:	50520006 02031c86 200068ac              ..RP.....h. 

20006934 <__bi_34>:
20006934:	50520006 9da22254 200068cc              ..RPT"...h. 

20006940 <__bi_26>:
20006940:	50520005 68f465de 10006c30              ..RP.e.h0l..

2000694c <crlf_str.0>:
2000694c:	00000a0d                                ....

20006950 <_ZZN12ComputerCard10BufferFullEvE14startupCounter>:
20006950:	00000008                                ....

20006954 <_ZZN12ComputerCard15next_norm_probeEvE8lcg_seed>:
20006954:	00000001                                ....

20006958 <_ZN12ComputerCard7cvValueE>:
20006958:	00040000 00040000                       ........

20006960 <striped_spin_lock_num>:
20006960:	00000010                                ....

20006964 <irq_handler_chain_slots>:
20006964:	00000000 	.word	0x00000000
20006968:	00010000 	.word	0x00010000
	...
20006974:	00020000 	.word	0x00020000
	...
20006980:	00030000 	.word	0x00030000
	...
2000698c:	00ff0000 	.word	0x00ff0000
20006990:	00000000 	.word	0x00000000

20006994 <irq_handler_chain_first_slot>:
20006994:	b501      	push	{r0, lr}
20006996:	6848      	ldr	r0, [r1, #4]
20006998:	3101      	adds	r1, #1
2000699a:	468e      	mov	lr, r1
2000699c:	4700      	bx	r0

2000699e <irq_handler_chain_remove_tail>:
2000699e:	4670      	mov	r0, lr
200069a0:	3809      	subs	r0, #9
200069a2:	4901      	ldr	r1, [pc, #4]	@ (200069a8 <irq_handler_chain_remove_tail+0xa>)
200069a4:	4788      	blx	r1
200069a6:	bd01      	pop	{r0, pc}
200069a8:	200033d9 	.word	0x200033d9

200069ac <default_alarm_pool>:
	...
200069c0:	20006c70 00000000 00000000 00000000     pl. ............

200069d0 <aeabi_bits_funcs>:
200069d0:	00003350 	.word	0x00003350
200069d4:	0000334c 	.word	0x0000334c
200069d8:	00003354 	.word	0x00003354
200069dc:	00003352 	.word	0x00003352

200069e0 <aeabi_bits_funcs_end>:
200069e0:	0000534d 	.word	0x0000534d
200069e4:	0000434d 	.word	0x0000434d
200069e8:	00003453 	.word	0x00003453
200069ec:	00003443 	.word	0x00003443

200069f0 <i2c0_inst>:
200069f0:	40044000 00000000                       .@.@....

200069f8 <print_mutex>:
	...

20006a00 <__pre_init_runtime_init_early_resets>:
20006a00:	20003fed                                .?. 

20006a04 <__pre_init_runtime_init_usb_power_down>:
20006a04:	20004019 20004201 200045b9 200042ad     .@. .B. .E. .B. 
20006a14:	2000450d                                .E. 

20006a18 <__pre_init_runtime_init_clocks>:
20006a18:	20004129                                )A. 

20006a1c <__pre_init_runtime_init_post_clock_resets>:
20006a1c:	20004035                                5@. 

20006a20 <__pre_init_runtime_init_rp2040_gpio_ie_disable>:
20006a20:	20004055                                U@. 

20006a24 <__pre_init_runtime_init_spin_locks_reset>:
20006a24:	20004069                                i@. 

20006a28 <__pre_init_runtime_init_mutex>:
20006a28:	2000349d                                .4. 

20006a2c <__pre_init_runtime_init_install_ram_vector_table>:
20006a2c:	20004071                                q@. 

20006a30 <__pre_init_runtime_init_default_alarm_pool>:
20006a30:	20003811                                .8. 

20006a34 <__pre_init_first_per_core_initializer>:
20006a34:	20003fb5                                .?. 

20006a38 <__pre_init_runtime_init_per_core_irq_priorities>:
20006a38:	20003129                                )1. 

20006a3c <__init_array_start>:
20006a3c:	200048bd 	.word	0x200048bd

20006a40 <__frame_dummy_init_array_entry>:
20006a40:	200000ed 20002d5d                       ... ]-. 
