
/Users/adrianvos/Documents/GitHub/Workshop_Computer/releases/74_Wild_Pebble/MIDI_enabled/build/WildPebbleMIDI.elf:     file format elf32-littlearm

Sections:
Idx Name          Size      VMA       LMA       File off  Algn
  0 .boot2        00000100  10000000  10000000  00001000  2**0
                  CONTENTS, ALLOC, LOAD, READONLY, CODE
  1 .flashtext    00000190  10000100  10000100  00001100  2**2
                  CONTENTS, ALLOC, LOAD, READONLY, CODE
  2 .rodata       00000000  10000290  10000290  00009f80  2**0
                  CONTENTS, ALLOC, LOAD, DATA
  3 .binary_info  00000020  10000290  10000290  00001290  2**2
                  CONTENTS, ALLOC, LOAD, READONLY, DATA
  4 .ram_vector_table 000000c0  20000000  20000000  0000a000  2**2
                  ALLOC
  5 .uninitialized_data 00000000  200000c0  200000c0  00009f80  2**0
                  CONTENTS
  6 .text         00006384  200000c0  100002b0  000020c0  2**2
                  CONTENTS, ALLOC, LOAD, READONLY, CODE
  7 .data         00001b30  20006450  10006634  00008450  2**4
                  CONTENTS, ALLOC, LOAD, CODE
  8 .tdata        00000000  20007f80  20007f80  00009f80  2**0
                  CONTENTS, ALLOC, LOAD, DATA, THREAD_LOCAL
  9 .tbss         00000000  20007f80  20007f80  00000000  2**0
                  ALLOC, THREAD_LOCAL
 10 .bss          00000f7c  20007f80  10008164  00009f80  2**3
                  ALLOC
 11 .heap         00000800  20008efc  10008164  0000aefc  2**2
                  ALLOC, READONLY
 12 .scratch_x    00000000  20040000  20040000  00009f80  2**0
                  CONTENTS
 13 .scratch_y    00000000  20041000  20041000  00009f80  2**0
                  CONTENTS
 14 .stack1_dummy 00000800  20040000  20040000  0000a000  2**2
                  ALLOC
 15 .stack_dummy  00000800  20041000  20041000  0000a000  2**5
                  ALLOC, READONLY
 16 .ARM.attributes 00000028  00000000  00000000  00009f80  2**0
                  CONTENTS, READONLY
 17 .comment      00000045  00000000  00000000  00009fa8  2**0
                  CONTENTS, READONLY
 18 .debug_info   0003beea  00000000  00000000  00009fed  2**0
                  CONTENTS, READONLY, DEBUGGING, OCTETS
 19 .debug_abbrev 00009ab8  00000000  00000000  00045ed7  2**0
                  CONTENTS, READONLY, DEBUGGING, OCTETS
 20 .debug_loclists 000210cc  00000000  00000000  0004f98f  2**0
                  CONTENTS, READONLY, DEBUGGING, OCTETS
 21 .debug_aranges 00001848  00000000  00000000  00070a60  2**3
                  CONTENTS, READONLY, DEBUGGING, OCTETS
 22 .debug_rnglists 000057f0  00000000  00000000  000722a8  2**0
                  CONTENTS, READONLY, DEBUGGING, OCTETS
 23 .debug_line   0002bf4f  00000000  00000000  00077a98  2**0
                  CONTENTS, READONLY, DEBUGGING, OCTETS
 24 .debug_str    0000aa1c  00000000  00000000  000a39e7  2**0
                  CONTENTS, READONLY, DEBUGGING, OCTETS
 25 .debug_frame  000034d4  00000000  00000000  000ae404  2**2
                  CONTENTS, READONLY, DEBUGGING, OCTETS
 26 .debug_line_str 0000035a  00000000  00000000  000b18d8  2**0
                  CONTENTS, READONLY, DEBUGGING, OCTETS

/Users/adrianvos/Documents/GitHub/Workshop_Computer/releases/74_Wild_Pebble/MIDI_enabled/build/WildPebbleMIDI.elf:     file format elf32-littlearm


Disassembly of section .boot2:

10000000 <__boot2_start__>:
10000000:	4b32b500 	.word	0x4b32b500
10000004:	60582021 	.word	0x60582021
10000008:	21026898 	.word	0x21026898
1000000c:	60984388 	.word	0x60984388
10000010:	611860d8 	.word	0x611860d8
10000014:	4b2e6158 	.word	0x4b2e6158
10000018:	60992100 	.word	0x60992100
1000001c:	61592102 	.word	0x61592102
10000020:	22f02101 	.word	0x22f02101
10000024:	492b5099 	.word	0x492b5099
10000028:	21016019 	.word	0x21016019
1000002c:	20356099 	.word	0x20356099
10000030:	f844f000 	.word	0xf844f000
10000034:	42902202 	.word	0x42902202
10000038:	2106d014 	.word	0x2106d014
1000003c:	f0006619 	.word	0xf0006619
10000040:	6e19f834 	.word	0x6e19f834
10000044:	66192101 	.word	0x66192101
10000048:	66182000 	.word	0x66182000
1000004c:	f000661a 	.word	0xf000661a
10000050:	6e19f82c 	.word	0x6e19f82c
10000054:	6e196e19 	.word	0x6e196e19
10000058:	f0002005 	.word	0xf0002005
1000005c:	2101f82f 	.word	0x2101f82f
10000060:	d1f94208 	.word	0xd1f94208
10000064:	60992100 	.word	0x60992100
10000068:	6019491b 	.word	0x6019491b
1000006c:	60592100 	.word	0x60592100
10000070:	481b491a 	.word	0x481b491a
10000074:	21016001 	.word	0x21016001
10000078:	21eb6099 	.word	0x21eb6099
1000007c:	21a06619 	.word	0x21a06619
10000080:	f0006619 	.word	0xf0006619
10000084:	2100f812 	.word	0x2100f812
10000088:	49166099 	.word	0x49166099
1000008c:	60014814 	.word	0x60014814
10000090:	60992101 	.word	0x60992101
10000094:	2800bc01 	.word	0x2800bc01
10000098:	4700d000 	.word	0x4700d000
1000009c:	49134812 	.word	0x49134812
100000a0:	c8036008 	.word	0xc8036008
100000a4:	8808f380 	.word	0x8808f380
100000a8:	b5034708 	.word	0xb5034708
100000ac:	20046a99 	.word	0x20046a99
100000b0:	d0fb4201 	.word	0xd0fb4201
100000b4:	42012001 	.word	0x42012001
100000b8:	bd03d1f8 	.word	0xbd03d1f8
100000bc:	6618b502 	.word	0x6618b502
100000c0:	f7ff6618 	.word	0xf7ff6618
100000c4:	6e18fff2 	.word	0x6e18fff2
100000c8:	bd026e18 	.word	0xbd026e18
100000cc:	40020000 	.word	0x40020000
100000d0:	18000000 	.word	0x18000000
100000d4:	00070000 	.word	0x00070000
100000d8:	005f0300 	.word	0x005f0300
100000dc:	00002221 	.word	0x00002221
100000e0:	180000f4 	.word	0x180000f4
100000e4:	a0002022 	.word	0xa0002022
100000e8:	10000100 	.word	0x10000100
100000ec:	e000ed08 	.word	0xe000ed08
	...
100000fc:	7a4eb274 	.word	0x7a4eb274

Disassembly of section .flashtext:

10000100 <__VECTOR_TABLE>:
10000100:	20042000 	.word	0x20042000
10000104:	100001f7 	.word	0x100001f7
10000108:	100001cb 	.word	0x100001cb
1000010c:	100001cd 	.word	0x100001cd
10000110:	100001c9 	.word	0x100001c9
10000114:	100001c9 	.word	0x100001c9
10000118:	100001c9 	.word	0x100001c9
1000011c:	100001c9 	.word	0x100001c9
10000120:	100001c9 	.word	0x100001c9
10000124:	100001c9 	.word	0x100001c9
10000128:	100001c9 	.word	0x100001c9
1000012c:	100001cf 	.word	0x100001cf
10000130:	100001c9 	.word	0x100001c9
10000134:	100001c9 	.word	0x100001c9
10000138:	100001d1 	.word	0x100001d1
1000013c:	100001d3 	.word	0x100001d3
10000140:	100001c1 	.word	0x100001c1
10000144:	100001c1 	.word	0x100001c1
10000148:	100001c1 	.word	0x100001c1
1000014c:	100001c1 	.word	0x100001c1
10000150:	100001c1 	.word	0x100001c1
10000154:	100001c1 	.word	0x100001c1
10000158:	100001c1 	.word	0x100001c1
1000015c:	100001c1 	.word	0x100001c1
10000160:	100001c1 	.word	0x100001c1
10000164:	100001c1 	.word	0x100001c1
10000168:	100001c1 	.word	0x100001c1
1000016c:	100001c1 	.word	0x100001c1
10000170:	100001c1 	.word	0x100001c1
10000174:	100001c1 	.word	0x100001c1
10000178:	100001c1 	.word	0x100001c1
1000017c:	100001c1 	.word	0x100001c1
10000180:	100001c1 	.word	0x100001c1
10000184:	100001c1 	.word	0x100001c1
10000188:	100001c1 	.word	0x100001c1
1000018c:	100001c1 	.word	0x100001c1
10000190:	100001c1 	.word	0x100001c1
10000194:	100001c1 	.word	0x100001c1
10000198:	100001c1 	.word	0x100001c1
1000019c:	100001c1 	.word	0x100001c1
100001a0:	100001c1 	.word	0x100001c1
100001a4:	100001c1 	.word	0x100001c1
100001a8:	100001c1 	.word	0x100001c1
100001ac:	100001c1 	.word	0x100001c1
100001b0:	100001c1 	.word	0x100001c1
100001b4:	100001c1 	.word	0x100001c1
100001b8:	100001c1 	.word	0x100001c1
100001bc:	100001c1 	.word	0x100001c1

100001c0 <__unhandled_user_irq>:
100001c0:	f3ef 8005 	mrs	r0, IPSR
100001c4:	3810      	subs	r0, #16

100001c6 <unhandled_user_irq_num_in_r0>:
100001c6:	be00      	bkpt	0x0000

100001c8 <isr_invalid>:
100001c8:	be00      	bkpt	0x0000

100001ca <isr_nmi>:
100001ca:	be00      	bkpt	0x0000

100001cc <isr_hardfault>:
100001cc:	be00      	bkpt	0x0000

100001ce <isr_svcall>:
100001ce:	be00      	bkpt	0x0000

100001d0 <isr_pendsv>:
100001d0:	be00      	bkpt	0x0000

100001d2 <isr_systick>:
100001d2:	be00      	bkpt	0x0000

100001d4 <__default_isrs_end>:
100001d4:	7188ebf2 	.word	0x7188ebf2
100001d8:	10000290 	.word	0x10000290
100001dc:	100002b0 	.word	0x100002b0
100001e0:	10000238 	.word	0x10000238
100001e4:	e71aa390 	.word	0xe71aa390

100001e8 <_entry_point>:
100001e8:	4821      	ldr	r0, [pc, #132]	@ (10000270 <data_cpy_table+0x38>)

100001ea <_enter_vtable_in_r0>:
100001ea:	4922      	ldr	r1, [pc, #136]	@ (10000274 <data_cpy_table+0x3c>)
100001ec:	6008      	str	r0, [r1, #0]
100001ee:	c806      	ldmia	r0!, {r1, r2}
100001f0:	f381 8808 	msr	MSP, r1
100001f4:	4710      	bx	r2

100001f6 <_reset_handler>:
100001f6:	4820      	ldr	r0, [pc, #128]	@ (10000278 <data_cpy_table+0x40>)
100001f8:	6800      	ldr	r0, [r0, #0]
100001fa:	2800      	cmp	r0, #0
100001fc:	d001      	beq.n	10000202 <hold_non_core0_in_bootrom+0x4>

100001fe <hold_non_core0_in_bootrom>:
100001fe:	481c      	ldr	r0, [pc, #112]	@ (10000270 <data_cpy_table+0x38>)
10000200:	e7f3      	b.n	100001ea <_enter_vtable_in_r0>
10000202:	a40d      	add	r4, pc, #52	@ (adr r4, 10000238 <data_cpy_table>)
10000204:	cc0e      	ldmia	r4!, {r1, r2, r3}
10000206:	2900      	cmp	r1, #0
10000208:	d002      	beq.n	10000210 <hold_non_core0_in_bootrom+0x12>
1000020a:	f000 f812 	bl	10000232 <data_cpy>
1000020e:	e7f9      	b.n	10000204 <hold_non_core0_in_bootrom+0x6>
10000210:	491a      	ldr	r1, [pc, #104]	@ (1000027c <data_cpy_table+0x44>)
10000212:	4a1b      	ldr	r2, [pc, #108]	@ (10000280 <data_cpy_table+0x48>)
10000214:	2000      	movs	r0, #0
10000216:	e000      	b.n	1000021a <bss_fill_test>

10000218 <bss_fill_loop>:
10000218:	c101      	stmia	r1!, {r0}

1000021a <bss_fill_test>:
1000021a:	4291      	cmp	r1, r2
1000021c:	d1fc      	bne.n	10000218 <bss_fill_loop>

1000021e <platform_entry>:
1000021e:	4919      	ldr	r1, [pc, #100]	@ (10000284 <data_cpy_table+0x4c>)
10000220:	4788      	blx	r1
10000222:	4919      	ldr	r1, [pc, #100]	@ (10000288 <data_cpy_table+0x50>)
10000224:	4788      	blx	r1
10000226:	4919      	ldr	r1, [pc, #100]	@ (1000028c <data_cpy_table+0x54>)
10000228:	4788      	blx	r1
1000022a:	be00      	bkpt	0x0000
1000022c:	e7fd      	b.n	1000022a <platform_entry+0xc>

1000022e <data_cpy_loop>:
1000022e:	c901      	ldmia	r1!, {r0}
10000230:	c201      	stmia	r2!, {r0}

10000232 <data_cpy>:
10000232:	429a      	cmp	r2, r3
10000234:	d3fb      	bcc.n	1000022e <data_cpy_loop>
10000236:	4770      	bx	lr

10000238 <data_cpy_table>:
10000238:	100002b0 	.word	0x100002b0
1000023c:	200000c0 	.word	0x200000c0
10000240:	20006444 	.word	0x20006444
10000244:	10006634 	.word	0x10006634
10000248:	20006450 	.word	0x20006450
1000024c:	20007f80 	.word	0x20007f80
10000250:	10008164 	.word	0x10008164
10000254:	20040000 	.word	0x20040000
10000258:	20040000 	.word	0x20040000
1000025c:	10008164 	.word	0x10008164
10000260:	20041000 	.word	0x20041000
10000264:	20041000 	.word	0x20041000
10000268:	00000000 	.word	0x00000000
1000026c:	4770      	bx	lr
1000026e:	0000      	.short	0x0000
10000270:	00000000 	.word	0x00000000
10000274:	e000ed08 	.word	0xe000ed08
10000278:	d0000000 	.word	0xd0000000
1000027c:	20007f80 	.word	0x20007f80
10000280:	20008efc 	.word	0x20008efc
10000284:	20003f2d 	.word	0x20003f2d
10000288:	20001ebd 	.word	0x20001ebd
1000028c:	20003f25 	.word	0x20003f25

Disassembly of section .text:

200000c0 <_init>:
200000c0:	b5f8      	push	{r3, r4, r5, r6, r7, lr}
200000c2:	46c0      	nop			@ (mov r8, r8)

200000c4 <register_tm_clones>:
200000c4:	4806      	ldr	r0, [pc, #24]	@ (200000e0 <register_tm_clones+0x1c>)
200000c6:	4907      	ldr	r1, [pc, #28]	@ (200000e4 <register_tm_clones+0x20>)
200000c8:	1a09      	subs	r1, r1, r0
200000ca:	108b      	asrs	r3, r1, #2
200000cc:	0fc9      	lsrs	r1, r1, #31
200000ce:	18c9      	adds	r1, r1, r3
200000d0:	b510      	push	{r4, lr}
200000d2:	1049      	asrs	r1, r1, #1
200000d4:	d003      	beq.n	200000de <register_tm_clones+0x1a>
200000d6:	4b04      	ldr	r3, [pc, #16]	@ (200000e8 <register_tm_clones+0x24>)
200000d8:	2b00      	cmp	r3, #0
200000da:	d000      	beq.n	200000de <register_tm_clones+0x1a>
200000dc:	4798      	blx	r3
200000de:	bd10      	pop	{r4, pc}
200000e0:	20007f80 	.word	0x20007f80
200000e4:	20007f80 	.word	0x20007f80
200000e8:	00000000 	.word	0x00000000

200000ec <frame_dummy>:
200000ec:	4b05      	ldr	r3, [pc, #20]	@ (20000104 <frame_dummy+0x18>)
200000ee:	b510      	push	{r4, lr}
200000f0:	2b00      	cmp	r3, #0
200000f2:	d003      	beq.n	200000fc <frame_dummy+0x10>
200000f4:	4904      	ldr	r1, [pc, #16]	@ (20000108 <frame_dummy+0x1c>)
200000f6:	4805      	ldr	r0, [pc, #20]	@ (2000010c <frame_dummy+0x20>)
200000f8:	e000      	b.n	200000fc <frame_dummy+0x10>
200000fa:	bf00      	nop
200000fc:	f7ff ffe2 	bl	200000c4 <register_tm_clones>
20000100:	bd10      	pop	{r4, pc}
20000102:	46c0      	nop			@ (mov r8, r8)
20000104:	00000000 	.word	0x00000000
20000108:	20008eb4 	.word	0x20008eb4
2000010c:	20006444 	.word	0x20006444

20000110 <_ZN12ComputerCard11OnCVPWMWrapEv>:
20000110:	23a4      	movs	r3, #164	@ 0xa4
20000112:	2108      	movs	r1, #8
20000114:	b530      	push	{r4, r5, lr}
20000116:	24ff      	movs	r4, #255	@ 0xff
20000118:	4a13      	ldr	r2, [pc, #76]	@ (20000168 <_ZN12ComputerCard11OnCVPWMWrapEv+0x58>)
2000011a:	4814      	ldr	r0, [pc, #80]	@ (2000016c <_ZN12ComputerCard11OnCVPWMWrapEv+0x5c>)
2000011c:	50d1      	str	r1, [r2, r3]
2000011e:	4914      	ldr	r1, [pc, #80]	@ (20000170 <_ZN12ComputerCard11OnCVPWMWrapEv+0x60>)
20000120:	6802      	ldr	r2, [r0, #0]
20000122:	680b      	ldr	r3, [r1, #0]
20000124:	680d      	ldr	r5, [r1, #0]
20000126:	1a9b      	subs	r3, r3, r2
20000128:	43a3      	bics	r3, r4
2000012a:	1b52      	subs	r2, r2, r5
2000012c:	18d2      	adds	r2, r2, r3
2000012e:	6002      	str	r2, [r0, #0]
20000130:	4a10      	ldr	r2, [pc, #64]	@ (20000174 <_ZN12ComputerCard11OnCVPWMWrapEv+0x64>)
20000132:	021b      	lsls	r3, r3, #8
20000134:	4694      	mov	ip, r2
20000136:	6812      	ldr	r2, [r2, #0]
20000138:	480f      	ldr	r0, [pc, #60]	@ (20000178 <_ZN12ComputerCard11OnCVPWMWrapEv+0x68>)
2000013a:	4053      	eors	r3, r2
2000013c:	0c1b      	lsrs	r3, r3, #16
2000013e:	4d0f      	ldr	r5, [pc, #60]	@ (2000017c <_ZN12ComputerCard11OnCVPWMWrapEv+0x6c>)
20000140:	041b      	lsls	r3, r3, #16
20000142:	6003      	str	r3, [r0, #0]
20000144:	682a      	ldr	r2, [r5, #0]
20000146:	684b      	ldr	r3, [r1, #4]
20000148:	6849      	ldr	r1, [r1, #4]
2000014a:	1a9b      	subs	r3, r3, r2
2000014c:	43a3      	bics	r3, r4
2000014e:	1a52      	subs	r2, r2, r1
20000150:	18d2      	adds	r2, r2, r3
20000152:	602a      	str	r2, [r5, #0]
20000154:	4662      	mov	r2, ip
20000156:	021b      	lsls	r3, r3, #8
20000158:	6812      	ldr	r2, [r2, #0]
2000015a:	0c1b      	lsrs	r3, r3, #16
2000015c:	4053      	eors	r3, r2
2000015e:	041b      	lsls	r3, r3, #16
20000160:	0c1b      	lsrs	r3, r3, #16
20000162:	6003      	str	r3, [r0, #0]
20000164:	bd30      	pop	{r4, r5, pc}
20000166:	46c0      	nop			@ (mov r8, r8)
20000168:	40050000 	.word	0x40050000
2000016c:	200086c8 	.word	0x200086c8
20000170:	20007e60 	.word	0x20007e60
20000174:	40050048 	.word	0x40050048
20000178:	40051048 	.word	0x40051048
2000017c:	200086cc 	.word	0x200086cc

20000180 <_ZN12ComputerCard18ReadByteFromEEPROMEjRb.constprop.0>:
20000180:	b5f0      	push	{r4, r5, r6, r7, lr}
20000182:	2350      	movs	r3, #80	@ 0x50
20000184:	b087      	sub	sp, #28
20000186:	2517      	movs	r5, #23
20000188:	466a      	mov	r2, sp
2000018a:	0504      	lsls	r4, r0, #20
2000018c:	0f24      	lsrs	r4, r4, #28
2000018e:	431c      	orrs	r4, r3
20000190:	446d      	add	r5, sp
20000192:	33af      	adds	r3, #175	@ 0xaf
20000194:	7593      	strb	r3, [r2, #22]
20000196:	000f      	movs	r7, r1
20000198:	7028      	strb	r0, [r5, #0]
2000019a:	f002 ffad 	bl	200030f8 <time_us_64>
2000019e:	2300      	movs	r3, #0
200001a0:	4a19      	ldr	r2, [pc, #100]	@ (20000208 <_ZN12ComputerCard18ReadByteFromEEPROMEjRb.constprop.0+0x88>)
200001a2:	1880      	adds	r0, r0, r2
200001a4:	4159      	adcs	r1, r3
200001a6:	2900      	cmp	r1, #0
200001a8:	da02      	bge.n	200001b0 <_ZN12ComputerCard18ReadByteFromEEPROMEjRb.constprop.0+0x30>
200001aa:	2001      	movs	r0, #1
200001ac:	4917      	ldr	r1, [pc, #92]	@ (2000020c <_ZN12ComputerCard18ReadByteFromEEPROMEjRb.constprop.0+0x8c>)
200001ae:	4240      	negs	r0, r0
200001b0:	2300      	movs	r3, #0
200001b2:	9002      	str	r0, [sp, #8]
200001b4:	9103      	str	r1, [sp, #12]
200001b6:	9300      	str	r3, [sp, #0]
200001b8:	002a      	movs	r2, r5
200001ba:	0021      	movs	r1, r4
200001bc:	4814      	ldr	r0, [pc, #80]	@ (20000210 <_ZN12ComputerCard18ReadByteFromEEPROMEjRb.constprop.0+0x90>)
200001be:	3301      	adds	r3, #1
200001c0:	f006 f8cc 	bl	2000635c <i2c_write_blocking_until>
200001c4:	2800      	cmp	r0, #0
200001c6:	dd1a      	ble.n	200001fe <_ZN12ComputerCard18ReadByteFromEEPROMEjRb.constprop.0+0x7e>
200001c8:	f002 ff96 	bl	200030f8 <time_us_64>
200001cc:	2300      	movs	r3, #0
200001ce:	4a0e      	ldr	r2, [pc, #56]	@ (20000208 <_ZN12ComputerCard18ReadByteFromEEPROMEjRb.constprop.0+0x88>)
200001d0:	1880      	adds	r0, r0, r2
200001d2:	4159      	adcs	r1, r3
200001d4:	2900      	cmp	r1, #0
200001d6:	da02      	bge.n	200001de <_ZN12ComputerCard18ReadByteFromEEPROMEjRb.constprop.0+0x5e>
200001d8:	2001      	movs	r0, #1
200001da:	490c      	ldr	r1, [pc, #48]	@ (2000020c <_ZN12ComputerCard18ReadByteFromEEPROMEjRb.constprop.0+0x8c>)
200001dc:	4240      	negs	r0, r0
200001de:	2300      	movs	r3, #0
200001e0:	2216      	movs	r2, #22
200001e2:	9002      	str	r0, [sp, #8]
200001e4:	9103      	str	r1, [sp, #12]
200001e6:	9300      	str	r3, [sp, #0]
200001e8:	0021      	movs	r1, r4
200001ea:	4809      	ldr	r0, [pc, #36]	@ (20000210 <_ZN12ComputerCard18ReadByteFromEEPROMEjRb.constprop.0+0x90>)
200001ec:	3301      	adds	r3, #1
200001ee:	446a      	add	r2, sp
200001f0:	f006 f8d4 	bl	2000639c <i2c_read_blocking_until>
200001f4:	2800      	cmp	r0, #0
200001f6:	dd02      	ble.n	200001fe <_ZN12ComputerCard18ReadByteFromEEPROMEjRb.constprop.0+0x7e>
200001f8:	466b      	mov	r3, sp
200001fa:	7d98      	ldrb	r0, [r3, #22]
200001fc:	e002      	b.n	20000204 <_ZN12ComputerCard18ReadByteFromEEPROMEjRb.constprop.0+0x84>
200001fe:	2301      	movs	r3, #1
20000200:	2000      	movs	r0, #0
20000202:	703b      	strb	r3, [r7, #0]
20000204:	b007      	add	sp, #28
20000206:	bdf0      	pop	{r4, r5, r6, r7, pc}
20000208:	00002710 	.word	0x00002710
2000020c:	7fffffff 	.word	0x7fffffff
20000210:	20007f20 	.word	0x20007f20

20000214 <_Z9AudioCorev>:
20000214:	b510      	push	{r4, lr}
20000216:	4b03      	ldr	r3, [pc, #12]	@ (20000224 <_Z9AudioCorev+0x10>)
20000218:	4803      	ldr	r0, [pc, #12]	@ (20000228 <_Z9AudioCorev+0x14>)
2000021a:	6018      	str	r0, [r3, #0]
2000021c:	f006 f918 	bl	20006450 <_ZN12ComputerCard11AudioWorkerEv>
20000220:	bd10      	pop	{r4, pc}
20000222:	46c0      	nop			@ (mov r8, r8)
20000224:	200086a0 	.word	0x200086a0
20000228:	20008048 	.word	0x20008048

2000022c <_ZN12ComputerCard20ProbeHardwareVersionEv>:
2000022c:	b570      	push	{r4, r5, r6, lr}
2000022e:	25d0      	movs	r5, #208	@ 0xd0
20000230:	2201      	movs	r2, #1
20000232:	2100      	movs	r1, #0
20000234:	2007      	movs	r0, #7
20000236:	f001 ffc1 	bl	200021bc <gpio_set_pulls>
2000023a:	2201      	movs	r2, #1
2000023c:	2100      	movs	r1, #0
2000023e:	2006      	movs	r0, #6
20000240:	f001 ffbc 	bl	200021bc <gpio_set_pulls>
20000244:	2201      	movs	r2, #1
20000246:	2100      	movs	r1, #0
20000248:	2005      	movs	r0, #5
2000024a:	062d      	lsls	r5, r5, #24
2000024c:	f001 ffb6 	bl	200021bc <gpio_set_pulls>
20000250:	2001      	movs	r0, #1
20000252:	2100      	movs	r1, #0
20000254:	f002 fe2e 	bl	20002eb4 <sleep_us>
20000258:	686a      	ldr	r2, [r5, #4]
2000025a:	686c      	ldr	r4, [r5, #4]
2000025c:	686b      	ldr	r3, [r5, #4]
2000025e:	0664      	lsls	r4, r4, #25
20000260:	069b      	lsls	r3, r3, #26
20000262:	0fe4      	lsrs	r4, r4, #31
20000264:	0fdb      	lsrs	r3, r3, #31
20000266:	011b      	lsls	r3, r3, #4
20000268:	00a4      	lsls	r4, r4, #2
2000026a:	431c      	orrs	r4, r3
2000026c:	0613      	lsls	r3, r2, #24
2000026e:	0fdb      	lsrs	r3, r3, #31
20000270:	2200      	movs	r2, #0
20000272:	2101      	movs	r1, #1
20000274:	2007      	movs	r0, #7
20000276:	431c      	orrs	r4, r3
20000278:	f001 ffa0 	bl	200021bc <gpio_set_pulls>
2000027c:	2200      	movs	r2, #0
2000027e:	2101      	movs	r1, #1
20000280:	2006      	movs	r0, #6
20000282:	f001 ff9b 	bl	200021bc <gpio_set_pulls>
20000286:	2200      	movs	r2, #0
20000288:	2101      	movs	r1, #1
2000028a:	2005      	movs	r0, #5
2000028c:	f001 ff96 	bl	200021bc <gpio_set_pulls>
20000290:	2001      	movs	r0, #1
20000292:	2100      	movs	r1, #0
20000294:	f002 fe0e 	bl	20002eb4 <sleep_us>
20000298:	6869      	ldr	r1, [r5, #4]
2000029a:	686a      	ldr	r2, [r5, #4]
2000029c:	0609      	lsls	r1, r1, #24
2000029e:	686b      	ldr	r3, [r5, #4]
200002a0:	0fc9      	lsrs	r1, r1, #31
200002a2:	0652      	lsls	r2, r2, #25
200002a4:	0049      	lsls	r1, r1, #1
200002a6:	0fd2      	lsrs	r2, r2, #31
200002a8:	069b      	lsls	r3, r3, #26
200002aa:	430c      	orrs	r4, r1
200002ac:	00d2      	lsls	r2, r2, #3
200002ae:	0fdb      	lsrs	r3, r3, #31
200002b0:	015b      	lsls	r3, r3, #5
200002b2:	2100      	movs	r1, #0
200002b4:	2007      	movs	r0, #7
200002b6:	4314      	orrs	r4, r2
200002b8:	2201      	movs	r2, #1
200002ba:	431c      	orrs	r4, r3
200002bc:	f001 ff7e 	bl	200021bc <gpio_set_pulls>
200002c0:	2201      	movs	r2, #1
200002c2:	2100      	movs	r1, #0
200002c4:	2006      	movs	r0, #6
200002c6:	f001 ff79 	bl	200021bc <gpio_set_pulls>
200002ca:	b264      	sxtb	r4, r4
200002cc:	2201      	movs	r2, #1
200002ce:	2100      	movs	r1, #0
200002d0:	2005      	movs	r0, #5
200002d2:	f001 ff73 	bl	200021bc <gpio_set_pulls>
200002d6:	2c2a      	cmp	r4, #42	@ 0x2a
200002d8:	d005      	beq.n	200002e6 <_ZN12ComputerCard20ProbeHardwareVersionEv+0xba>
200002da:	2c30      	cmp	r4, #48	@ 0x30
200002dc:	d003      	beq.n	200002e6 <_ZN12ComputerCard20ProbeHardwareVersionEv+0xba>
200002de:	20ff      	movs	r0, #255	@ 0xff
200002e0:	2c0c      	cmp	r4, #12
200002e2:	d000      	beq.n	200002e6 <_ZN12ComputerCard20ProbeHardwareVersionEv+0xba>
200002e4:	bd70      	pop	{r4, r5, r6, pc}
200002e6:	b2e0      	uxtb	r0, r4
200002e8:	e7fc      	b.n	200002e4 <_ZN12ComputerCard20ProbeHardwareVersionEv+0xb8>
200002ea:	46c0      	nop			@ (mov r8, r8)

200002ec <_ZN12ComputerCard13CalcCalCoeffsEi>:
200002ec:	b5f0      	push	{r4, r5, r6, r7, lr}
200002ee:	464e      	mov	r6, r9
200002f0:	46de      	mov	lr, fp
200002f2:	4657      	mov	r7, sl
200002f4:	4645      	mov	r5, r8
200002f6:	b5e0      	push	{r5, r6, r7, lr}
200002f8:	1843      	adds	r3, r0, r1
200002fa:	3324      	adds	r3, #36	@ 0x24
200002fc:	781b      	ldrb	r3, [r3, #0]
200002fe:	b085      	sub	sp, #20
20000300:	4699      	mov	r9, r3
20000302:	9001      	str	r0, [sp, #4]
20000304:	9102      	str	r1, [sp, #8]
20000306:	2b00      	cmp	r3, #0
20000308:	d100      	bne.n	2000030c <_ZN12ComputerCard13CalcCalCoeffsEi+0x20>
2000030a:	e22d      	b.n	20000768 <_ZN12ComputerCard13CalcCalCoeffsEi+0x47c>
2000030c:	4680      	mov	r8, r0
2000030e:	008b      	lsls	r3, r1, #2
20000310:	9303      	str	r3, [sp, #12]
20000312:	185b      	adds	r3, r3, r1
20000314:	011b      	lsls	r3, r3, #4
20000316:	4498      	add	r8, r3
20000318:	4644      	mov	r4, r8
2000031a:	202c      	movs	r0, #44	@ 0x2c
2000031c:	5620      	ldrsb	r0, [r4, r0]
2000031e:	f003 fd1b 	bl	20003d58 <__wrap___aeabi_i2f>
20000322:	49e5      	ldr	r1, [pc, #916]	@ (200006b8 <_ZN12ComputerCard13CalcCalCoeffsEi+0x3cc>)
20000324:	f003 fce1 	bl	20003cea <__wrap___aeabi_fmul>
20000328:	1c07      	adds	r7, r0, #0
2000032a:	6aa0      	ldr	r0, [r4, #40]	@ 0x28
2000032c:	f003 fd14 	bl	20003d58 <__wrap___aeabi_i2f>
20000330:	2100      	movs	r1, #0
20000332:	4682      	mov	sl, r0
20000334:	1c38      	adds	r0, r7, #0
20000336:	f003 fcc1 	bl	20003cbc <__wrap___aeabi_fadd>
2000033a:	2100      	movs	r1, #0
2000033c:	1c04      	adds	r4, r0, #0
2000033e:	4650      	mov	r0, sl
20000340:	f003 fcbc 	bl	20003cbc <__wrap___aeabi_fadd>
20000344:	1c39      	adds	r1, r7, #0
20000346:	1c05      	adds	r5, r0, #0
20000348:	1c38      	adds	r0, r7, #0
2000034a:	f003 fcce 	bl	20003cea <__wrap___aeabi_fmul>
2000034e:	2100      	movs	r1, #0
20000350:	f003 fcb4 	bl	20003cbc <__wrap___aeabi_fadd>
20000354:	1c39      	adds	r1, r7, #0
20000356:	1c06      	adds	r6, r0, #0
20000358:	4650      	mov	r0, sl
2000035a:	f003 fcc6 	bl	20003cea <__wrap___aeabi_fmul>
2000035e:	2100      	movs	r1, #0
20000360:	f003 fcac 	bl	20003cbc <__wrap___aeabi_fadd>
20000364:	464a      	mov	r2, r9
20000366:	1c07      	adds	r7, r0, #0
20000368:	2a01      	cmp	r2, #1
2000036a:	d100      	bne.n	2000036e <_ZN12ComputerCard13CalcCalCoeffsEi+0x82>
2000036c:	e19e      	b.n	200006ac <_ZN12ComputerCard13CalcCalCoeffsEi+0x3c0>
2000036e:	4642      	mov	r2, r8
20000370:	2034      	movs	r0, #52	@ 0x34
20000372:	5610      	ldrsb	r0, [r2, r0]
20000374:	f003 fcf0 	bl	20003d58 <__wrap___aeabi_i2f>
20000378:	49cf      	ldr	r1, [pc, #828]	@ (200006b8 <_ZN12ComputerCard13CalcCalCoeffsEi+0x3cc>)
2000037a:	f003 fcb6 	bl	20003cea <__wrap___aeabi_fmul>
2000037e:	4642      	mov	r2, r8
20000380:	4682      	mov	sl, r0
20000382:	6b10      	ldr	r0, [r2, #48]	@ 0x30
20000384:	f003 fce8 	bl	20003d58 <__wrap___aeabi_i2f>
20000388:	4651      	mov	r1, sl
2000038a:	4683      	mov	fp, r0
2000038c:	1c20      	adds	r0, r4, #0
2000038e:	f003 fc95 	bl	20003cbc <__wrap___aeabi_fadd>
20000392:	4659      	mov	r1, fp
20000394:	1c04      	adds	r4, r0, #0
20000396:	1c28      	adds	r0, r5, #0
20000398:	f003 fc90 	bl	20003cbc <__wrap___aeabi_fadd>
2000039c:	4651      	mov	r1, sl
2000039e:	1c05      	adds	r5, r0, #0
200003a0:	4650      	mov	r0, sl
200003a2:	f003 fca2 	bl	20003cea <__wrap___aeabi_fmul>
200003a6:	1c01      	adds	r1, r0, #0
200003a8:	1c30      	adds	r0, r6, #0
200003aa:	f003 fc87 	bl	20003cbc <__wrap___aeabi_fadd>
200003ae:	4651      	mov	r1, sl
200003b0:	1c06      	adds	r6, r0, #0
200003b2:	4658      	mov	r0, fp
200003b4:	f003 fc99 	bl	20003cea <__wrap___aeabi_fmul>
200003b8:	1c01      	adds	r1, r0, #0
200003ba:	1c38      	adds	r0, r7, #0
200003bc:	f003 fc7e 	bl	20003cbc <__wrap___aeabi_fadd>
200003c0:	464a      	mov	r2, r9
200003c2:	1c07      	adds	r7, r0, #0
200003c4:	2a02      	cmp	r2, #2
200003c6:	d100      	bne.n	200003ca <_ZN12ComputerCard13CalcCalCoeffsEi+0xde>
200003c8:	e170      	b.n	200006ac <_ZN12ComputerCard13CalcCalCoeffsEi+0x3c0>
200003ca:	4642      	mov	r2, r8
200003cc:	203c      	movs	r0, #60	@ 0x3c
200003ce:	5610      	ldrsb	r0, [r2, r0]
200003d0:	f003 fcc2 	bl	20003d58 <__wrap___aeabi_i2f>
200003d4:	49b8      	ldr	r1, [pc, #736]	@ (200006b8 <_ZN12ComputerCard13CalcCalCoeffsEi+0x3cc>)
200003d6:	f003 fc88 	bl	20003cea <__wrap___aeabi_fmul>
200003da:	4642      	mov	r2, r8
200003dc:	4682      	mov	sl, r0
200003de:	6b90      	ldr	r0, [r2, #56]	@ 0x38
200003e0:	f003 fcba 	bl	20003d58 <__wrap___aeabi_i2f>
200003e4:	4651      	mov	r1, sl
200003e6:	4683      	mov	fp, r0
200003e8:	1c20      	adds	r0, r4, #0
200003ea:	f003 fc67 	bl	20003cbc <__wrap___aeabi_fadd>
200003ee:	4659      	mov	r1, fp
200003f0:	1c04      	adds	r4, r0, #0
200003f2:	1c28      	adds	r0, r5, #0
200003f4:	f003 fc62 	bl	20003cbc <__wrap___aeabi_fadd>
200003f8:	4651      	mov	r1, sl
200003fa:	1c05      	adds	r5, r0, #0
200003fc:	4650      	mov	r0, sl
200003fe:	f003 fc74 	bl	20003cea <__wrap___aeabi_fmul>
20000402:	1c01      	adds	r1, r0, #0
20000404:	1c30      	adds	r0, r6, #0
20000406:	f003 fc59 	bl	20003cbc <__wrap___aeabi_fadd>
2000040a:	4651      	mov	r1, sl
2000040c:	1c06      	adds	r6, r0, #0
2000040e:	4658      	mov	r0, fp
20000410:	f003 fc6b 	bl	20003cea <__wrap___aeabi_fmul>
20000414:	1c01      	adds	r1, r0, #0
20000416:	1c38      	adds	r0, r7, #0
20000418:	f003 fc50 	bl	20003cbc <__wrap___aeabi_fadd>
2000041c:	464a      	mov	r2, r9
2000041e:	1c07      	adds	r7, r0, #0
20000420:	2a03      	cmp	r2, #3
20000422:	d100      	bne.n	20000426 <_ZN12ComputerCard13CalcCalCoeffsEi+0x13a>
20000424:	e142      	b.n	200006ac <_ZN12ComputerCard13CalcCalCoeffsEi+0x3c0>
20000426:	4642      	mov	r2, r8
20000428:	2044      	movs	r0, #68	@ 0x44
2000042a:	5610      	ldrsb	r0, [r2, r0]
2000042c:	f003 fc94 	bl	20003d58 <__wrap___aeabi_i2f>
20000430:	49a1      	ldr	r1, [pc, #644]	@ (200006b8 <_ZN12ComputerCard13CalcCalCoeffsEi+0x3cc>)
20000432:	f003 fc5a 	bl	20003cea <__wrap___aeabi_fmul>
20000436:	4642      	mov	r2, r8
20000438:	4682      	mov	sl, r0
2000043a:	6c10      	ldr	r0, [r2, #64]	@ 0x40
2000043c:	f003 fc8c 	bl	20003d58 <__wrap___aeabi_i2f>
20000440:	4651      	mov	r1, sl
20000442:	4683      	mov	fp, r0
20000444:	1c20      	adds	r0, r4, #0
20000446:	f003 fc39 	bl	20003cbc <__wrap___aeabi_fadd>
2000044a:	4659      	mov	r1, fp
2000044c:	1c04      	adds	r4, r0, #0
2000044e:	1c28      	adds	r0, r5, #0
20000450:	f003 fc34 	bl	20003cbc <__wrap___aeabi_fadd>
20000454:	4651      	mov	r1, sl
20000456:	1c05      	adds	r5, r0, #0
20000458:	4650      	mov	r0, sl
2000045a:	f003 fc46 	bl	20003cea <__wrap___aeabi_fmul>
2000045e:	1c01      	adds	r1, r0, #0
20000460:	1c30      	adds	r0, r6, #0
20000462:	f003 fc2b 	bl	20003cbc <__wrap___aeabi_fadd>
20000466:	4659      	mov	r1, fp
20000468:	1c06      	adds	r6, r0, #0
2000046a:	4650      	mov	r0, sl
2000046c:	f003 fc3d 	bl	20003cea <__wrap___aeabi_fmul>
20000470:	1c01      	adds	r1, r0, #0
20000472:	1c38      	adds	r0, r7, #0
20000474:	f003 fc22 	bl	20003cbc <__wrap___aeabi_fadd>
20000478:	464a      	mov	r2, r9
2000047a:	1c07      	adds	r7, r0, #0
2000047c:	2a04      	cmp	r2, #4
2000047e:	d100      	bne.n	20000482 <_ZN12ComputerCard13CalcCalCoeffsEi+0x196>
20000480:	e114      	b.n	200006ac <_ZN12ComputerCard13CalcCalCoeffsEi+0x3c0>
20000482:	4642      	mov	r2, r8
20000484:	204c      	movs	r0, #76	@ 0x4c
20000486:	5610      	ldrsb	r0, [r2, r0]
20000488:	f003 fc66 	bl	20003d58 <__wrap___aeabi_i2f>
2000048c:	498a      	ldr	r1, [pc, #552]	@ (200006b8 <_ZN12ComputerCard13CalcCalCoeffsEi+0x3cc>)
2000048e:	f003 fc2c 	bl	20003cea <__wrap___aeabi_fmul>
20000492:	4642      	mov	r2, r8
20000494:	4682      	mov	sl, r0
20000496:	6c90      	ldr	r0, [r2, #72]	@ 0x48
20000498:	f003 fc5e 	bl	20003d58 <__wrap___aeabi_i2f>
2000049c:	4651      	mov	r1, sl
2000049e:	4683      	mov	fp, r0
200004a0:	1c20      	adds	r0, r4, #0
200004a2:	f003 fc0b 	bl	20003cbc <__wrap___aeabi_fadd>
200004a6:	4659      	mov	r1, fp
200004a8:	1c04      	adds	r4, r0, #0
200004aa:	1c28      	adds	r0, r5, #0
200004ac:	f003 fc06 	bl	20003cbc <__wrap___aeabi_fadd>
200004b0:	4651      	mov	r1, sl
200004b2:	1c05      	adds	r5, r0, #0
200004b4:	4650      	mov	r0, sl
200004b6:	f003 fc18 	bl	20003cea <__wrap___aeabi_fmul>
200004ba:	1c01      	adds	r1, r0, #0
200004bc:	1c30      	adds	r0, r6, #0
200004be:	f003 fbfd 	bl	20003cbc <__wrap___aeabi_fadd>
200004c2:	4659      	mov	r1, fp
200004c4:	1c06      	adds	r6, r0, #0
200004c6:	4650      	mov	r0, sl
200004c8:	f003 fc0f 	bl	20003cea <__wrap___aeabi_fmul>
200004cc:	1c01      	adds	r1, r0, #0
200004ce:	1c38      	adds	r0, r7, #0
200004d0:	f003 fbf4 	bl	20003cbc <__wrap___aeabi_fadd>
200004d4:	464a      	mov	r2, r9
200004d6:	1c07      	adds	r7, r0, #0
200004d8:	2a05      	cmp	r2, #5
200004da:	d100      	bne.n	200004de <_ZN12ComputerCard13CalcCalCoeffsEi+0x1f2>
200004dc:	e0e6      	b.n	200006ac <_ZN12ComputerCard13CalcCalCoeffsEi+0x3c0>
200004de:	2354      	movs	r3, #84	@ 0x54
200004e0:	4642      	mov	r2, r8
200004e2:	56d0      	ldrsb	r0, [r2, r3]
200004e4:	f003 fc38 	bl	20003d58 <__wrap___aeabi_i2f>
200004e8:	4973      	ldr	r1, [pc, #460]	@ (200006b8 <_ZN12ComputerCard13CalcCalCoeffsEi+0x3cc>)
200004ea:	f003 fbfe 	bl	20003cea <__wrap___aeabi_fmul>
200004ee:	4642      	mov	r2, r8
200004f0:	4682      	mov	sl, r0
200004f2:	6d10      	ldr	r0, [r2, #80]	@ 0x50
200004f4:	f003 fc30 	bl	20003d58 <__wrap___aeabi_i2f>
200004f8:	4651      	mov	r1, sl
200004fa:	4683      	mov	fp, r0
200004fc:	1c20      	adds	r0, r4, #0
200004fe:	f003 fbdd 	bl	20003cbc <__wrap___aeabi_fadd>
20000502:	4659      	mov	r1, fp
20000504:	1c04      	adds	r4, r0, #0
20000506:	1c28      	adds	r0, r5, #0
20000508:	f003 fbd8 	bl	20003cbc <__wrap___aeabi_fadd>
2000050c:	4651      	mov	r1, sl
2000050e:	1c05      	adds	r5, r0, #0
20000510:	4650      	mov	r0, sl
20000512:	f003 fbea 	bl	20003cea <__wrap___aeabi_fmul>
20000516:	1c01      	adds	r1, r0, #0
20000518:	1c30      	adds	r0, r6, #0
2000051a:	f003 fbcf 	bl	20003cbc <__wrap___aeabi_fadd>
2000051e:	4659      	mov	r1, fp
20000520:	1c06      	adds	r6, r0, #0
20000522:	4650      	mov	r0, sl
20000524:	f003 fbe1 	bl	20003cea <__wrap___aeabi_fmul>
20000528:	1c01      	adds	r1, r0, #0
2000052a:	1c38      	adds	r0, r7, #0
2000052c:	f003 fbc6 	bl	20003cbc <__wrap___aeabi_fadd>
20000530:	464a      	mov	r2, r9
20000532:	1c07      	adds	r7, r0, #0
20000534:	2a06      	cmp	r2, #6
20000536:	d100      	bne.n	2000053a <_ZN12ComputerCard13CalcCalCoeffsEi+0x24e>
20000538:	e0b8      	b.n	200006ac <_ZN12ComputerCard13CalcCalCoeffsEi+0x3c0>
2000053a:	4642      	mov	r2, r8
2000053c:	205c      	movs	r0, #92	@ 0x5c
2000053e:	5610      	ldrsb	r0, [r2, r0]
20000540:	f003 fc0a 	bl	20003d58 <__wrap___aeabi_i2f>
20000544:	495c      	ldr	r1, [pc, #368]	@ (200006b8 <_ZN12ComputerCard13CalcCalCoeffsEi+0x3cc>)
20000546:	f003 fbd0 	bl	20003cea <__wrap___aeabi_fmul>
2000054a:	4642      	mov	r2, r8
2000054c:	4682      	mov	sl, r0
2000054e:	6d90      	ldr	r0, [r2, #88]	@ 0x58
20000550:	f003 fc02 	bl	20003d58 <__wrap___aeabi_i2f>
20000554:	4651      	mov	r1, sl
20000556:	4683      	mov	fp, r0
20000558:	1c20      	adds	r0, r4, #0
2000055a:	f003 fbaf 	bl	20003cbc <__wrap___aeabi_fadd>
2000055e:	4659      	mov	r1, fp
20000560:	1c04      	adds	r4, r0, #0
20000562:	1c28      	adds	r0, r5, #0
20000564:	f003 fbaa 	bl	20003cbc <__wrap___aeabi_fadd>
20000568:	4651      	mov	r1, sl
2000056a:	1c05      	adds	r5, r0, #0
2000056c:	4650      	mov	r0, sl
2000056e:	f003 fbbc 	bl	20003cea <__wrap___aeabi_fmul>
20000572:	1c01      	adds	r1, r0, #0
20000574:	1c30      	adds	r0, r6, #0
20000576:	f003 fba1 	bl	20003cbc <__wrap___aeabi_fadd>
2000057a:	4659      	mov	r1, fp
2000057c:	1c06      	adds	r6, r0, #0
2000057e:	4650      	mov	r0, sl
20000580:	f003 fbb3 	bl	20003cea <__wrap___aeabi_fmul>
20000584:	1c01      	adds	r1, r0, #0
20000586:	1c38      	adds	r0, r7, #0
20000588:	f003 fb98 	bl	20003cbc <__wrap___aeabi_fadd>
2000058c:	464a      	mov	r2, r9
2000058e:	1c07      	adds	r7, r0, #0
20000590:	2a07      	cmp	r2, #7
20000592:	d100      	bne.n	20000596 <_ZN12ComputerCard13CalcCalCoeffsEi+0x2aa>
20000594:	e08a      	b.n	200006ac <_ZN12ComputerCard13CalcCalCoeffsEi+0x3c0>
20000596:	4642      	mov	r2, r8
20000598:	2064      	movs	r0, #100	@ 0x64
2000059a:	5610      	ldrsb	r0, [r2, r0]
2000059c:	f003 fbdc 	bl	20003d58 <__wrap___aeabi_i2f>
200005a0:	4945      	ldr	r1, [pc, #276]	@ (200006b8 <_ZN12ComputerCard13CalcCalCoeffsEi+0x3cc>)
200005a2:	f003 fba2 	bl	20003cea <__wrap___aeabi_fmul>
200005a6:	4642      	mov	r2, r8
200005a8:	4682      	mov	sl, r0
200005aa:	6e10      	ldr	r0, [r2, #96]	@ 0x60
200005ac:	f003 fbd4 	bl	20003d58 <__wrap___aeabi_i2f>
200005b0:	4651      	mov	r1, sl
200005b2:	4683      	mov	fp, r0
200005b4:	1c20      	adds	r0, r4, #0
200005b6:	f003 fb81 	bl	20003cbc <__wrap___aeabi_fadd>
200005ba:	4659      	mov	r1, fp
200005bc:	1c04      	adds	r4, r0, #0
200005be:	1c28      	adds	r0, r5, #0
200005c0:	f003 fb7c 	bl	20003cbc <__wrap___aeabi_fadd>
200005c4:	4651      	mov	r1, sl
200005c6:	1c05      	adds	r5, r0, #0
200005c8:	4650      	mov	r0, sl
200005ca:	f003 fb8e 	bl	20003cea <__wrap___aeabi_fmul>
200005ce:	1c01      	adds	r1, r0, #0
200005d0:	1c30      	adds	r0, r6, #0
200005d2:	f003 fb73 	bl	20003cbc <__wrap___aeabi_fadd>
200005d6:	4659      	mov	r1, fp
200005d8:	1c06      	adds	r6, r0, #0
200005da:	4650      	mov	r0, sl
200005dc:	f003 fb85 	bl	20003cea <__wrap___aeabi_fmul>
200005e0:	1c01      	adds	r1, r0, #0
200005e2:	1c38      	adds	r0, r7, #0
200005e4:	f003 fb6a 	bl	20003cbc <__wrap___aeabi_fadd>
200005e8:	464a      	mov	r2, r9
200005ea:	1c07      	adds	r7, r0, #0
200005ec:	2a08      	cmp	r2, #8
200005ee:	d05d      	beq.n	200006ac <_ZN12ComputerCard13CalcCalCoeffsEi+0x3c0>
200005f0:	4642      	mov	r2, r8
200005f2:	206c      	movs	r0, #108	@ 0x6c
200005f4:	5610      	ldrsb	r0, [r2, r0]
200005f6:	f003 fbaf 	bl	20003d58 <__wrap___aeabi_i2f>
200005fa:	492f      	ldr	r1, [pc, #188]	@ (200006b8 <_ZN12ComputerCard13CalcCalCoeffsEi+0x3cc>)
200005fc:	f003 fb75 	bl	20003cea <__wrap___aeabi_fmul>
20000600:	4642      	mov	r2, r8
20000602:	4682      	mov	sl, r0
20000604:	6e90      	ldr	r0, [r2, #104]	@ 0x68
20000606:	f003 fba7 	bl	20003d58 <__wrap___aeabi_i2f>
2000060a:	4651      	mov	r1, sl
2000060c:	4680      	mov	r8, r0
2000060e:	1c20      	adds	r0, r4, #0
20000610:	f003 fb54 	bl	20003cbc <__wrap___aeabi_fadd>
20000614:	4641      	mov	r1, r8
20000616:	1c04      	adds	r4, r0, #0
20000618:	1c28      	adds	r0, r5, #0
2000061a:	f003 fb4f 	bl	20003cbc <__wrap___aeabi_fadd>
2000061e:	4651      	mov	r1, sl
20000620:	1c05      	adds	r5, r0, #0
20000622:	4650      	mov	r0, sl
20000624:	f003 fb61 	bl	20003cea <__wrap___aeabi_fmul>
20000628:	1c01      	adds	r1, r0, #0
2000062a:	1c30      	adds	r0, r6, #0
2000062c:	f003 fb46 	bl	20003cbc <__wrap___aeabi_fadd>
20000630:	4641      	mov	r1, r8
20000632:	1c06      	adds	r6, r0, #0
20000634:	4650      	mov	r0, sl
20000636:	f003 fb58 	bl	20003cea <__wrap___aeabi_fmul>
2000063a:	1c01      	adds	r1, r0, #0
2000063c:	1c38      	adds	r0, r7, #0
2000063e:	f003 fb3d 	bl	20003cbc <__wrap___aeabi_fadd>
20000642:	464a      	mov	r2, r9
20000644:	1c07      	adds	r7, r0, #0
20000646:	2a09      	cmp	r2, #9
20000648:	d030      	beq.n	200006ac <_ZN12ComputerCard13CalcCalCoeffsEi+0x3c0>
2000064a:	9a01      	ldr	r2, [sp, #4]
2000064c:	9802      	ldr	r0, [sp, #8]
2000064e:	4690      	mov	r8, r2
20000650:	9b03      	ldr	r3, [sp, #12]
20000652:	181b      	adds	r3, r3, r0
20000654:	011b      	lsls	r3, r3, #4
20000656:	4498      	add	r8, r3
20000658:	4643      	mov	r3, r8
2000065a:	2074      	movs	r0, #116	@ 0x74
2000065c:	5618      	ldrsb	r0, [r3, r0]
2000065e:	f003 fb7b 	bl	20003d58 <__wrap___aeabi_i2f>
20000662:	4915      	ldr	r1, [pc, #84]	@ (200006b8 <_ZN12ComputerCard13CalcCalCoeffsEi+0x3cc>)
20000664:	f003 fb41 	bl	20003cea <__wrap___aeabi_fmul>
20000668:	4643      	mov	r3, r8
2000066a:	4682      	mov	sl, r0
2000066c:	6f18      	ldr	r0, [r3, #112]	@ 0x70
2000066e:	f003 fb73 	bl	20003d58 <__wrap___aeabi_i2f>
20000672:	4651      	mov	r1, sl
20000674:	4680      	mov	r8, r0
20000676:	1c20      	adds	r0, r4, #0
20000678:	f003 fb20 	bl	20003cbc <__wrap___aeabi_fadd>
2000067c:	4641      	mov	r1, r8
2000067e:	1c04      	adds	r4, r0, #0
20000680:	1c28      	adds	r0, r5, #0
20000682:	f003 fb1b 	bl	20003cbc <__wrap___aeabi_fadd>
20000686:	4651      	mov	r1, sl
20000688:	1c05      	adds	r5, r0, #0
2000068a:	4650      	mov	r0, sl
2000068c:	f003 fb2d 	bl	20003cea <__wrap___aeabi_fmul>
20000690:	1c01      	adds	r1, r0, #0
20000692:	1c30      	adds	r0, r6, #0
20000694:	f003 fb12 	bl	20003cbc <__wrap___aeabi_fadd>
20000698:	4641      	mov	r1, r8
2000069a:	1c06      	adds	r6, r0, #0
2000069c:	4650      	mov	r0, sl
2000069e:	f003 fb24 	bl	20003cea <__wrap___aeabi_fmul>
200006a2:	1c01      	adds	r1, r0, #0
200006a4:	1c38      	adds	r0, r7, #0
200006a6:	f003 fb09 	bl	20003cbc <__wrap___aeabi_fadd>
200006aa:	1c07      	adds	r7, r0, #0
200006ac:	1c21      	adds	r1, r4, #0
200006ae:	1c20      	adds	r0, r4, #0
200006b0:	f003 fb1b 	bl	20003cea <__wrap___aeabi_fmul>
200006b4:	4680      	mov	r8, r0
200006b6:	e001      	b.n	200006bc <_ZN12ComputerCard13CalcCalCoeffsEi+0x3d0>
200006b8:	3dcccccd 	.word	0x3dcccccd
200006bc:	4648      	mov	r0, r9
200006be:	f003 fb4b 	bl	20003d58 <__wrap___aeabi_i2f>
200006c2:	1c31      	adds	r1, r6, #0
200006c4:	4681      	mov	r9, r0
200006c6:	f003 fb10 	bl	20003cea <__wrap___aeabi_fmul>
200006ca:	4641      	mov	r1, r8
200006cc:	f003 faf3 	bl	20003cb6 <__wrap___aeabi_fsub>
200006d0:	2100      	movs	r1, #0
200006d2:	1c06      	adds	r6, r0, #0
200006d4:	f003 fb38 	bl	20003d48 <__wrap___aeabi_fcmpeq>
200006d8:	2800      	cmp	r0, #0
200006da:	d141      	bne.n	20000760 <_ZN12ComputerCard13CalcCalCoeffsEi+0x474>
200006dc:	1c39      	adds	r1, r7, #0
200006de:	4648      	mov	r0, r9
200006e0:	f003 fb03 	bl	20003cea <__wrap___aeabi_fmul>
200006e4:	1c29      	adds	r1, r5, #0
200006e6:	1c07      	adds	r7, r0, #0
200006e8:	1c20      	adds	r0, r4, #0
200006ea:	f003 fafe 	bl	20003cea <__wrap___aeabi_fmul>
200006ee:	1c01      	adds	r1, r0, #0
200006f0:	1c38      	adds	r0, r7, #0
200006f2:	f003 fae0 	bl	20003cb6 <__wrap___aeabi_fsub>
200006f6:	1c31      	adds	r1, r6, #0
200006f8:	f003 fae3 	bl	20003cc2 <__wrap___aeabi_fdiv>
200006fc:	491e      	ldr	r1, [pc, #120]	@ (20000778 <_ZN12ComputerCard13CalcCalCoeffsEi+0x48c>)
200006fe:	1c07      	adds	r7, r0, #0
20000700:	f003 faf3 	bl	20003cea <__wrap___aeabi_fmul>
20000704:	21fc      	movs	r1, #252	@ 0xfc
20000706:	0589      	lsls	r1, r1, #22
20000708:	f003 fad8 	bl	20003cbc <__wrap___aeabi_fadd>
2000070c:	f003 fb46 	bl	20003d9c <__wrap___aeabi_f2iz>
20000710:	4680      	mov	r8, r0
20000712:	9b02      	ldr	r3, [sp, #8]
20000714:	1c21      	adds	r1, r4, #0
20000716:	011e      	lsls	r6, r3, #4
20000718:	9b01      	ldr	r3, [sp, #4]
2000071a:	1c38      	adds	r0, r7, #0
2000071c:	199e      	adds	r6, r3, r6
2000071e:	0033      	movs	r3, r6
20000720:	33c8      	adds	r3, #200	@ 0xc8
20000722:	601f      	str	r7, [r3, #0]
20000724:	f003 fae1 	bl	20003cea <__wrap___aeabi_fmul>
20000728:	1c01      	adds	r1, r0, #0
2000072a:	1c28      	adds	r0, r5, #0
2000072c:	f003 fac3 	bl	20003cb6 <__wrap___aeabi_fsub>
20000730:	4649      	mov	r1, r9
20000732:	f003 fac6 	bl	20003cc2 <__wrap___aeabi_fdiv>
20000736:	0033      	movs	r3, r6
20000738:	33cc      	adds	r3, #204	@ 0xcc
2000073a:	4642      	mov	r2, r8
2000073c:	6018      	str	r0, [r3, #0]
2000073e:	21fc      	movs	r1, #252	@ 0xfc
20000740:	23d0      	movs	r3, #208	@ 0xd0
20000742:	0589      	lsls	r1, r1, #22
20000744:	50f2      	str	r2, [r6, r3]
20000746:	f003 fab9 	bl	20003cbc <__wrap___aeabi_fadd>
2000074a:	f003 fb27 	bl	20003d9c <__wrap___aeabi_f2iz>
2000074e:	23d4      	movs	r3, #212	@ 0xd4
20000750:	50f0      	str	r0, [r6, r3]
20000752:	b005      	add	sp, #20
20000754:	bcf0      	pop	{r4, r5, r6, r7}
20000756:	46bb      	mov	fp, r7
20000758:	46b2      	mov	sl, r6
2000075a:	46a9      	mov	r9, r5
2000075c:	46a0      	mov	r8, r4
2000075e:	bdf0      	pop	{r4, r5, r6, r7, pc}
20000760:	2300      	movs	r3, #0
20000762:	2700      	movs	r7, #0
20000764:	4698      	mov	r8, r3
20000766:	e7d4      	b.n	20000712 <_ZN12ComputerCard13CalcCalCoeffsEi+0x426>
20000768:	2300      	movs	r3, #0
2000076a:	4698      	mov	r8, r3
2000076c:	1c1f      	adds	r7, r3, #0
2000076e:	1c1e      	adds	r6, r3, #0
20000770:	1c1d      	adds	r5, r3, #0
20000772:	1c1c      	adds	r4, r3, #0
20000774:	e7a2      	b.n	200006bc <_ZN12ComputerCard13CalcCalCoeffsEi+0x3d0>
20000776:	46c0      	nop			@ (mov r8, r8)
20000778:	3faaaaab 	.word	0x3faaaaab

2000077c <_ZN12ComputerCard10ReadEEPROMEv>:
2000077c:	b5f0      	push	{r4, r5, r6, r7, lr}
2000077e:	4645      	mov	r5, r8
20000780:	4657      	mov	r7, sl
20000782:	464e      	mov	r6, r9
20000784:	46de      	mov	lr, fp
20000786:	0003      	movs	r3, r0
20000788:	b5e0      	push	{r5, r6, r7, lr}
2000078a:	3324      	adds	r3, #36	@ 0x24
2000078c:	b0a1      	sub	sp, #132	@ 0x84
2000078e:	0002      	movs	r2, r0
20000790:	9305      	str	r3, [sp, #20]
20000792:	2303      	movs	r3, #3
20000794:	3228      	adds	r2, #40	@ 0x28
20000796:	0014      	movs	r4, r2
20000798:	2500      	movs	r5, #0
2000079a:	4698      	mov	r8, r3
2000079c:	27ec      	movs	r7, #236	@ 0xec
2000079e:	4eca      	ldr	r6, [pc, #808]	@ (20000ac8 <_ZN12ComputerCard10ReadEEPROMEv+0x34c>)
200007a0:	9006      	str	r0, [sp, #24]
200007a2:	9207      	str	r2, [sp, #28]
200007a4:	4642      	mov	r2, r8
200007a6:	9b05      	ldr	r3, [sp, #20]
200007a8:	0029      	movs	r1, r5
200007aa:	555a      	strb	r2, [r3, r5]
200007ac:	2300      	movs	r3, #0
200007ae:	7323      	strb	r3, [r4, #12]
200007b0:	4bc6      	ldr	r3, [pc, #792]	@ (20000acc <_ZN12ComputerCard10ReadEEPROMEv+0x350>)
200007b2:	7127      	strb	r7, [r4, #4]
200007b4:	60a3      	str	r3, [r4, #8]
200007b6:	2314      	movs	r3, #20
200007b8:	7523      	strb	r3, [r4, #20]
200007ba:	4bc5      	ldr	r3, [pc, #788]	@ (20000ad0 <_ZN12ComputerCard10ReadEEPROMEv+0x354>)
200007bc:	6026      	str	r6, [r4, #0]
200007be:	6123      	str	r3, [r4, #16]
200007c0:	9806      	ldr	r0, [sp, #24]
200007c2:	f7ff fd93 	bl	200002ec <_ZN12ComputerCard13CalcCalCoeffsEi>
200007c6:	1c6b      	adds	r3, r5, #1
200007c8:	3450      	adds	r4, #80	@ 0x50
200007ca:	2501      	movs	r5, #1
200007cc:	2b02      	cmp	r3, #2
200007ce:	d1e9      	bne.n	200007a4 <_ZN12ComputerCard10ReadEEPROMEv+0x28>
200007d0:	3313      	adds	r3, #19
200007d2:	aa04      	add	r2, sp, #16
200007d4:	1899      	adds	r1, r3, r2
200007d6:	2000      	movs	r0, #0
200007d8:	f7ff fcd2 	bl	20000180 <_ZN12ComputerCard18ReadByteFromEEPROMEjRb.constprop.0>
200007dc:	2315      	movs	r3, #21
200007de:	aa04      	add	r2, sp, #16
200007e0:	1899      	adds	r1, r3, r2
200007e2:	0204      	lsls	r4, r0, #8
200007e4:	2001      	movs	r0, #1
200007e6:	f7ff fccb 	bl	20000180 <_ZN12ComputerCard18ReadByteFromEEPROMEjRb.constprop.0>
200007ea:	4bba      	ldr	r3, [pc, #744]	@ (20000ad4 <_ZN12ComputerCard10ReadEEPROMEv+0x358>)
200007ec:	4304      	orrs	r4, r0
200007ee:	429c      	cmp	r4, r3
200007f0:	d000      	beq.n	200007f4 <_ZN12ComputerCard10ReadEEPROMEv+0x78>
200007f2:	e160      	b.n	20000ab6 <_ZN12ComputerCard10ReadEEPROMEv+0x33a>
200007f4:	2316      	movs	r3, #22
200007f6:	aa04      	add	r2, sp, #16
200007f8:	189b      	adds	r3, r3, r2
200007fa:	469a      	mov	sl, r3
200007fc:	2317      	movs	r3, #23
200007fe:	189b      	adds	r3, r3, r2
20000800:	4698      	mov	r8, r3
20000802:	4bb5      	ldr	r3, [pc, #724]	@ (20000ad8 <_ZN12ComputerCard10ReadEEPROMEv+0x35c>)
20000804:	2400      	movs	r4, #0
20000806:	469b      	mov	fp, r3
20000808:	23ff      	movs	r3, #255	@ 0xff
2000080a:	2700      	movs	r7, #0
2000080c:	4699      	mov	r9, r3
2000080e:	4eb3      	ldr	r6, [pc, #716]	@ (20000adc <_ZN12ComputerCard10ReadEEPROMEv+0x360>)
20000810:	ad0a      	add	r5, sp, #40	@ 0x28
20000812:	e01b      	b.n	2000084c <_ZN12ComputerCard10ReadEEPROMEv+0xd0>
20000814:	f002 fc70 	bl	200030f8 <time_us_64>
20000818:	1980      	adds	r0, r0, r6
2000081a:	4179      	adcs	r1, r7
2000081c:	2900      	cmp	r1, #0
2000081e:	da02      	bge.n	20000826 <_ZN12ComputerCard10ReadEEPROMEv+0xaa>
20000820:	2001      	movs	r0, #1
20000822:	49af      	ldr	r1, [pc, #700]	@ (20000ae0 <_ZN12ComputerCard10ReadEEPROMEv+0x364>)
20000824:	4240      	negs	r0, r0
20000826:	2300      	movs	r3, #0
20000828:	9002      	str	r0, [sp, #8]
2000082a:	9103      	str	r1, [sp, #12]
2000082c:	9300      	str	r3, [sp, #0]
2000082e:	4652      	mov	r2, sl
20000830:	2150      	movs	r1, #80	@ 0x50
20000832:	4658      	mov	r0, fp
20000834:	3301      	adds	r3, #1
20000836:	f005 fdb1 	bl	2000639c <i2c_read_blocking_until>
2000083a:	2800      	cmp	r0, #0
2000083c:	dd20      	ble.n	20000880 <_ZN12ComputerCard10ReadEEPROMEv+0x104>
2000083e:	4653      	mov	r3, sl
20000840:	781b      	ldrb	r3, [r3, #0]
20000842:	3401      	adds	r4, #1
20000844:	702b      	strb	r3, [r5, #0]
20000846:	3501      	adds	r5, #1
20000848:	2c58      	cmp	r4, #88	@ 0x58
2000084a:	d01f      	beq.n	2000088c <_ZN12ComputerCard10ReadEEPROMEv+0x110>
2000084c:	4653      	mov	r3, sl
2000084e:	464a      	mov	r2, r9
20000850:	701a      	strb	r2, [r3, #0]
20000852:	4643      	mov	r3, r8
20000854:	701c      	strb	r4, [r3, #0]
20000856:	f002 fc4f 	bl	200030f8 <time_us_64>
2000085a:	1980      	adds	r0, r0, r6
2000085c:	4179      	adcs	r1, r7
2000085e:	2900      	cmp	r1, #0
20000860:	da02      	bge.n	20000868 <_ZN12ComputerCard10ReadEEPROMEv+0xec>
20000862:	2001      	movs	r0, #1
20000864:	499e      	ldr	r1, [pc, #632]	@ (20000ae0 <_ZN12ComputerCard10ReadEEPROMEv+0x364>)
20000866:	4240      	negs	r0, r0
20000868:	2300      	movs	r3, #0
2000086a:	9002      	str	r0, [sp, #8]
2000086c:	9103      	str	r1, [sp, #12]
2000086e:	9300      	str	r3, [sp, #0]
20000870:	4642      	mov	r2, r8
20000872:	2150      	movs	r1, #80	@ 0x50
20000874:	4658      	mov	r0, fp
20000876:	3301      	adds	r3, #1
20000878:	f005 fd70 	bl	2000635c <i2c_write_blocking_until>
2000087c:	2800      	cmp	r0, #0
2000087e:	dcc9      	bgt.n	20000814 <_ZN12ComputerCard10ReadEEPROMEv+0x98>
20000880:	2300      	movs	r3, #0
20000882:	3401      	adds	r4, #1
20000884:	702b      	strb	r3, [r5, #0]
20000886:	3501      	adds	r5, #1
20000888:	2c58      	cmp	r4, #88	@ 0x58
2000088a:	d1df      	bne.n	2000084c <_ZN12ComputerCard10ReadEEPROMEv+0xd0>
2000088c:	a80a      	add	r0, sp, #40	@ 0x28
2000088e:	4b95      	ldr	r3, [pc, #596]	@ (20000ae4 <_ZN12ComputerCard10ReadEEPROMEv+0x368>)
20000890:	4995      	ldr	r1, [pc, #596]	@ (20000ae8 <_ZN12ComputerCard10ReadEEPROMEv+0x36c>)
20000892:	3056      	adds	r0, #86	@ 0x56
20000894:	aa0a      	add	r2, sp, #40	@ 0x28
20000896:	e020      	b.n	200008da <_ZN12ComputerCard10ReadEEPROMEv+0x15e>
20000898:	005b      	lsls	r3, r3, #1
2000089a:	b21c      	sxth	r4, r3
2000089c:	2c00      	cmp	r4, #0
2000089e:	db27      	blt.n	200008f0 <_ZN12ComputerCard10ReadEEPROMEv+0x174>
200008a0:	005c      	lsls	r4, r3, #1
200008a2:	b223      	sxth	r3, r4
200008a4:	2b00      	cmp	r3, #0
200008a6:	db28      	blt.n	200008fa <_ZN12ComputerCard10ReadEEPROMEv+0x17e>
200008a8:	0064      	lsls	r4, r4, #1
200008aa:	b223      	sxth	r3, r4
200008ac:	2b00      	cmp	r3, #0
200008ae:	db29      	blt.n	20000904 <_ZN12ComputerCard10ReadEEPROMEv+0x188>
200008b0:	0064      	lsls	r4, r4, #1
200008b2:	b223      	sxth	r3, r4
200008b4:	2b00      	cmp	r3, #0
200008b6:	db2a      	blt.n	2000090e <_ZN12ComputerCard10ReadEEPROMEv+0x192>
200008b8:	0064      	lsls	r4, r4, #1
200008ba:	b223      	sxth	r3, r4
200008bc:	2b00      	cmp	r3, #0
200008be:	db2b      	blt.n	20000918 <_ZN12ComputerCard10ReadEEPROMEv+0x19c>
200008c0:	0064      	lsls	r4, r4, #1
200008c2:	b223      	sxth	r3, r4
200008c4:	2b00      	cmp	r3, #0
200008c6:	db2c      	blt.n	20000922 <_ZN12ComputerCard10ReadEEPROMEv+0x1a6>
200008c8:	0064      	lsls	r4, r4, #1
200008ca:	b223      	sxth	r3, r4
200008cc:	2b00      	cmp	r3, #0
200008ce:	db2d      	blt.n	2000092c <_ZN12ComputerCard10ReadEEPROMEv+0x1b0>
200008d0:	0063      	lsls	r3, r4, #1
200008d2:	3201      	adds	r2, #1
200008d4:	b29b      	uxth	r3, r3
200008d6:	4290      	cmp	r0, r2
200008d8:	d02e      	beq.n	20000938 <_ZN12ComputerCard10ReadEEPROMEv+0x1bc>
200008da:	7814      	ldrb	r4, [r2, #0]
200008dc:	0224      	lsls	r4, r4, #8
200008de:	4063      	eors	r3, r4
200008e0:	b21c      	sxth	r4, r3
200008e2:	2c00      	cmp	r4, #0
200008e4:	dad8      	bge.n	20000898 <_ZN12ComputerCard10ReadEEPROMEv+0x11c>
200008e6:	0064      	lsls	r4, r4, #1
200008e8:	404c      	eors	r4, r1
200008ea:	b224      	sxth	r4, r4
200008ec:	1e23      	subs	r3, r4, #0
200008ee:	dad7      	bge.n	200008a0 <_ZN12ComputerCard10ReadEEPROMEv+0x124>
200008f0:	0064      	lsls	r4, r4, #1
200008f2:	404c      	eors	r4, r1
200008f4:	b223      	sxth	r3, r4
200008f6:	1e1c      	subs	r4, r3, #0
200008f8:	dad6      	bge.n	200008a8 <_ZN12ComputerCard10ReadEEPROMEv+0x12c>
200008fa:	005b      	lsls	r3, r3, #1
200008fc:	404b      	eors	r3, r1
200008fe:	b21b      	sxth	r3, r3
20000900:	1e1c      	subs	r4, r3, #0
20000902:	dad5      	bge.n	200008b0 <_ZN12ComputerCard10ReadEEPROMEv+0x134>
20000904:	005b      	lsls	r3, r3, #1
20000906:	404b      	eors	r3, r1
20000908:	b21b      	sxth	r3, r3
2000090a:	1e1c      	subs	r4, r3, #0
2000090c:	dad4      	bge.n	200008b8 <_ZN12ComputerCard10ReadEEPROMEv+0x13c>
2000090e:	005b      	lsls	r3, r3, #1
20000910:	404b      	eors	r3, r1
20000912:	b21b      	sxth	r3, r3
20000914:	1e1c      	subs	r4, r3, #0
20000916:	dad3      	bge.n	200008c0 <_ZN12ComputerCard10ReadEEPROMEv+0x144>
20000918:	005b      	lsls	r3, r3, #1
2000091a:	404b      	eors	r3, r1
2000091c:	b21b      	sxth	r3, r3
2000091e:	1e1c      	subs	r4, r3, #0
20000920:	dad2      	bge.n	200008c8 <_ZN12ComputerCard10ReadEEPROMEv+0x14c>
20000922:	005b      	lsls	r3, r3, #1
20000924:	404b      	eors	r3, r1
20000926:	b21b      	sxth	r3, r3
20000928:	1e1c      	subs	r4, r3, #0
2000092a:	dad1      	bge.n	200008d0 <_ZN12ComputerCard10ReadEEPROMEv+0x154>
2000092c:	005b      	lsls	r3, r3, #1
2000092e:	404b      	eors	r3, r1
20000930:	3201      	adds	r2, #1
20000932:	b29b      	uxth	r3, r3
20000934:	4290      	cmp	r0, r2
20000936:	d1d0      	bne.n	200008da <_ZN12ComputerCard10ReadEEPROMEv+0x15e>
20000938:	2256      	movs	r2, #86	@ 0x56
2000093a:	a904      	add	r1, sp, #16
2000093c:	3118      	adds	r1, #24
2000093e:	5a8a      	ldrh	r2, [r1, r2]
20000940:	ba52      	rev16	r2, r2
20000942:	b292      	uxth	r2, r2
20000944:	429a      	cmp	r2, r3
20000946:	d000      	beq.n	2000094a <_ZN12ComputerCard10ReadEEPROMEv+0x1ce>
20000948:	e0b5      	b.n	20000ab6 <_ZN12ComputerCard10ReadEEPROMEv+0x33a>
2000094a:	2600      	movs	r6, #0
2000094c:	2724      	movs	r7, #36	@ 0x24
2000094e:	9d07      	ldr	r5, [sp, #28]
20000950:	46b0      	mov	r8, r6
20000952:	ac0b      	add	r4, sp, #44	@ 0x2c
20000954:	ae13      	add	r6, sp, #76	@ 0x4c
20000956:	4641      	mov	r1, r8
20000958:	7823      	ldrb	r3, [r4, #0]
2000095a:	9a05      	ldr	r2, [sp, #20]
2000095c:	5453      	strb	r3, [r2, r1]
2000095e:	2b00      	cmp	r3, #0
20000960:	d100      	bne.n	20000964 <_ZN12ComputerCard10ReadEEPROMEv+0x1e8>
20000962:	e099      	b.n	20000a98 <_ZN12ComputerCard10ReadEEPROMEv+0x31c>
20000964:	78a2      	ldrb	r2, [r4, #2]
20000966:	78e1      	ldrb	r1, [r4, #3]
20000968:	0612      	lsls	r2, r2, #24
2000096a:	0409      	lsls	r1, r1, #16
2000096c:	430a      	orrs	r2, r1
2000096e:	7961      	ldrb	r1, [r4, #5]
20000970:	430a      	orrs	r2, r1
20000972:	7921      	ldrb	r1, [r4, #4]
20000974:	0209      	lsls	r1, r1, #8
20000976:	430a      	orrs	r2, r1
20000978:	7861      	ldrb	r1, [r4, #1]
2000097a:	602a      	str	r2, [r5, #0]
2000097c:	7129      	strb	r1, [r5, #4]
2000097e:	2b01      	cmp	r3, #1
20000980:	d100      	bne.n	20000984 <_ZN12ComputerCard10ReadEEPROMEv+0x208>
20000982:	e089      	b.n	20000a98 <_ZN12ComputerCard10ReadEEPROMEv+0x31c>
20000984:	79e2      	ldrb	r2, [r4, #7]
20000986:	7a21      	ldrb	r1, [r4, #8]
20000988:	0612      	lsls	r2, r2, #24
2000098a:	0409      	lsls	r1, r1, #16
2000098c:	430a      	orrs	r2, r1
2000098e:	7aa1      	ldrb	r1, [r4, #10]
20000990:	430a      	orrs	r2, r1
20000992:	7a61      	ldrb	r1, [r4, #9]
20000994:	0209      	lsls	r1, r1, #8
20000996:	430a      	orrs	r2, r1
20000998:	79a1      	ldrb	r1, [r4, #6]
2000099a:	60aa      	str	r2, [r5, #8]
2000099c:	7329      	strb	r1, [r5, #12]
2000099e:	2b02      	cmp	r3, #2
200009a0:	d07a      	beq.n	20000a98 <_ZN12ComputerCard10ReadEEPROMEv+0x31c>
200009a2:	7b22      	ldrb	r2, [r4, #12]
200009a4:	7b61      	ldrb	r1, [r4, #13]
200009a6:	0612      	lsls	r2, r2, #24
200009a8:	0409      	lsls	r1, r1, #16
200009aa:	430a      	orrs	r2, r1
200009ac:	7be1      	ldrb	r1, [r4, #15]
200009ae:	430a      	orrs	r2, r1
200009b0:	7ba1      	ldrb	r1, [r4, #14]
200009b2:	0209      	lsls	r1, r1, #8
200009b4:	430a      	orrs	r2, r1
200009b6:	7ae1      	ldrb	r1, [r4, #11]
200009b8:	612a      	str	r2, [r5, #16]
200009ba:	7529      	strb	r1, [r5, #20]
200009bc:	2b03      	cmp	r3, #3
200009be:	d06b      	beq.n	20000a98 <_ZN12ComputerCard10ReadEEPROMEv+0x31c>
200009c0:	7c62      	ldrb	r2, [r4, #17]
200009c2:	7ca1      	ldrb	r1, [r4, #18]
200009c4:	0612      	lsls	r2, r2, #24
200009c6:	0409      	lsls	r1, r1, #16
200009c8:	430a      	orrs	r2, r1
200009ca:	7d21      	ldrb	r1, [r4, #20]
200009cc:	430a      	orrs	r2, r1
200009ce:	7ce1      	ldrb	r1, [r4, #19]
200009d0:	0209      	lsls	r1, r1, #8
200009d2:	430a      	orrs	r2, r1
200009d4:	7c21      	ldrb	r1, [r4, #16]
200009d6:	61aa      	str	r2, [r5, #24]
200009d8:	7729      	strb	r1, [r5, #28]
200009da:	2b04      	cmp	r3, #4
200009dc:	d05c      	beq.n	20000a98 <_ZN12ComputerCard10ReadEEPROMEv+0x31c>
200009de:	7da2      	ldrb	r2, [r4, #22]
200009e0:	7de1      	ldrb	r1, [r4, #23]
200009e2:	0612      	lsls	r2, r2, #24
200009e4:	0409      	lsls	r1, r1, #16
200009e6:	430a      	orrs	r2, r1
200009e8:	7e61      	ldrb	r1, [r4, #25]
200009ea:	430a      	orrs	r2, r1
200009ec:	7e21      	ldrb	r1, [r4, #24]
200009ee:	0209      	lsls	r1, r1, #8
200009f0:	430a      	orrs	r2, r1
200009f2:	7d61      	ldrb	r1, [r4, #21]
200009f4:	55e9      	strb	r1, [r5, r7]
200009f6:	622a      	str	r2, [r5, #32]
200009f8:	2b05      	cmp	r3, #5
200009fa:	d04d      	beq.n	20000a98 <_ZN12ComputerCard10ReadEEPROMEv+0x31c>
200009fc:	7ee2      	ldrb	r2, [r4, #27]
200009fe:	7f21      	ldrb	r1, [r4, #28]
20000a00:	0612      	lsls	r2, r2, #24
20000a02:	0409      	lsls	r1, r1, #16
20000a04:	430a      	orrs	r2, r1
20000a06:	7fa1      	ldrb	r1, [r4, #30]
20000a08:	7ea0      	ldrb	r0, [r4, #26]
20000a0a:	430a      	orrs	r2, r1
20000a0c:	7f61      	ldrb	r1, [r4, #29]
20000a0e:	0209      	lsls	r1, r1, #8
20000a10:	430a      	orrs	r2, r1
20000a12:	212c      	movs	r1, #44	@ 0x2c
20000a14:	5468      	strb	r0, [r5, r1]
20000a16:	62aa      	str	r2, [r5, #40]	@ 0x28
20000a18:	2b06      	cmp	r3, #6
20000a1a:	d03d      	beq.n	20000a98 <_ZN12ComputerCard10ReadEEPROMEv+0x31c>
20000a1c:	7832      	ldrb	r2, [r6, #0]
20000a1e:	7871      	ldrb	r1, [r6, #1]
20000a20:	0612      	lsls	r2, r2, #24
20000a22:	0409      	lsls	r1, r1, #16
20000a24:	430a      	orrs	r2, r1
20000a26:	78f1      	ldrb	r1, [r6, #3]
20000a28:	7fe0      	ldrb	r0, [r4, #31]
20000a2a:	430a      	orrs	r2, r1
20000a2c:	78b1      	ldrb	r1, [r6, #2]
20000a2e:	0209      	lsls	r1, r1, #8
20000a30:	430a      	orrs	r2, r1
20000a32:	2134      	movs	r1, #52	@ 0x34
20000a34:	5468      	strb	r0, [r5, r1]
20000a36:	632a      	str	r2, [r5, #48]	@ 0x30
20000a38:	2b07      	cmp	r3, #7
20000a3a:	d02d      	beq.n	20000a98 <_ZN12ComputerCard10ReadEEPROMEv+0x31c>
20000a3c:	7972      	ldrb	r2, [r6, #5]
20000a3e:	79b1      	ldrb	r1, [r6, #6]
20000a40:	0612      	lsls	r2, r2, #24
20000a42:	0409      	lsls	r1, r1, #16
20000a44:	430a      	orrs	r2, r1
20000a46:	7a31      	ldrb	r1, [r6, #8]
20000a48:	7930      	ldrb	r0, [r6, #4]
20000a4a:	430a      	orrs	r2, r1
20000a4c:	79f1      	ldrb	r1, [r6, #7]
20000a4e:	0209      	lsls	r1, r1, #8
20000a50:	430a      	orrs	r2, r1
20000a52:	213c      	movs	r1, #60	@ 0x3c
20000a54:	5468      	strb	r0, [r5, r1]
20000a56:	63aa      	str	r2, [r5, #56]	@ 0x38
20000a58:	2b08      	cmp	r3, #8
20000a5a:	d01d      	beq.n	20000a98 <_ZN12ComputerCard10ReadEEPROMEv+0x31c>
20000a5c:	7ab2      	ldrb	r2, [r6, #10]
20000a5e:	7af1      	ldrb	r1, [r6, #11]
20000a60:	0612      	lsls	r2, r2, #24
20000a62:	0409      	lsls	r1, r1, #16
20000a64:	430a      	orrs	r2, r1
20000a66:	7b71      	ldrb	r1, [r6, #13]
20000a68:	7a70      	ldrb	r0, [r6, #9]
20000a6a:	430a      	orrs	r2, r1
20000a6c:	7b31      	ldrb	r1, [r6, #12]
20000a6e:	0209      	lsls	r1, r1, #8
20000a70:	430a      	orrs	r2, r1
20000a72:	2144      	movs	r1, #68	@ 0x44
20000a74:	5468      	strb	r0, [r5, r1]
20000a76:	642a      	str	r2, [r5, #64]	@ 0x40
20000a78:	2b09      	cmp	r3, #9
20000a7a:	d00d      	beq.n	20000a98 <_ZN12ComputerCard10ReadEEPROMEv+0x31c>
20000a7c:	7bf3      	ldrb	r3, [r6, #15]
20000a7e:	7c32      	ldrb	r2, [r6, #16]
20000a80:	061b      	lsls	r3, r3, #24
20000a82:	0412      	lsls	r2, r2, #16
20000a84:	4313      	orrs	r3, r2
20000a86:	7cb2      	ldrb	r2, [r6, #18]
20000a88:	7bb1      	ldrb	r1, [r6, #14]
20000a8a:	4313      	orrs	r3, r2
20000a8c:	7c72      	ldrb	r2, [r6, #17]
20000a8e:	0212      	lsls	r2, r2, #8
20000a90:	4313      	orrs	r3, r2
20000a92:	224c      	movs	r2, #76	@ 0x4c
20000a94:	54a9      	strb	r1, [r5, r2]
20000a96:	64ab      	str	r3, [r5, #72]	@ 0x48
20000a98:	4641      	mov	r1, r8
20000a9a:	9806      	ldr	r0, [sp, #24]
20000a9c:	f7ff fc26 	bl	200002ec <_ZN12ComputerCard13CalcCalCoeffsEi>
20000aa0:	4643      	mov	r3, r8
20000aa2:	2201      	movs	r2, #1
20000aa4:	3429      	adds	r4, #41	@ 0x29
20000aa6:	4690      	mov	r8, r2
20000aa8:	3550      	adds	r5, #80	@ 0x50
20000aaa:	3629      	adds	r6, #41	@ 0x29
20000aac:	2b01      	cmp	r3, #1
20000aae:	d000      	beq.n	20000ab2 <_ZN12ComputerCard10ReadEEPROMEv+0x336>
20000ab0:	e751      	b.n	20000956 <_ZN12ComputerCard10ReadEEPROMEv+0x1da>
20000ab2:	2000      	movs	r0, #0
20000ab4:	e000      	b.n	20000ab8 <_ZN12ComputerCard10ReadEEPROMEv+0x33c>
20000ab6:	2001      	movs	r0, #1
20000ab8:	b021      	add	sp, #132	@ 0x84
20000aba:	bcf0      	pop	{r4, r5, r6, r7}
20000abc:	46bb      	mov	fp, r7
20000abe:	46b2      	mov	sl, r6
20000ac0:	46a9      	mov	r9, r5
20000ac2:	46a0      	mov	r8, r4
20000ac4:	bdf0      	pop	{r4, r5, r6, r7, pc}
20000ac6:	46c0      	nop			@ (mov r8, r8)
20000ac8:	00054e34 	.word	0x00054e34
20000acc:	0003fc50 	.word	0x0003fc50
20000ad0:	0002a940 	.word	0x0002a940
20000ad4:	000007d1 	.word	0x000007d1
20000ad8:	20007f20 	.word	0x20007f20
20000adc:	00002710 	.word	0x00002710
20000ae0:	7fffffff 	.word	0x7fffffff
20000ae4:	0000ffff 	.word	0x0000ffff
20000ae8:	00001021 	.word	0x00001021

20000aec <_ZN12ComputerCardC1Ev>:
20000aec:	b5f8      	push	{r3, r4, r5, r6, r7, lr}
20000aee:	46ce      	mov	lr, r9
20000af0:	4647      	mov	r7, r8
20000af2:	2500      	movs	r5, #0
20000af4:	b580      	push	{r7, lr}
20000af6:	0007      	movs	r7, r0
20000af8:	4bee      	ldr	r3, [pc, #952]	@ (20000eb4 <_ZN12ComputerCardC1Ev+0x3c8>)
20000afa:	2210      	movs	r2, #16
20000afc:	6003      	str	r3, [r0, #0]
20000afe:	2100      	movs	r1, #0
20000b00:	6105      	str	r5, [r0, #16]
20000b02:	60c5      	str	r5, [r0, #12]
20000b04:	6085      	str	r5, [r0, #8]
20000b06:	6045      	str	r5, [r0, #4]
20000b08:	6205      	str	r5, [r0, #32]
20000b0a:	61c5      	str	r5, [r0, #28]
20000b0c:	6185      	str	r5, [r0, #24]
20000b0e:	6145      	str	r5, [r0, #20]
20000b10:	30f8      	adds	r0, #248	@ 0xf8
20000b12:	f003 f9d9 	bl	20003ec8 <__wrap_memset>
20000b16:	2384      	movs	r3, #132	@ 0x84
20000b18:	0038      	movs	r0, r7
20000b1a:	005b      	lsls	r3, r3, #1
20000b1c:	52fd      	strh	r5, [r7, r3]
20000b1e:	300d      	adds	r0, #13
20000b20:	3302      	adds	r3, #2
20000b22:	2208      	movs	r2, #8
20000b24:	2100      	movs	r1, #0
20000b26:	52fd      	strh	r5, [r7, r3]
20000b28:	30ff      	adds	r0, #255	@ 0xff
20000b2a:	f003 f9cd 	bl	20003ec8 <__wrap_memset>
20000b2e:	2380      	movs	r3, #128	@ 0x80
20000b30:	228a      	movs	r2, #138	@ 0x8a
20000b32:	011b      	lsls	r3, r3, #4
20000b34:	0052      	lsls	r2, r2, #1
20000b36:	52bb      	strh	r3, [r7, r2]
20000b38:	3202      	adds	r2, #2
20000b3a:	52bb      	strh	r3, [r7, r2]
20000b3c:	0038      	movs	r0, r7
20000b3e:	238c      	movs	r3, #140	@ 0x8c
20000b40:	2400      	movs	r4, #0
20000b42:	005b      	lsls	r3, r3, #1
20000b44:	301d      	adds	r0, #29
20000b46:	54fc      	strb	r4, [r7, r3]
20000b48:	2100      	movs	r1, #0
20000b4a:	3afe      	subs	r2, #254	@ 0xfe
20000b4c:	30ff      	adds	r0, #255	@ 0xff
20000b4e:	f003 f9bb 	bl	20003ec8 <__wrap_memset>
20000b52:	0038      	movs	r0, r7
20000b54:	3035      	adds	r0, #53	@ 0x35
20000b56:	2206      	movs	r2, #6
20000b58:	2100      	movs	r1, #0
20000b5a:	30ff      	adds	r0, #255	@ 0xff
20000b5c:	f003 f9b4 	bl	20003ec8 <__wrap_memset>
20000b60:	23b5      	movs	r3, #181	@ 0xb5
20000b62:	005b      	lsls	r3, r3, #1
20000b64:	54fc      	strb	r4, [r7, r3]
20000b66:	233e      	movs	r3, #62	@ 0x3e
20000b68:	2208      	movs	r2, #8
20000b6a:	33ff      	adds	r3, #255	@ 0xff
20000b6c:	54fc      	strb	r4, [r7, r3]
20000b6e:	4bd2      	ldr	r3, [pc, #840]	@ (20000eb8 <_ZN12ComputerCardC1Ev+0x3cc>)
20000b70:	2601      	movs	r6, #1
20000b72:	601a      	str	r2, [r3, #0]
20000b74:	22e0      	movs	r2, #224	@ 0xe0
20000b76:	4bd1      	ldr	r3, [pc, #836]	@ (20000ebc <_ZN12ComputerCardC1Ev+0x3d0>)
20000b78:	01d2      	lsls	r2, r2, #7
20000b7a:	681b      	ldr	r3, [r3, #0]
20000b7c:	4013      	ands	r3, r2
20000b7e:	4ad0      	ldr	r2, [pc, #832]	@ (20000ec0 <_ZN12ComputerCardC1Ev+0x3d4>)
20000b80:	6013      	str	r3, [r2, #0]
20000b82:	239d      	movs	r3, #157	@ 0x9d
20000b84:	005b      	lsls	r3, r3, #1
20000b86:	54fc      	strb	r4, [r7, r3]
20000b88:	3b06      	subs	r3, #6
20000b8a:	54fc      	strb	r4, [r7, r3]
20000b8c:	2336      	movs	r3, #54	@ 0x36
20000b8e:	33ff      	adds	r3, #255	@ 0xff
20000b90:	54fc      	strb	r4, [r7, r3]
20000b92:	3301      	adds	r3, #1
20000b94:	54fc      	strb	r4, [r7, r3]
20000b96:	2338      	movs	r3, #56	@ 0x38
20000b98:	33ff      	adds	r3, #255	@ 0xff
20000b9a:	54fc      	strb	r4, [r7, r3]
20000b9c:	3301      	adds	r3, #1
20000b9e:	54fc      	strb	r4, [r7, r3]
20000ba0:	233a      	movs	r3, #58	@ 0x3a
20000ba2:	33ff      	adds	r3, #255	@ 0xff
20000ba4:	54fc      	strb	r4, [r7, r3]
20000ba6:	4bc7      	ldr	r3, [pc, #796]	@ (20000ec4 <_ZN12ComputerCardC1Ev+0x3d8>)
20000ba8:	4cc7      	ldr	r4, [pc, #796]	@ (20000ec8 <_ZN12ComputerCardC1Ev+0x3dc>)
20000baa:	4698      	mov	r8, r3
20000bac:	7823      	ldrb	r3, [r4, #0]
20000bae:	2104      	movs	r1, #4
20000bb0:	4699      	mov	r9, r3
20000bb2:	0018      	movs	r0, r3
20000bb4:	f001 faea 	bl	2000218c <gpio_set_function>
20000bb8:	464b      	mov	r3, r9
20000bba:	2104      	movs	r1, #4
20000bbc:	1c58      	adds	r0, r3, #1
20000bbe:	f001 fae5 	bl	2000218c <gpio_set_function>
20000bc2:	464b      	mov	r3, r9
20000bc4:	464a      	mov	r2, r9
20000bc6:	085b      	lsrs	r3, r3, #1
20000bc8:	2a1f      	cmp	r2, #31
20000bca:	d900      	bls.n	20000bce <_ZN12ComputerCardC1Ev+0xe2>
20000bcc:	e1aa      	b.n	20000f24 <_ZN12ComputerCardC1Ev+0x438>
20000bce:	2207      	movs	r2, #7
20000bd0:	401a      	ands	r2, r3
20000bd2:	0093      	lsls	r3, r2, #2
20000bd4:	189b      	adds	r3, r3, r2
20000bd6:	49bd      	ldr	r1, [pc, #756]	@ (20000ecc <_ZN12ComputerCardC1Ev+0x3e0>)
20000bd8:	4abd      	ldr	r2, [pc, #756]	@ (20000ed0 <_ZN12ComputerCardC1Ev+0x3e4>)
20000bda:	009b      	lsls	r3, r3, #2
20000bdc:	189a      	adds	r2, r3, r2
20000bde:	1859      	adds	r1, r3, r1
20000be0:	6015      	str	r5, [r2, #0]
20000be2:	600d      	str	r5, [r1, #0]
20000be4:	49bb      	ldr	r1, [pc, #748]	@ (20000ed4 <_ZN12ComputerCardC1Ev+0x3e8>)
20000be6:	1859      	adds	r1, r3, r1
20000be8:	600d      	str	r5, [r1, #0]
20000bea:	49bb      	ldr	r1, [pc, #748]	@ (20000ed8 <_ZN12ComputerCardC1Ev+0x3ec>)
20000bec:	185b      	adds	r3, r3, r1
20000bee:	4641      	mov	r1, r8
20000bf0:	6019      	str	r1, [r3, #0]
20000bf2:	2310      	movs	r3, #16
20000bf4:	6053      	str	r3, [r2, #4]
20000bf6:	6016      	str	r6, [r2, #0]
20000bf8:	7823      	ldrb	r3, [r4, #0]
20000bfa:	3301      	adds	r3, #1
20000bfc:	0859      	lsrs	r1, r3, #1
20000bfe:	2b1f      	cmp	r3, #31
20000c00:	dd00      	ble.n	20000c04 <_ZN12ComputerCardC1Ev+0x118>
20000c02:	e18b      	b.n	20000f1c <_ZN12ComputerCardC1Ev+0x430>
20000c04:	2207      	movs	r2, #7
20000c06:	400a      	ands	r2, r1
20000c08:	0093      	lsls	r3, r2, #2
20000c0a:	189b      	adds	r3, r3, r2
20000c0c:	49af      	ldr	r1, [pc, #700]	@ (20000ecc <_ZN12ComputerCardC1Ev+0x3e0>)
20000c0e:	4ab0      	ldr	r2, [pc, #704]	@ (20000ed0 <_ZN12ComputerCardC1Ev+0x3e4>)
20000c10:	009b      	lsls	r3, r3, #2
20000c12:	189a      	adds	r2, r3, r2
20000c14:	1859      	adds	r1, r3, r1
20000c16:	6015      	str	r5, [r2, #0]
20000c18:	600d      	str	r5, [r1, #0]
20000c1a:	49ae      	ldr	r1, [pc, #696]	@ (20000ed4 <_ZN12ComputerCardC1Ev+0x3e8>)
20000c1c:	1859      	adds	r1, r3, r1
20000c1e:	600d      	str	r5, [r1, #0]
20000c20:	49ad      	ldr	r1, [pc, #692]	@ (20000ed8 <_ZN12ComputerCardC1Ev+0x3ec>)
20000c22:	185b      	adds	r3, r3, r1
20000c24:	4641      	mov	r1, r8
20000c26:	6019      	str	r1, [r3, #0]
20000c28:	2310      	movs	r3, #16
20000c2a:	6053      	str	r3, [r2, #4]
20000c2c:	6016      	str	r6, [r2, #0]
20000c2e:	7823      	ldrb	r3, [r4, #0]
20000c30:	085a      	lsrs	r2, r3, #1
20000c32:	2b1f      	cmp	r3, #31
20000c34:	d900      	bls.n	20000c38 <_ZN12ComputerCardC1Ev+0x14c>
20000c36:	e138      	b.n	20000eaa <_ZN12ComputerCardC1Ev+0x3be>
20000c38:	2107      	movs	r1, #7
20000c3a:	4011      	ands	r1, r2
20000c3c:	008a      	lsls	r2, r1, #2
20000c3e:	1852      	adds	r2, r2, r1
20000c40:	49a4      	ldr	r1, [pc, #656]	@ (20000ed4 <_ZN12ComputerCardC1Ev+0x3e8>)
20000c42:	0092      	lsls	r2, r2, #2
20000c44:	1851      	adds	r1, r2, r1
20000c46:	6809      	ldr	r1, [r1, #0]
20000c48:	4640      	mov	r0, r8
20000c4a:	468c      	mov	ip, r1
20000c4c:	0031      	movs	r1, r6
20000c4e:	4019      	ands	r1, r3
20000c50:	4249      	negs	r1, r1
20000c52:	4041      	eors	r1, r0
20000c54:	4660      	mov	r0, ip
20000c56:	4001      	ands	r1, r0
20000c58:	48a0      	ldr	r0, [pc, #640]	@ (20000edc <_ZN12ComputerCardC1Ev+0x3f0>)
20000c5a:	3301      	adds	r3, #1
20000c5c:	1812      	adds	r2, r2, r0
20000c5e:	6011      	str	r1, [r2, #0]
20000c60:	085a      	lsrs	r2, r3, #1
20000c62:	2b1f      	cmp	r3, #31
20000c64:	dd00      	ble.n	20000c68 <_ZN12ComputerCardC1Ev+0x17c>
20000c66:	e11c      	b.n	20000ea2 <_ZN12ComputerCardC1Ev+0x3b6>
20000c68:	2107      	movs	r1, #7
20000c6a:	4011      	ands	r1, r2
20000c6c:	4640      	mov	r0, r8
20000c6e:	008a      	lsls	r2, r1, #2
20000c70:	1852      	adds	r2, r2, r1
20000c72:	4998      	ldr	r1, [pc, #608]	@ (20000ed4 <_ZN12ComputerCardC1Ev+0x3e8>)
20000c74:	0092      	lsls	r2, r2, #2
20000c76:	1851      	adds	r1, r2, r1
20000c78:	4033      	ands	r3, r6
20000c7a:	6809      	ldr	r1, [r1, #0]
20000c7c:	425b      	negs	r3, r3
20000c7e:	4043      	eors	r3, r0
20000c80:	400b      	ands	r3, r1
20000c82:	4996      	ldr	r1, [pc, #600]	@ (20000edc <_ZN12ComputerCardC1Ev+0x3f0>)
20000c84:	3402      	adds	r4, #2
20000c86:	1852      	adds	r2, r2, r1
20000c88:	6013      	str	r3, [r2, #0]
20000c8a:	4b95      	ldr	r3, [pc, #596]	@ (20000ee0 <_ZN12ComputerCardC1Ev+0x3f4>)
20000c8c:	429c      	cmp	r4, r3
20000c8e:	d18d      	bne.n	20000bac <_ZN12ComputerCardC1Ev+0xc0>
20000c90:	f005 f8ce 	bl	20005e30 <adc_init>
20000c94:	211f      	movs	r1, #31
20000c96:	201b      	movs	r0, #27
20000c98:	f001 fa78 	bl	2000218c <gpio_set_function>
20000c9c:	2200      	movs	r2, #0
20000c9e:	2100      	movs	r1, #0
20000ca0:	201b      	movs	r0, #27
20000ca2:	f001 fa8b 	bl	200021bc <gpio_set_pulls>
20000ca6:	2100      	movs	r1, #0
20000ca8:	201b      	movs	r0, #27
20000caa:	f001 fa99 	bl	200021e0 <gpio_set_input_enabled>
20000cae:	211f      	movs	r1, #31
20000cb0:	201a      	movs	r0, #26
20000cb2:	f001 fa6b 	bl	2000218c <gpio_set_function>
20000cb6:	2200      	movs	r2, #0
20000cb8:	2100      	movs	r1, #0
20000cba:	201a      	movs	r0, #26
20000cbc:	f001 fa7e 	bl	200021bc <gpio_set_pulls>
20000cc0:	2100      	movs	r1, #0
20000cc2:	201a      	movs	r0, #26
20000cc4:	f001 fa8c 	bl	200021e0 <gpio_set_input_enabled>
20000cc8:	211f      	movs	r1, #31
20000cca:	201c      	movs	r0, #28
20000ccc:	f001 fa5e 	bl	2000218c <gpio_set_function>
20000cd0:	2200      	movs	r2, #0
20000cd2:	2100      	movs	r1, #0
20000cd4:	201c      	movs	r0, #28
20000cd6:	f001 fa71 	bl	200021bc <gpio_set_pulls>
20000cda:	2100      	movs	r1, #0
20000cdc:	201c      	movs	r0, #28
20000cde:	f001 fa7f 	bl	200021e0 <gpio_set_input_enabled>
20000ce2:	211f      	movs	r1, #31
20000ce4:	201d      	movs	r0, #29
20000ce6:	f001 fa51 	bl	2000218c <gpio_set_function>
20000cea:	2200      	movs	r2, #0
20000cec:	2100      	movs	r1, #0
20000cee:	201d      	movs	r0, #29
20000cf0:	f001 fa64 	bl	200021bc <gpio_set_pulls>
20000cf4:	2100      	movs	r1, #0
20000cf6:	201d      	movs	r0, #29
20000cf8:	f001 fa72 	bl	200021e0 <gpio_set_input_enabled>
20000cfc:	2018      	movs	r0, #24
20000cfe:	f001 fa81 	bl	20002204 <gpio_init>
20000d02:	2019      	movs	r0, #25
20000d04:	f001 fa7e 	bl	20002204 <gpio_init>
20000d08:	24d0      	movs	r4, #208	@ 0xd0
20000d0a:	2380      	movs	r3, #128	@ 0x80
20000d0c:	0624      	lsls	r4, r4, #24
20000d0e:	045b      	lsls	r3, r3, #17
20000d10:	6263      	str	r3, [r4, #36]	@ 0x24
20000d12:	2380      	movs	r3, #128	@ 0x80
20000d14:	049b      	lsls	r3, r3, #18
20000d16:	6263      	str	r3, [r4, #36]	@ 0x24
20000d18:	2008      	movs	r0, #8
20000d1a:	f001 fa73 	bl	20002204 <gpio_init>
20000d1e:	2380      	movs	r3, #128	@ 0x80
20000d20:	005b      	lsls	r3, r3, #1
20000d22:	6263      	str	r3, [r4, #36]	@ 0x24
20000d24:	2009      	movs	r0, #9
20000d26:	6163      	str	r3, [r4, #20]
20000d28:	f001 fa6c 	bl	20002204 <gpio_init>
20000d2c:	2380      	movs	r3, #128	@ 0x80
20000d2e:	009b      	lsls	r3, r3, #2
20000d30:	6263      	str	r3, [r4, #36]	@ 0x24
20000d32:	2002      	movs	r0, #2
20000d34:	6163      	str	r3, [r4, #20]
20000d36:	f001 fa65 	bl	20002204 <gpio_init>
20000d3a:	2304      	movs	r3, #4
20000d3c:	2200      	movs	r2, #0
20000d3e:	62a3      	str	r3, [r4, #40]	@ 0x28
20000d40:	2101      	movs	r1, #1
20000d42:	2002      	movs	r0, #2
20000d44:	f001 fa3a 	bl	200021bc <gpio_set_pulls>
20000d48:	2003      	movs	r0, #3
20000d4a:	f001 fa5b 	bl	20002204 <gpio_init>
20000d4e:	2308      	movs	r3, #8
20000d50:	4d64      	ldr	r5, [pc, #400]	@ (20000ee4 <_ZN12ComputerCardC1Ev+0x3f8>)
20000d52:	62a3      	str	r3, [r4, #40]	@ 0x28
20000d54:	2200      	movs	r2, #0
20000d56:	2101      	movs	r1, #1
20000d58:	2003      	movs	r0, #3
20000d5a:	f001 fa2f 	bl	200021bc <gpio_set_pulls>
20000d5e:	0028      	movs	r0, r5
20000d60:	4961      	ldr	r1, [pc, #388]	@ (20000ee8 <_ZN12ComputerCardC1Ev+0x3fc>)
20000d62:	f005 f8c1 	bl	20005ee8 <spi_init>
20000d66:	2202      	movs	r2, #2
20000d68:	4690      	mov	r8, r2
20000d6a:	4641      	mov	r1, r8
20000d6c:	686b      	ldr	r3, [r5, #4]
20000d6e:	2012      	movs	r0, #18
20000d70:	4013      	ands	r3, r2
20000d72:	4a5e      	ldr	r2, [pc, #376]	@ (20000eec <_ZN12ComputerCardC1Ev+0x400>)
20000d74:	6011      	str	r1, [r2, #0]
20000d76:	220f      	movs	r2, #15
20000d78:	6829      	ldr	r1, [r5, #0]
20000d7a:	2510      	movs	r5, #16
20000d7c:	4051      	eors	r1, r2
20000d7e:	32c0      	adds	r2, #192	@ 0xc0
20000d80:	400a      	ands	r2, r1
20000d82:	495b      	ldr	r1, [pc, #364]	@ (20000ef0 <_ZN12ComputerCardC1Ev+0x404>)
20000d84:	600a      	str	r2, [r1, #0]
20000d86:	4a5b      	ldr	r2, [pc, #364]	@ (20000ef4 <_ZN12ComputerCardC1Ev+0x408>)
20000d88:	2101      	movs	r1, #1
20000d8a:	6013      	str	r3, [r2, #0]
20000d8c:	f001 f9fe 	bl	2000218c <gpio_set_function>
20000d90:	2101      	movs	r1, #1
20000d92:	2013      	movs	r0, #19
20000d94:	f001 f9fa 	bl	2000218c <gpio_set_function>
20000d98:	2101      	movs	r1, #1
20000d9a:	2015      	movs	r0, #21
20000d9c:	f001 f9f6 	bl	2000218c <gpio_set_function>
20000da0:	2104      	movs	r1, #4
20000da2:	2017      	movs	r0, #23
20000da4:	f001 f9f2 	bl	2000218c <gpio_set_function>
20000da8:	2104      	movs	r1, #4
20000daa:	2016      	movs	r0, #22
20000dac:	f001 f9ee 	bl	2000218c <gpio_set_function>
20000db0:	2200      	movs	r2, #0
20000db2:	4b47      	ldr	r3, [pc, #284]	@ (20000ed0 <_ZN12ComputerCardC1Ev+0x3e4>)
20000db4:	4950      	ldr	r1, [pc, #320]	@ (20000ef8 <_ZN12ComputerCardC1Ev+0x40c>)
20000db6:	63da      	str	r2, [r3, #60]	@ 0x3c
20000db8:	645a      	str	r2, [r3, #68]	@ 0x44
20000dba:	649a      	str	r2, [r3, #72]	@ 0x48
20000dbc:	64d9      	str	r1, [r3, #76]	@ 0x4c
20000dbe:	641d      	str	r5, [r3, #64]	@ 0x40
20000dc0:	63de      	str	r6, [r3, #60]	@ 0x3c
20000dc2:	63da      	str	r2, [r3, #60]	@ 0x3c
20000dc4:	645a      	str	r2, [r3, #68]	@ 0x44
20000dc6:	649a      	str	r2, [r3, #72]	@ 0x48
20000dc8:	64d9      	str	r1, [r3, #76]	@ 0x4c
20000dca:	641d      	str	r5, [r3, #64]	@ 0x40
20000dcc:	63de      	str	r6, [r3, #60]	@ 0x3c
20000dce:	23fa      	movs	r3, #250	@ 0xfa
20000dd0:	494a      	ldr	r1, [pc, #296]	@ (20000efc <_ZN12ComputerCardC1Ev+0x410>)
20000dd2:	049b      	lsls	r3, r3, #18
20000dd4:	680a      	ldr	r2, [r1, #0]
20000dd6:	2007      	movs	r0, #7
20000dd8:	4053      	eors	r3, r2
20000dda:	0c1b      	lsrs	r3, r3, #16
20000ddc:	4a48      	ldr	r2, [pc, #288]	@ (20000f00 <_ZN12ComputerCardC1Ev+0x414>)
20000dde:	041b      	lsls	r3, r3, #16
20000de0:	6013      	str	r3, [r2, #0]
20000de2:	23fa      	movs	r3, #250	@ 0xfa
20000de4:	6809      	ldr	r1, [r1, #0]
20000de6:	009b      	lsls	r3, r3, #2
20000de8:	404b      	eors	r3, r1
20000dea:	041b      	lsls	r3, r3, #16
20000dec:	0c1b      	lsrs	r3, r3, #16
20000dee:	6013      	str	r3, [r2, #0]
20000df0:	f001 fa08 	bl	20002204 <gpio_init>
20000df4:	2006      	movs	r0, #6
20000df6:	f001 fa05 	bl	20002204 <gpio_init>
20000dfa:	2005      	movs	r0, #5
20000dfc:	f001 fa02 	bl	20002204 <gpio_init>
20000e00:	2380      	movs	r3, #128	@ 0x80
20000e02:	62a3      	str	r3, [r4, #40]	@ 0x28
20000e04:	3b40      	subs	r3, #64	@ 0x40
20000e06:	62a3      	str	r3, [r4, #40]	@ 0x28
20000e08:	3b20      	subs	r3, #32
20000e0a:	62a3      	str	r3, [r4, #40]	@ 0x28
20000e0c:	2014      	movs	r0, #20
20000e0e:	f001 f9f9 	bl	20002204 <gpio_init>
20000e12:	2200      	movs	r2, #0
20000e14:	2100      	movs	r1, #0
20000e16:	2014      	movs	r0, #20
20000e18:	f001 f9d0 	bl	200021bc <gpio_set_pulls>
20000e1c:	2004      	movs	r0, #4
20000e1e:	f001 f9f1 	bl	20002204 <gpio_init>
20000e22:	6265      	str	r5, [r4, #36]	@ 0x24
20000e24:	4937      	ldr	r1, [pc, #220]	@ (20000f04 <_ZN12ComputerCardC1Ev+0x418>)
20000e26:	61a5      	str	r5, [r4, #24]
20000e28:	4837      	ldr	r0, [pc, #220]	@ (20000f08 <_ZN12ComputerCardC1Ev+0x41c>)
20000e2a:	f005 fa6f 	bl	2000630c <i2c_init>
20000e2e:	2103      	movs	r1, #3
20000e30:	2010      	movs	r0, #16
20000e32:	f001 f9ab 	bl	2000218c <gpio_set_function>
20000e36:	2103      	movs	r1, #3
20000e38:	2011      	movs	r0, #17
20000e3a:	f001 f9a7 	bl	2000218c <gpio_set_function>
20000e3e:	2000      	movs	r0, #0
20000e40:	f001 f9e0 	bl	20002204 <gpio_init>
20000e44:	6266      	str	r6, [r4, #36]	@ 0x24
20000e46:	2001      	movs	r0, #1
20000e48:	f001 f9dc 	bl	20002204 <gpio_init>
20000e4c:	4643      	mov	r3, r8
20000e4e:	0038      	movs	r0, r7
20000e50:	6263      	str	r3, [r4, #36]	@ 0x24
20000e52:	f7ff f9eb 	bl	2000022c <_ZN12ComputerCard20ProbeHardwareVersionEv>
20000e56:	23f0      	movs	r3, #240	@ 0xf0
20000e58:	54f8      	strb	r0, [r7, r3]
20000e5a:	0038      	movs	r0, r7
20000e5c:	f7ff fc8e 	bl	2000077c <_ZN12ComputerCard10ReadEEPROMEv>
20000e60:	239f      	movs	r3, #159	@ 0x9f
20000e62:	4046      	eors	r6, r0
20000e64:	2001      	movs	r0, #1
20000e66:	005b      	lsls	r3, r3, #1
20000e68:	4030      	ands	r0, r6
20000e6a:	54f8      	strb	r0, [r7, r3]
20000e6c:	3b56      	subs	r3, #86	@ 0x56
20000e6e:	4698      	mov	r8, r3
20000e70:	44b8      	add	r8, r7
20000e72:	4640      	mov	r0, r8
20000e74:	f003 f9b2 	bl	200041dc <flash_get_unique_id>
20000e78:	2614      	movs	r6, #20
20000e7a:	4643      	mov	r3, r8
20000e7c:	4c23      	ldr	r4, [pc, #140]	@ (20000f0c <_ZN12ComputerCardC1Ev+0x420>)
20000e7e:	4d24      	ldr	r5, [pc, #144]	@ (20000f10 <_ZN12ComputerCardC1Ev+0x424>)
20000e80:	cb03      	ldmia	r3!, {r0, r1}
20000e82:	4a24      	ldr	r2, [pc, #144]	@ (20000f14 <_ZN12ComputerCardC1Ev+0x428>)
20000e84:	4b24      	ldr	r3, [pc, #144]	@ (20000f18 <_ZN12ComputerCardC1Ev+0x42c>)
20000e86:	f002 fef9 	bl	20003c7c <__wrap___aeabi_lmul>
20000e8a:	3e01      	subs	r6, #1
20000e8c:	1900      	adds	r0, r0, r4
20000e8e:	4169      	adcs	r1, r5
20000e90:	2e00      	cmp	r6, #0
20000e92:	d1f6      	bne.n	20000e82 <_ZN12ComputerCardC1Ev+0x396>
20000e94:	4643      	mov	r3, r8
20000e96:	c303      	stmia	r3!, {r0, r1}
20000e98:	0038      	movs	r0, r7
20000e9a:	bcc0      	pop	{r6, r7}
20000e9c:	46b9      	mov	r9, r7
20000e9e:	46b0      	mov	r8, r6
20000ea0:	bdf8      	pop	{r3, r4, r5, r6, r7, pc}
20000ea2:	2103      	movs	r1, #3
20000ea4:	4011      	ands	r1, r2
20000ea6:	3108      	adds	r1, #8
20000ea8:	e6e0      	b.n	20000c6c <_ZN12ComputerCardC1Ev+0x180>
20000eaa:	2103      	movs	r1, #3
20000eac:	4011      	ands	r1, r2
20000eae:	3108      	adds	r1, #8
20000eb0:	e6c4      	b.n	20000c3c <_ZN12ComputerCardC1Ev+0x150>
20000eb2:	46c0      	nop			@ (mov r8, r8)
20000eb4:	20007c04 	.word	0x20007c04
20000eb8:	4004f000 	.word	0x4004f000
20000ebc:	4004c000 	.word	0x4004c000
20000ec0:	4004d000 	.word	0x4004d000
20000ec4:	0000ffff 	.word	0x0000ffff
20000ec8:	20007ca4 	.word	0x20007ca4
20000ecc:	40050008 	.word	0x40050008
20000ed0:	40050000 	.word	0x40050000
20000ed4:	4005000c 	.word	0x4005000c
20000ed8:	40050010 	.word	0x40050010
20000edc:	4005100c 	.word	0x4005100c
20000ee0:	20007caa 	.word	0x20007caa
20000ee4:	4003c000 	.word	0x4003c000
20000ee8:	00ee6b28 	.word	0x00ee6b28
20000eec:	4003f004 	.word	0x4003f004
20000ef0:	4003d000 	.word	0x4003d000
20000ef4:	4003e004 	.word	0x4003e004
20000ef8:	000007cf 	.word	0x000007cf
20000efc:	40050048 	.word	0x40050048
20000f00:	40051048 	.word	0x40051048
20000f04:	000186a0 	.word	0x000186a0
20000f08:	20007f20 	.word	0x20007f20
20000f0c:	f767814f 	.word	0xf767814f
20000f10:	14057b7e 	.word	0x14057b7e
20000f14:	4c957f2d 	.word	0x4c957f2d
20000f18:	5851f42d 	.word	0x5851f42d
20000f1c:	2203      	movs	r2, #3
20000f1e:	400a      	ands	r2, r1
20000f20:	3208      	adds	r2, #8
20000f22:	e671      	b.n	20000c08 <_ZN12ComputerCardC1Ev+0x11c>
20000f24:	2203      	movs	r2, #3
20000f26:	401a      	ands	r2, r3
20000f28:	3208      	adds	r2, #8
20000f2a:	e652      	b.n	20000bd2 <_ZN12ComputerCardC1Ev+0xe6>

20000f2c <_ZN10WildPebble6MutateEll>:
20000f2c:	b5f8      	push	{r3, r4, r5, r6, r7, lr}
20000f2e:	4647      	mov	r7, r8
20000f30:	46ce      	mov	lr, r9
20000f32:	b580      	push	{r7, lr}
20000f34:	27b4      	movs	r7, #180	@ 0xb4
20000f36:	00bf      	lsls	r7, r7, #2
20000f38:	59c3      	ldr	r3, [r0, r7]
20000f3a:	4691      	mov	r9, r2
20000f3c:	035a      	lsls	r2, r3, #13
20000f3e:	405a      	eors	r2, r3
20000f40:	0c53      	lsrs	r3, r2, #17
20000f42:	4053      	eors	r3, r2
20000f44:	4688      	mov	r8, r1
20000f46:	0159      	lsls	r1, r3, #5
20000f48:	4059      	eors	r1, r3
20000f4a:	230f      	movs	r3, #15
20000f4c:	034a      	lsls	r2, r1, #13
20000f4e:	400b      	ands	r3, r1
20000f50:	4051      	eors	r1, r2
20000f52:	0c4a      	lsrs	r2, r1, #17
20000f54:	404a      	eors	r2, r1
20000f56:	0155      	lsls	r5, r2, #5
20000f58:	4055      	eors	r5, r2
20000f5a:	4a6f      	ldr	r2, [pc, #444]	@ (20001118 <_ZN10WildPebble6MutateEll+0x1ec>)
20000f5c:	009c      	lsls	r4, r3, #2
20000f5e:	0006      	movs	r6, r0
20000f60:	51c5      	str	r5, [r0, r7]
20000f62:	58a1      	ldr	r1, [r4, r2]
20000f64:	0028      	movs	r0, r5
20000f66:	f002 fdfb 	bl	20003b60 <__wrap___aeabi_uidiv>
20000f6a:	2900      	cmp	r1, #0
20000f6c:	d14a      	bne.n	20001004 <_ZN10WildPebble6MutateEll+0xd8>
20000f6e:	036b      	lsls	r3, r5, #13
20000f70:	406b      	eors	r3, r5
20000f72:	0c5a      	lsrs	r2, r3, #17
20000f74:	405a      	eors	r2, r3
20000f76:	0153      	lsls	r3, r2, #5
20000f78:	4053      	eors	r3, r2
20000f7a:	22ff      	movs	r2, #255	@ 0xff
20000f7c:	51f3      	str	r3, [r6, r7]
20000f7e:	401a      	ands	r2, r3
20000f80:	4542      	cmp	r2, r8
20000f82:	d83f      	bhi.n	20001004 <_ZN10WildPebble6MutateEll+0xd8>
20000f84:	20b6      	movs	r0, #182	@ 0xb6
20000f86:	211f      	movs	r1, #31
20000f88:	035a      	lsls	r2, r3, #13
20000f8a:	405a      	eors	r2, r3
20000f8c:	0c53      	lsrs	r3, r2, #17
20000f8e:	4053      	eors	r3, r2
20000f90:	015a      	lsls	r2, r3, #5
20000f92:	405a      	eors	r2, r3
20000f94:	0040      	lsls	r0, r0, #1
20000f96:	1933      	adds	r3, r6, r4
20000f98:	581c      	ldr	r4, [r3, r0]
20000f9a:	4011      	ands	r1, r2
20000f9c:	390f      	subs	r1, #15
20000f9e:	1909      	adds	r1, r1, r4
20000fa0:	29ff      	cmp	r1, #255	@ 0xff
20000fa2:	dd33      	ble.n	2000100c <_ZN10WildPebble6MutateEll+0xe0>
20000fa4:	21ff      	movs	r1, #255	@ 0xff
20000fa6:	5019      	str	r1, [r3, r0]
20000fa8:	0351      	lsls	r1, r2, #13
20000faa:	4051      	eors	r1, r2
20000fac:	0c4a      	lsrs	r2, r1, #17
20000fae:	404a      	eors	r2, r1
20000fb0:	0151      	lsls	r1, r2, #5
20000fb2:	4051      	eors	r1, r2
20000fb4:	0348      	lsls	r0, r1, #13
20000fb6:	0005      	movs	r5, r0
20000fb8:	404d      	eors	r5, r1
20000fba:	0c6c      	lsrs	r4, r5, #17
20000fbc:	406c      	eors	r4, r5
20000fbe:	0165      	lsls	r5, r4, #5
20000fc0:	27b4      	movs	r7, #180	@ 0xb4
20000fc2:	22ff      	movs	r2, #255	@ 0xff
20000fc4:	406c      	eors	r4, r5
20000fc6:	464d      	mov	r5, r9
20000fc8:	00bf      	lsls	r7, r7, #2
20000fca:	51f1      	str	r1, [r6, r7]
20000fcc:	400a      	ands	r2, r1
20000fce:	2d02      	cmp	r5, #2
20000fd0:	d100      	bne.n	20000fd4 <_ZN10WildPebble6MutateEll+0xa8>
20000fd2:	e082      	b.n	200010da <_ZN10WildPebble6MutateEll+0x1ae>
20000fd4:	2d01      	cmp	r5, #1
20000fd6:	d01d      	beq.n	20001014 <_ZN10WildPebble6MutateEll+0xe8>
20000fd8:	2a27      	cmp	r2, #39	@ 0x27
20000fda:	d800      	bhi.n	20000fde <_ZN10WildPebble6MutateEll+0xb2>
20000fdc:	e07b      	b.n	200010d6 <_ZN10WildPebble6MutateEll+0x1aa>
20000fde:	2101      	movs	r1, #1
20000fe0:	4021      	ands	r1, r4
20000fe2:	2a95      	cmp	r2, #149	@ 0x95
20000fe4:	d91c      	bls.n	20001020 <_ZN10WildPebble6MutateEll+0xf4>
20000fe6:	51f4      	str	r4, [r6, r7]
20000fe8:	2adb      	cmp	r2, #219	@ 0xdb
20000fea:	d800      	bhi.n	20000fee <_ZN10WildPebble6MutateEll+0xc2>
20000fec:	e084      	b.n	200010f8 <_ZN10WildPebble6MutateEll+0x1cc>
20000fee:	2900      	cmp	r1, #0
20000ff0:	d100      	bne.n	20000ff4 <_ZN10WildPebble6MutateEll+0xc8>
20000ff2:	e08c      	b.n	2000110e <_ZN10WildPebble6MutateEll+0x1e2>
20000ff4:	0021      	movs	r1, r4
20000ff6:	2205      	movs	r2, #5
20000ff8:	0360      	lsls	r0, r4, #13
20000ffa:	e017      	b.n	2000102c <_ZN10WildPebble6MutateEll+0x100>
20000ffc:	2220      	movs	r2, #32
20000ffe:	21f6      	movs	r1, #246	@ 0xf6
20001000:	0049      	lsls	r1, r1, #1
20001002:	505a      	str	r2, [r3, r1]
20001004:	bcc0      	pop	{r6, r7}
20001006:	46b9      	mov	r9, r7
20001008:	46b0      	mov	r8, r6
2000100a:	bdf8      	pop	{r3, r4, r5, r6, r7, pc}
2000100c:	2914      	cmp	r1, #20
2000100e:	daca      	bge.n	20000fa6 <_ZN10WildPebble6MutateEll+0x7a>
20001010:	2114      	movs	r1, #20
20001012:	e7c8      	b.n	20000fa6 <_ZN10WildPebble6MutateEll+0x7a>
20001014:	2a4f      	cmp	r2, #79	@ 0x4f
20001016:	d95e      	bls.n	200010d6 <_ZN10WildPebble6MutateEll+0x1aa>
20001018:	4649      	mov	r1, r9
2000101a:	4021      	ands	r1, r4
2000101c:	2ac7      	cmp	r2, #199	@ 0xc7
2000101e:	d867      	bhi.n	200010f0 <_ZN10WildPebble6MutateEll+0x1c4>
20001020:	51f4      	str	r4, [r6, r7]
20001022:	2900      	cmp	r1, #0
20001024:	d05f      	beq.n	200010e6 <_ZN10WildPebble6MutateEll+0x1ba>
20001026:	0021      	movs	r1, r4
20001028:	2201      	movs	r2, #1
2000102a:	0360      	lsls	r0, r4, #13
2000102c:	4048      	eors	r0, r1
2000102e:	24d6      	movs	r4, #214	@ 0xd6
20001030:	0c41      	lsrs	r1, r0, #17
20001032:	4048      	eors	r0, r1
20001034:	0141      	lsls	r1, r0, #5
20001036:	4041      	eors	r1, r0
20001038:	20af      	movs	r0, #175	@ 0xaf
2000103a:	0064      	lsls	r4, r4, #1
2000103c:	591d      	ldr	r5, [r3, r4]
2000103e:	0080      	lsls	r0, r0, #2
20001040:	1952      	adds	r2, r2, r5
20001042:	511a      	str	r2, [r3, r4]
20001044:	5830      	ldr	r0, [r6, r0]
20001046:	3cad      	subs	r4, #173	@ 0xad
20001048:	400c      	ands	r4, r1
2000104a:	10c0      	asrs	r0, r0, #3
2000104c:	4284      	cmp	r4, r0
2000104e:	d20c      	bcs.n	2000106a <_ZN10WildPebble6MutateEll+0x13e>
20001050:	0348      	lsls	r0, r1, #13
20001052:	4041      	eors	r1, r0
20001054:	0c48      	lsrs	r0, r1, #17
20001056:	4048      	eors	r0, r1
20001058:	0141      	lsls	r1, r0, #5
2000105a:	4041      	eors	r1, r0
2000105c:	2001      	movs	r0, #1
2000105e:	2409      	movs	r4, #9
20001060:	4008      	ands	r0, r1
20001062:	3801      	subs	r0, #1
20001064:	43a0      	bics	r0, r4
20001066:	3005      	adds	r0, #5
20001068:	1812      	adds	r2, r2, r0
2000106a:	2a18      	cmp	r2, #24
2000106c:	dd2b      	ble.n	200010c6 <_ZN10WildPebble6MutateEll+0x19a>
2000106e:	2218      	movs	r2, #24
20001070:	20d6      	movs	r0, #214	@ 0xd6
20001072:	0040      	lsls	r0, r0, #1
20001074:	501a      	str	r2, [r3, r0]
20001076:	034a      	lsls	r2, r1, #13
20001078:	4051      	eors	r1, r2
2000107a:	0c4a      	lsrs	r2, r1, #17
2000107c:	404a      	eors	r2, r1
2000107e:	0151      	lsls	r1, r2, #5
20001080:	248b      	movs	r4, #139	@ 0x8b
20001082:	4051      	eors	r1, r2
20001084:	223f      	movs	r2, #63	@ 0x3f
20001086:	00a4      	lsls	r4, r4, #2
20001088:	5918      	ldr	r0, [r3, r4]
2000108a:	400a      	ands	r2, r1
2000108c:	3a1f      	subs	r2, #31
2000108e:	1812      	adds	r2, r2, r0
20001090:	2aff      	cmp	r2, #255	@ 0xff
20001092:	dd1c      	ble.n	200010ce <_ZN10WildPebble6MutateEll+0x1a2>
20001094:	22ff      	movs	r2, #255	@ 0xff
20001096:	511a      	str	r2, [r3, r4]
20001098:	034a      	lsls	r2, r1, #13
2000109a:	4051      	eors	r1, r2
2000109c:	0c4a      	lsrs	r2, r1, #17
2000109e:	404a      	eors	r2, r1
200010a0:	0151      	lsls	r1, r2, #5
200010a2:	4051      	eors	r1, r2
200010a4:	22b4      	movs	r2, #180	@ 0xb4
200010a6:	0092      	lsls	r2, r2, #2
200010a8:	50b1      	str	r1, [r6, r2]
200010aa:	221f      	movs	r2, #31
200010ac:	400a      	ands	r2, r1
200010ae:	21f6      	movs	r1, #246	@ 0xf6
200010b0:	0049      	lsls	r1, r1, #1
200010b2:	5858      	ldr	r0, [r3, r1]
200010b4:	3a0f      	subs	r2, #15
200010b6:	1812      	adds	r2, r2, r0
200010b8:	2a1f      	cmp	r2, #31
200010ba:	dd9f      	ble.n	20000ffc <_ZN10WildPebble6MutateEll+0xd0>
200010bc:	2aff      	cmp	r2, #255	@ 0xff
200010be:	dd9e      	ble.n	20000ffe <_ZN10WildPebble6MutateEll+0xd2>
200010c0:	22ff      	movs	r2, #255	@ 0xff
200010c2:	505a      	str	r2, [r3, r1]
200010c4:	e79e      	b.n	20001004 <_ZN10WildPebble6MutateEll+0xd8>
200010c6:	43d0      	mvns	r0, r2
200010c8:	17c0      	asrs	r0, r0, #31
200010ca:	4002      	ands	r2, r0
200010cc:	e7d0      	b.n	20001070 <_ZN10WildPebble6MutateEll+0x144>
200010ce:	43d0      	mvns	r0, r2
200010d0:	17c0      	asrs	r0, r0, #31
200010d2:	4002      	ands	r2, r0
200010d4:	e7df      	b.n	20001096 <_ZN10WildPebble6MutateEll+0x16a>
200010d6:	2200      	movs	r2, #0
200010d8:	e7a8      	b.n	2000102c <_ZN10WildPebble6MutateEll+0x100>
200010da:	3a78      	subs	r2, #120	@ 0x78
200010dc:	2a63      	cmp	r2, #99	@ 0x63
200010de:	d8fa      	bhi.n	200010d6 <_ZN10WildPebble6MutateEll+0x1aa>
200010e0:	51f4      	str	r4, [r6, r7]
200010e2:	07e2      	lsls	r2, r4, #31
200010e4:	d49f      	bmi.n	20001026 <_ZN10WildPebble6MutateEll+0xfa>
200010e6:	2201      	movs	r2, #1
200010e8:	0021      	movs	r1, r4
200010ea:	4252      	negs	r2, r2
200010ec:	0360      	lsls	r0, r4, #13
200010ee:	e79d      	b.n	2000102c <_ZN10WildPebble6MutateEll+0x100>
200010f0:	51f4      	str	r4, [r6, r7]
200010f2:	2aef      	cmp	r2, #239	@ 0xef
200010f4:	d900      	bls.n	200010f8 <_ZN10WildPebble6MutateEll+0x1cc>
200010f6:	e77a      	b.n	20000fee <_ZN10WildPebble6MutateEll+0xc2>
200010f8:	2900      	cmp	r1, #0
200010fa:	d003      	beq.n	20001104 <_ZN10WildPebble6MutateEll+0x1d8>
200010fc:	0021      	movs	r1, r4
200010fe:	2202      	movs	r2, #2
20001100:	0360      	lsls	r0, r4, #13
20001102:	e793      	b.n	2000102c <_ZN10WildPebble6MutateEll+0x100>
20001104:	2202      	movs	r2, #2
20001106:	0021      	movs	r1, r4
20001108:	4252      	negs	r2, r2
2000110a:	0360      	lsls	r0, r4, #13
2000110c:	e78e      	b.n	2000102c <_ZN10WildPebble6MutateEll+0x100>
2000110e:	2205      	movs	r2, #5
20001110:	0021      	movs	r1, r4
20001112:	4252      	negs	r2, r2
20001114:	0360      	lsls	r0, r4, #13
20001116:	e789      	b.n	2000102c <_ZN10WildPebble6MutateEll+0x100>
20001118:	20007c14 	.word	0x20007c14

2000111c <_ZN10WildPebble13ProcessSampleEv>:
2000111c:	b5f0      	push	{r4, r5, r6, r7, lr}
2000111e:	46de      	mov	lr, fp
20001120:	4657      	mov	r7, sl
20001122:	464e      	mov	r6, r9
20001124:	4645      	mov	r5, r8
20001126:	22a9      	movs	r2, #169	@ 0xa9
20001128:	b5e0      	push	{r5, r6, r7, lr}
2000112a:	0092      	lsls	r2, r2, #2
2000112c:	5883      	ldr	r3, [r0, r2]
2000112e:	b089      	sub	sp, #36	@ 0x24
20001130:	3301      	adds	r3, #1
20001132:	5083      	str	r3, [r0, r2]
20001134:	23b5      	movs	r3, #181	@ 0xb5
20001136:	009b      	lsls	r3, r3, #2
20001138:	5cc3      	ldrb	r3, [r0, r3]
2000113a:	0004      	movs	r4, r0
2000113c:	2b00      	cmp	r3, #0
2000113e:	d100      	bne.n	20001142 <_ZN10WildPebble13ProcessSampleEv+0x26>
20001140:	e37d      	b.n	2000183e <_ZN10WildPebble13ProcessSampleEv+0x722>
20001142:	23f8      	movs	r3, #248	@ 0xf8
20001144:	58e3      	ldr	r3, [r4, r3]
20001146:	4698      	mov	r8, r3
20001148:	23fc      	movs	r3, #252	@ 0xfc
2000114a:	58e0      	ldr	r0, [r4, r3]
2000114c:	3304      	adds	r3, #4
2000114e:	58e1      	ldr	r1, [r4, r3]
20001150:	330c      	adds	r3, #12
20001152:	58e2      	ldr	r2, [r4, r3]
20001154:	3304      	adds	r3, #4
20001156:	b212      	sxth	r2, r2
20001158:	1052      	asrs	r2, r2, #1
2000115a:	1810      	adds	r0, r2, r0
2000115c:	2280      	movs	r2, #128	@ 0x80
2000115e:	58e3      	ldr	r3, [r4, r3]
20001160:	0152      	lsls	r2, r2, #5
20001162:	4290      	cmp	r0, r2
20001164:	da00      	bge.n	20001168 <_ZN10WildPebble13ProcessSampleEv+0x4c>
20001166:	e122      	b.n	200013ae <_ZN10WildPebble13ProcessSampleEv+0x292>
20001168:	4a93      	ldr	r2, [pc, #588]	@ (200013b8 <_ZN10WildPebble13ProcessSampleEv+0x29c>)
2000116a:	4691      	mov	r9, r2
2000116c:	b21b      	sxth	r3, r3
2000116e:	105b      	asrs	r3, r3, #1
20001170:	185a      	adds	r2, r3, r1
20001172:	2380      	movs	r3, #128	@ 0x80
20001174:	015b      	lsls	r3, r3, #5
20001176:	429a      	cmp	r2, r3
20001178:	da00      	bge.n	2000117c <_ZN10WildPebble13ProcessSampleEv+0x60>
2000117a:	e113      	b.n	200013a4 <_ZN10WildPebble13ProcessSampleEv+0x288>
2000117c:	4b8e      	ldr	r3, [pc, #568]	@ (200013b8 <_ZN10WildPebble13ProcessSampleEv+0x29c>)
2000117e:	469a      	mov	sl, r3
20001180:	233c      	movs	r3, #60	@ 0x3c
20001182:	33ff      	adds	r3, #255	@ 0xff
20001184:	5ce3      	ldrb	r3, [r4, r3]
20001186:	9301      	str	r3, [sp, #4]
20001188:	230a      	movs	r3, #10
2000118a:	33ff      	adds	r3, #255	@ 0xff
2000118c:	5ce3      	ldrb	r3, [r4, r3]
2000118e:	b2db      	uxtb	r3, r3
20001190:	9303      	str	r3, [sp, #12]
20001192:	4b8a      	ldr	r3, [pc, #552]	@ (200013bc <_ZN10WildPebble13ProcessSampleEv+0x2a0>)
20001194:	781a      	ldrb	r2, [r3, #0]
20001196:	2a00      	cmp	r2, #0
20001198:	d013      	beq.n	200011c2 <_ZN10WildPebble13ProcessSampleEv+0xa6>
2000119a:	781a      	ldrb	r2, [r3, #0]
2000119c:	4988      	ldr	r1, [pc, #544]	@ (200013c0 <_ZN10WildPebble13ProcessSampleEv+0x2a4>)
2000119e:	3a01      	subs	r2, #1
200011a0:	701a      	strb	r2, [r3, #0]
200011a2:	239b      	movs	r3, #155	@ 0x9b
200011a4:	2201      	movs	r2, #1
200011a6:	009b      	lsls	r3, r3, #2
200011a8:	4252      	negs	r2, r2
200011aa:	50e2      	str	r2, [r4, r3]
200011ac:	2200      	movs	r2, #0
200011ae:	333c      	adds	r3, #60	@ 0x3c
200011b0:	50e2      	str	r2, [r4, r3]
200011b2:	22ac      	movs	r2, #172	@ 0xac
200011b4:	2301      	movs	r3, #1
200011b6:	0092      	lsls	r2, r2, #2
200011b8:	54a3      	strb	r3, [r4, r2]
200011ba:	3204      	adds	r2, #4
200011bc:	50a1      	str	r1, [r4, r2]
200011be:	3204      	adds	r2, #4
200011c0:	52a3      	strh	r3, [r4, r2]
200011c2:	4b80      	ldr	r3, [pc, #512]	@ (200013c4 <_ZN10WildPebble13ProcessSampleEv+0x2a8>)
200011c4:	781a      	ldrb	r2, [r3, #0]
200011c6:	2a00      	cmp	r2, #0
200011c8:	d00c      	beq.n	200011e4 <_ZN10WildPebble13ProcessSampleEv+0xc8>
200011ca:	781a      	ldrb	r2, [r3, #0]
200011cc:	3a01      	subs	r2, #1
200011ce:	701a      	strb	r2, [r3, #0]
200011d0:	22ae      	movs	r2, #174	@ 0xae
200011d2:	2301      	movs	r3, #1
200011d4:	0092      	lsls	r2, r2, #2
200011d6:	54a3      	strb	r3, [r4, r2]
200011d8:	3a08      	subs	r2, #8
200011da:	54a3      	strb	r3, [r4, r2]
200011dc:	23ad      	movs	r3, #173	@ 0xad
200011de:	4a78      	ldr	r2, [pc, #480]	@ (200013c0 <_ZN10WildPebble13ProcessSampleEv+0x2a4>)
200011e0:	009b      	lsls	r3, r3, #2
200011e2:	50e2      	str	r2, [r4, r3]
200011e4:	4b78      	ldr	r3, [pc, #480]	@ (200013c8 <_ZN10WildPebble13ProcessSampleEv+0x2ac>)
200011e6:	781a      	ldrb	r2, [r3, #0]
200011e8:	2a00      	cmp	r2, #0
200011ea:	d00f      	beq.n	2000120c <_ZN10WildPebble13ProcessSampleEv+0xf0>
200011ec:	781a      	ldrb	r2, [r3, #0]
200011ee:	3a01      	subs	r2, #1
200011f0:	701a      	strb	r2, [r3, #0]
200011f2:	22ac      	movs	r2, #172	@ 0xac
200011f4:	2300      	movs	r3, #0
200011f6:	0092      	lsls	r2, r2, #2
200011f8:	54a3      	strb	r3, [r4, r2]
200011fa:	3204      	adds	r2, #4
200011fc:	50a3      	str	r3, [r4, r2]
200011fe:	3204      	adds	r2, #4
20001200:	52a3      	strh	r3, [r4, r2]
20001202:	4b72      	ldr	r3, [pc, #456]	@ (200013cc <_ZN10WildPebble13ProcessSampleEv+0x2b0>)
20001204:	5ce3      	ldrb	r3, [r4, r3]
20001206:	2b00      	cmp	r3, #0
20001208:	d000      	beq.n	2000120c <_ZN10WildPebble13ProcessSampleEv+0xf0>
2000120a:	e2f3      	b.n	200017f4 <_ZN10WildPebble13ProcessSampleEv+0x6d8>
2000120c:	2301      	movs	r3, #1
2000120e:	26ae      	movs	r6, #174	@ 0xae
20001210:	20ac      	movs	r0, #172	@ 0xac
20001212:	21ad      	movs	r1, #173	@ 0xad
20001214:	469c      	mov	ip, r3
20001216:	4a6e      	ldr	r2, [pc, #440]	@ (200013d0 <_ZN10WildPebble13ProcessSampleEv+0x2b4>)
20001218:	4f69      	ldr	r7, [pc, #420]	@ (200013c0 <_ZN10WildPebble13ProcessSampleEv+0x2a4>)
2000121a:	4d6e      	ldr	r5, [pc, #440]	@ (200013d4 <_ZN10WildPebble13ProcessSampleEv+0x2b8>)
2000121c:	00b6      	lsls	r6, r6, #2
2000121e:	0080      	lsls	r0, r0, #2
20001220:	0089      	lsls	r1, r1, #2
20001222:	7813      	ldrb	r3, [r2, #0]
20001224:	2b00      	cmp	r3, #0
20001226:	d100      	bne.n	2000122a <_ZN10WildPebble13ProcessSampleEv+0x10e>
20001228:	e0de      	b.n	200013e8 <_ZN10WildPebble13ProcessSampleEv+0x2cc>
2000122a:	7813      	ldrb	r3, [r2, #0]
2000122c:	3b01      	subs	r3, #1
2000122e:	7013      	strb	r3, [r2, #0]
20001230:	5da3      	ldrb	r3, [r4, r6]
20001232:	2b00      	cmp	r3, #0
20001234:	d0f5      	beq.n	20001222 <_ZN10WildPebble13ProcessSampleEv+0x106>
20001236:	4663      	mov	r3, ip
20001238:	5423      	strb	r3, [r4, r0]
2000123a:	5067      	str	r7, [r4, r1]
2000123c:	5d63      	ldrb	r3, [r4, r5]
2000123e:	3301      	adds	r3, #1
20001240:	b2db      	uxtb	r3, r3
20001242:	5563      	strb	r3, [r4, r5]
20001244:	2b05      	cmp	r3, #5
20001246:	d9ec      	bls.n	20001222 <_ZN10WildPebble13ProcessSampleEv+0x106>
20001248:	2300      	movs	r3, #0
2000124a:	5563      	strb	r3, [r4, r5]
2000124c:	3309      	adds	r3, #9
2000124e:	33ff      	adds	r3, #255	@ 0xff
20001250:	5ce3      	ldrb	r3, [r4, r3]
20001252:	2b00      	cmp	r3, #0
20001254:	d000      	beq.n	20001258 <_ZN10WildPebble13ProcessSampleEv+0x13c>
20001256:	e3d6      	b.n	20001a06 <_ZN10WildPebble13ProcessSampleEv+0x8ea>
20001258:	4b5f      	ldr	r3, [pc, #380]	@ (200013d8 <_ZN10WildPebble13ProcessSampleEv+0x2bc>)
2000125a:	5063      	str	r3, [r4, r1]
2000125c:	239b      	movs	r3, #155	@ 0x9b
2000125e:	009b      	lsls	r3, r3, #2
20001260:	58e3      	ldr	r3, [r4, r3]
20001262:	1c5a      	adds	r2, r3, #1
20001264:	4693      	mov	fp, r2
20001266:	2a0f      	cmp	r2, #15
20001268:	dd00      	ble.n	2000126c <_ZN10WildPebble13ProcessSampleEv+0x150>
2000126a:	e290      	b.n	2000178e <_ZN10WildPebble13ProcessSampleEv+0x672>
2000126c:	2303      	movs	r3, #3
2000126e:	0011      	movs	r1, r2
20001270:	4019      	ands	r1, r3
20001272:	9100      	str	r1, [sp, #0]
20001274:	2101      	movs	r1, #1
20001276:	4011      	ands	r1, r2
20001278:	239b      	movs	r3, #155	@ 0x9b
2000127a:	465a      	mov	r2, fp
2000127c:	464d      	mov	r5, r9
2000127e:	009b      	lsls	r3, r3, #2
20001280:	50e2      	str	r2, [r4, r3]
20001282:	4b56      	ldr	r3, [pc, #344]	@ (200013dc <_ZN10WildPebble13ProcessSampleEv+0x2c0>)
20001284:	0097      	lsls	r7, r2, #2
20001286:	18ed      	adds	r5, r5, r3
20001288:	23b6      	movs	r3, #182	@ 0xb6
2000128a:	19e7      	adds	r7, r4, r7
2000128c:	005b      	lsls	r3, r3, #1
2000128e:	58fb      	ldr	r3, [r7, r3]
20001290:	112d      	asrs	r5, r5, #4
20001292:	18ed      	adds	r5, r5, r3
20001294:	2dff      	cmp	r5, #255	@ 0xff
20001296:	dc00      	bgt.n	2000129a <_ZN10WildPebble13ProcessSampleEv+0x17e>
20001298:	e2cd      	b.n	20001836 <_ZN10WildPebble13ProcessSampleEv+0x71a>
2000129a:	25ff      	movs	r5, #255	@ 0xff
2000129c:	20b4      	movs	r0, #180	@ 0xb4
2000129e:	0080      	lsls	r0, r0, #2
200012a0:	5822      	ldr	r2, [r4, r0]
200012a2:	0353      	lsls	r3, r2, #13
200012a4:	4053      	eors	r3, r2
200012a6:	0c5a      	lsrs	r2, r3, #17
200012a8:	405a      	eors	r2, r3
200012aa:	0153      	lsls	r3, r2, #5
200012ac:	4053      	eors	r3, r2
200012ae:	22ff      	movs	r2, #255	@ 0xff
200012b0:	401a      	ands	r2, r3
200012b2:	9202      	str	r2, [sp, #8]
200012b4:	42aa      	cmp	r2, r5
200012b6:	4192      	sbcs	r2, r2
200012b8:	5023      	str	r3, [r4, r0]
200012ba:	4252      	negs	r2, r2
200012bc:	3840      	subs	r0, #64	@ 0x40
200012be:	5422      	strb	r2, [r4, r0]
200012c0:	9800      	ldr	r0, [sp, #0]
200012c2:	106a      	asrs	r2, r5, #1
200012c4:	2802      	cmp	r0, #2
200012c6:	d100      	bne.n	200012ca <_ZN10WildPebble13ProcessSampleEv+0x1ae>
200012c8:	3228      	adds	r2, #40	@ 0x28
200012ca:	2900      	cmp	r1, #0
200012cc:	d003      	beq.n	200012d6 <_ZN10WildPebble13ProcessSampleEv+0x1ba>
200012ce:	9901      	ldr	r1, [sp, #4]
200012d0:	2900      	cmp	r1, #0
200012d2:	d100      	bne.n	200012d6 <_ZN10WildPebble13ProcessSampleEv+0x1ba>
200012d4:	e3d2      	b.n	20001a7c <_ZN10WildPebble13ProcessSampleEv+0x960>
200012d6:	9902      	ldr	r1, [sp, #8]
200012d8:	2600      	movs	r6, #0
200012da:	42a9      	cmp	r1, r5
200012dc:	d20d      	bcs.n	200012fa <_ZN10WildPebble13ProcessSampleEv+0x1de>
200012de:	0359      	lsls	r1, r3, #13
200012e0:	404b      	eors	r3, r1
200012e2:	0c59      	lsrs	r1, r3, #17
200012e4:	4059      	eors	r1, r3
200012e6:	014b      	lsls	r3, r1, #5
200012e8:	404b      	eors	r3, r1
200012ea:	36ff      	adds	r6, #255	@ 0xff
200012ec:	21b4      	movs	r1, #180	@ 0xb4
200012ee:	401e      	ands	r6, r3
200012f0:	4296      	cmp	r6, r2
200012f2:	41b6      	sbcs	r6, r6
200012f4:	0089      	lsls	r1, r1, #2
200012f6:	5063      	str	r3, [r4, r1]
200012f8:	4276      	negs	r6, r6
200012fa:	4b39      	ldr	r3, [pc, #228]	@ (200013e0 <_ZN10WildPebble13ProcessSampleEv+0x2c4>)
200012fc:	2105      	movs	r1, #5
200012fe:	54e6      	strb	r6, [r4, r3]
20001300:	3be5      	subs	r3, #229	@ 0xe5
20001302:	58fb      	ldr	r3, [r7, r3]
20001304:	0018      	movs	r0, r3
20001306:	4698      	mov	r8, r3
20001308:	f002 fc02 	bl	20003b10 <__wrap___aeabi_idiv>
2000130c:	0043      	lsls	r3, r0, #1
2000130e:	181b      	adds	r3, r3, r0
20001310:	009b      	lsls	r3, r3, #2
20001312:	3330      	adds	r3, #48	@ 0x30
20001314:	9304      	str	r3, [sp, #16]
20001316:	23b3      	movs	r3, #179	@ 0xb3
20001318:	009b      	lsls	r3, r3, #2
2000131a:	58e1      	ldr	r1, [r4, r3]
2000131c:	4640      	mov	r0, r8
2000131e:	9105      	str	r1, [sp, #20]
20001320:	2105      	movs	r1, #5
20001322:	f002 fbf5 	bl	20003b10 <__wrap___aeabi_idiv>
20001326:	9805      	ldr	r0, [sp, #20]
20001328:	4a2e      	ldr	r2, [pc, #184]	@ (200013e4 <_ZN10WildPebble13ProcessSampleEv+0x2c8>)
2000132a:	0083      	lsls	r3, r0, #2
2000132c:	181b      	adds	r3, r3, r0
2000132e:	185b      	adds	r3, r3, r1
20001330:	009b      	lsls	r3, r3, #2
20001332:	589b      	ldr	r3, [r3, r2]
20001334:	9a04      	ldr	r2, [sp, #16]
20001336:	18d3      	adds	r3, r2, r3
20001338:	d500      	bpl.n	2000133c <_ZN10WildPebble13ProcessSampleEv+0x220>
2000133a:	e362      	b.n	20001a02 <_ZN10WildPebble13ProcessSampleEv+0x8e6>
2000133c:	2b7f      	cmp	r3, #127	@ 0x7f
2000133e:	dd00      	ble.n	20001342 <_ZN10WildPebble13ProcessSampleEv+0x226>
20001340:	237f      	movs	r3, #127	@ 0x7f
20001342:	229c      	movs	r2, #156	@ 0x9c
20001344:	0092      	lsls	r2, r2, #2
20001346:	50a3      	str	r3, [r4, r2]
20001348:	23f6      	movs	r3, #246	@ 0xf6
2000134a:	218b      	movs	r1, #139	@ 0x8b
2000134c:	005b      	lsls	r3, r3, #1
2000134e:	58fa      	ldr	r2, [r7, r3]
20001350:	0089      	lsls	r1, r1, #2
20001352:	33d0      	adds	r3, #208	@ 0xd0
20001354:	58e0      	ldr	r0, [r4, r3]
20001356:	5879      	ldr	r1, [r7, r1]
20001358:	1053      	asrs	r3, r2, #1
2000135a:	185b      	adds	r3, r3, r1
2000135c:	1041      	asrs	r1, r0, #1
2000135e:	185b      	adds	r3, r3, r1
20001360:	d500      	bpl.n	20001364 <_ZN10WildPebble13ProcessSampleEv+0x248>
20001362:	e34c      	b.n	200019fe <_ZN10WildPebble13ProcessSampleEv+0x8e2>
20001364:	2bff      	cmp	r3, #255	@ 0xff
20001366:	dd00      	ble.n	2000136a <_ZN10WildPebble13ProcessSampleEv+0x24e>
20001368:	23ff      	movs	r3, #255	@ 0xff
2000136a:	219d      	movs	r1, #157	@ 0x9d
2000136c:	0089      	lsls	r1, r1, #2
2000136e:	5063      	str	r3, [r4, r1]
20001370:	9b02      	ldr	r3, [sp, #8]
20001372:	42ab      	cmp	r3, r5
20001374:	d300      	bcc.n	20001378 <_ZN10WildPebble13ProcessSampleEv+0x25c>
20001376:	e2c0      	b.n	200018fa <_ZN10WildPebble13ProcessSampleEv+0x7de>
20001378:	23a7      	movs	r3, #167	@ 0xa7
2000137a:	009b      	lsls	r3, r3, #2
2000137c:	58e1      	ldr	r1, [r4, r3]
2000137e:	3b08      	subs	r3, #8
20001380:	50e1      	str	r1, [r4, r3]
20001382:	2e00      	cmp	r6, #0
20001384:	d100      	bne.n	20001388 <_ZN10WildPebble13ProcessSampleEv+0x26c>
20001386:	e36e      	b.n	20001a66 <_ZN10WildPebble13ProcessSampleEv+0x94a>
20001388:	23a8      	movs	r3, #168	@ 0xa8
2000138a:	009b      	lsls	r3, r3, #2
2000138c:	58e1      	ldr	r1, [r4, r3]
2000138e:	3b08      	subs	r3, #8
20001390:	50e1      	str	r1, [r4, r3]
20001392:	4909      	ldr	r1, [pc, #36]	@ (200013b8 <_ZN10WildPebble13ProcessSampleEv+0x29c>)
20001394:	3b1c      	subs	r3, #28
20001396:	50e1      	str	r1, [r4, r3]
20001398:	21a0      	movs	r1, #160	@ 0xa0
2000139a:	1153      	asrs	r3, r2, #5
2000139c:	330e      	adds	r3, #14
2000139e:	0089      	lsls	r1, r1, #2
200013a0:	5063      	str	r3, [r4, r1]
200013a2:	e340      	b.n	20001a26 <_ZN10WildPebble13ProcessSampleEv+0x90a>
200013a4:	43d3      	mvns	r3, r2
200013a6:	17db      	asrs	r3, r3, #31
200013a8:	401a      	ands	r2, r3
200013aa:	4692      	mov	sl, r2
200013ac:	e6e8      	b.n	20001180 <_ZN10WildPebble13ProcessSampleEv+0x64>
200013ae:	43c2      	mvns	r2, r0
200013b0:	17d2      	asrs	r2, r2, #31
200013b2:	4010      	ands	r0, r2
200013b4:	4681      	mov	r9, r0
200013b6:	e6d9      	b.n	2000116c <_ZN10WildPebble13ProcessSampleEv+0x50>
200013b8:	00000fff 	.word	0x00000fff
200013bc:	20008ef6 	.word	0x20008ef6
200013c0:	0000bb80 	.word	0x0000bb80
200013c4:	20008ef3 	.word	0x20008ef3
200013c8:	20008ef7 	.word	0x20008ef7
200013cc:	000002ba 	.word	0x000002ba
200013d0:	20008ef2 	.word	0x20008ef2
200013d4:	000002b9 	.word	0x000002b9
200013d8:	0000bb7f 	.word	0x0000bb7f
200013dc:	fffff800 	.word	0xfffff800
200013e0:	00000291 	.word	0x00000291
200013e4:	20007c54 	.word	0x20007c54
200013e8:	3309      	adds	r3, #9
200013ea:	33ff      	adds	r3, #255	@ 0xff
200013ec:	5ce3      	ldrb	r3, [r4, r3]
200013ee:	2b00      	cmp	r3, #0
200013f0:	d000      	beq.n	200013f4 <_ZN10WildPebble13ProcessSampleEv+0x2d8>
200013f2:	e1b7      	b.n	20001764 <_ZN10WildPebble13ProcessSampleEv+0x648>
200013f4:	22ad      	movs	r2, #173	@ 0xad
200013f6:	0092      	lsls	r2, r2, #2
200013f8:	58a3      	ldr	r3, [r4, r2]
200013fa:	2b00      	cmp	r3, #0
200013fc:	d001      	beq.n	20001402 <_ZN10WildPebble13ProcessSampleEv+0x2e6>
200013fe:	f000 fca3 	bl	20001d48 <_ZN10WildPebble13ProcessSampleEv+0xc2c>
20001402:	22ac      	movs	r2, #172	@ 0xac
20001404:	0092      	lsls	r2, r2, #2
20001406:	54a3      	strb	r3, [r4, r2]
20001408:	9b01      	ldr	r3, [sp, #4]
2000140a:	2b01      	cmp	r3, #1
2000140c:	d100      	bne.n	20001410 <_ZN10WildPebble13ProcessSampleEv+0x2f4>
2000140e:	e3e5      	b.n	20001bdc <_ZN10WildPebble13ProcessSampleEv+0xac0>
20001410:	2b00      	cmp	r3, #0
20001412:	d100      	bne.n	20001416 <_ZN10WildPebble13ProcessSampleEv+0x2fa>
20001414:	e2fe      	b.n	20001a14 <_ZN10WildPebble13ProcessSampleEv+0x8f8>
20001416:	2300      	movs	r3, #0
20001418:	2100      	movs	r1, #0
2000141a:	22b1      	movs	r2, #177	@ 0xb1
2000141c:	0092      	lsls	r2, r2, #2
2000141e:	50a3      	str	r3, [r4, r2]
20001420:	4642      	mov	r2, r8
20001422:	4bdd      	ldr	r3, [pc, #884]	@ (20001798 <_ZN10WildPebble13ProcessSampleEv+0x67c>)
20001424:	20ab      	movs	r0, #171	@ 0xab
20001426:	4353      	muls	r3, r2
20001428:	22fa      	movs	r2, #250	@ 0xfa
2000142a:	0b1b      	lsrs	r3, r3, #12
2000142c:	01d2      	lsls	r2, r2, #7
2000142e:	1ad3      	subs	r3, r2, r3
20001430:	229b      	movs	r2, #155	@ 0x9b
20001432:	0080      	lsls	r0, r0, #2
20001434:	5023      	str	r3, [r4, r0]
20001436:	0092      	lsls	r2, r2, #2
20001438:	58a2      	ldr	r2, [r4, r2]
2000143a:	4dd8      	ldr	r5, [pc, #864]	@ (2000179c <_ZN10WildPebble13ProcessSampleEv+0x680>)
2000143c:	402a      	ands	r2, r5
2000143e:	2a01      	cmp	r2, #1
20001440:	d101      	bne.n	20001446 <_ZN10WildPebble13ProcessSampleEv+0x32a>
20001442:	f000 fbed 	bl	20001c20 <_ZN10WildPebble13ProcessSampleEv+0xb04>
20001446:	21aa      	movs	r1, #170	@ 0xaa
20001448:	0089      	lsls	r1, r1, #2
2000144a:	5862      	ldr	r2, [r4, r1]
2000144c:	3201      	adds	r2, #1
2000144e:	429a      	cmp	r2, r3
20001450:	d300      	bcc.n	20001454 <_ZN10WildPebble13ProcessSampleEv+0x338>
20001452:	e37f      	b.n	20001b54 <_ZN10WildPebble13ProcessSampleEv+0xa38>
20001454:	5062      	str	r2, [r4, r1]
20001456:	22a5      	movs	r2, #165	@ 0xa5
20001458:	0092      	lsls	r2, r2, #2
2000145a:	58a3      	ldr	r3, [r4, r2]
2000145c:	2b00      	cmp	r3, #0
2000145e:	dc00      	bgt.n	20001462 <_ZN10WildPebble13ProcessSampleEv+0x346>
20001460:	e2a2      	b.n	200019a8 <_ZN10WildPebble13ProcessSampleEv+0x88c>
20001462:	3b01      	subs	r3, #1
20001464:	50a3      	str	r3, [r4, r2]
20001466:	23a4      	movs	r3, #164	@ 0xa4
20001468:	3204      	adds	r2, #4
2000146a:	009b      	lsls	r3, r3, #2
2000146c:	5ce1      	ldrb	r1, [r4, r3]
2000146e:	58a3      	ldr	r3, [r4, r2]
20001470:	2b00      	cmp	r3, #0
20001472:	dc00      	bgt.n	20001476 <_ZN10WildPebble13ProcessSampleEv+0x35a>
20001474:	e34f      	b.n	20001b16 <_ZN10WildPebble13ProcessSampleEv+0x9fa>
20001476:	3b01      	subs	r3, #1
20001478:	50a3      	str	r3, [r4, r2]
2000147a:	4bc9      	ldr	r3, [pc, #804]	@ (200017a0 <_ZN10WildPebble13ProcessSampleEv+0x684>)
2000147c:	5ce2      	ldrb	r2, [r4, r3]
2000147e:	2900      	cmp	r1, #0
20001480:	d101      	bne.n	20001486 <_ZN10WildPebble13ProcessSampleEv+0x36a>
20001482:	f000 fc80 	bl	20001d86 <_ZN10WildPebble13ProcessSampleEv+0xc6a>
20001486:	23d0      	movs	r3, #208	@ 0xd0
20001488:	2180      	movs	r1, #128	@ 0x80
2000148a:	061b      	lsls	r3, r3, #24
2000148c:	0049      	lsls	r1, r1, #1
2000148e:	6199      	str	r1, [r3, #24]
20001490:	2a00      	cmp	r2, #0
20001492:	d100      	bne.n	20001496 <_ZN10WildPebble13ProcessSampleEv+0x37a>
20001494:	e349      	b.n	20001b2a <_ZN10WildPebble13ProcessSampleEv+0xa0e>
20001496:	2280      	movs	r2, #128	@ 0x80
20001498:	0092      	lsls	r2, r2, #2
2000149a:	619a      	str	r2, [r3, #24]
2000149c:	2378      	movs	r3, #120	@ 0x78
2000149e:	219d      	movs	r1, #157	@ 0x9d
200014a0:	229c      	movs	r2, #156	@ 0x9c
200014a2:	0089      	lsls	r1, r1, #2
200014a4:	5861      	ldr	r1, [r4, r1]
200014a6:	0092      	lsls	r2, r2, #2
200014a8:	468b      	mov	fp, r1
200014aa:	49be      	ldr	r1, [pc, #760]	@ (200017a4 <_ZN10WildPebble13ProcessSampleEv+0x688>)
200014ac:	58a2      	ldr	r2, [r4, r2]
200014ae:	5c61      	ldrb	r1, [r4, r1]
200014b0:	2900      	cmp	r1, #0
200014b2:	d127      	bne.n	20001504 <_ZN10WildPebble13ProcessSampleEv+0x3e8>
200014b4:	271f      	movs	r7, #31
200014b6:	49bc      	ldr	r1, [pc, #752]	@ (200017a8 <_ZN10WildPebble13ProcessSampleEv+0x68c>)
200014b8:	4ebc      	ldr	r6, [pc, #752]	@ (200017ac <_ZN10WildPebble13ProcessSampleEv+0x690>)
200014ba:	5462      	strb	r2, [r4, r1]
200014bc:	7831      	ldrb	r1, [r6, #0]
200014be:	9200      	str	r2, [sp, #0]
200014c0:	3101      	adds	r1, #1
200014c2:	400f      	ands	r7, r1
200014c4:	49ba      	ldr	r1, [pc, #744]	@ (200017b0 <_ZN10WildPebble13ProcessSampleEv+0x694>)
200014c6:	7809      	ldrb	r1, [r1, #0]
200014c8:	428f      	cmp	r7, r1
200014ca:	d018      	beq.n	200014fe <_ZN10WildPebble13ProcessSampleEv+0x3e2>
200014cc:	4659      	mov	r1, fp
200014ce:	2057      	movs	r0, #87	@ 0x57
200014d0:	4348      	muls	r0, r1
200014d2:	1201      	asrs	r1, r0, #8
200014d4:	7830      	ldrb	r0, [r6, #0]
200014d6:	3128      	adds	r1, #40	@ 0x28
200014d8:	0045      	lsls	r5, r0, #1
200014da:	1940      	adds	r0, r0, r5
200014dc:	2590      	movs	r5, #144	@ 0x90
200014de:	9101      	str	r1, [sp, #4]
200014e0:	49b4      	ldr	r1, [pc, #720]	@ (200017b4 <_ZN10WildPebble13ProcessSampleEv+0x698>)
200014e2:	5445      	strb	r5, [r0, r1]
200014e4:	7830      	ldrb	r0, [r6, #0]
200014e6:	0045      	lsls	r5, r0, #1
200014e8:	1940      	adds	r0, r0, r5
200014ea:	1808      	adds	r0, r1, r0
200014ec:	7042      	strb	r2, [r0, #1]
200014ee:	7830      	ldrb	r0, [r6, #0]
200014f0:	0045      	lsls	r5, r0, #1
200014f2:	46ac      	mov	ip, r5
200014f4:	4484      	add	ip, r0
200014f6:	9801      	ldr	r0, [sp, #4]
200014f8:	4461      	add	r1, ip
200014fa:	7088      	strb	r0, [r1, #2]
200014fc:	7037      	strb	r7, [r6, #0]
200014fe:	2001      	movs	r0, #1
20001500:	49a8      	ldr	r1, [pc, #672]	@ (200017a4 <_ZN10WildPebble13ProcessSampleEv+0x688>)
20001502:	5460      	strb	r0, [r4, r1]
20001504:	2101      	movs	r1, #1
20001506:	9100      	str	r1, [sp, #0]
20001508:	21ff      	movs	r1, #255	@ 0xff
2000150a:	4011      	ands	r1, r2
2000150c:	22d0      	movs	r2, #208	@ 0xd0
2000150e:	58a2      	ldr	r2, [r4, r2]
20001510:	393c      	subs	r1, #60	@ 0x3c
20001512:	434a      	muls	r2, r1
20001514:	21d4      	movs	r1, #212	@ 0xd4
20001516:	5861      	ldr	r1, [r4, r1]
20001518:	1112      	asrs	r2, r2, #4
2000151a:	1852      	adds	r2, r2, r1
2000151c:	43d1      	mvns	r1, r2
2000151e:	17c9      	asrs	r1, r1, #31
20001520:	400a      	ands	r2, r1
20001522:	2180      	movs	r1, #128	@ 0x80
20001524:	0309      	lsls	r1, r1, #12
20001526:	428a      	cmp	r2, r1
20001528:	db00      	blt.n	2000152c <_ZN10WildPebble13ProcessSampleEv+0x410>
2000152a:	4aa3      	ldr	r2, [pc, #652]	@ (200017b8 <_ZN10WildPebble13ProcessSampleEv+0x69c>)
2000152c:	0151      	lsls	r1, r2, #5
2000152e:	1a89      	subs	r1, r1, r2
20001530:	0089      	lsls	r1, r1, #2
20001532:	188a      	adds	r2, r1, r2
20001534:	49a1      	ldr	r1, [pc, #644]	@ (200017bc <_ZN10WildPebble13ProcessSampleEv+0x6a0>)
20001536:	11d2      	asrs	r2, r2, #7
20001538:	600a      	str	r2, [r1, #0]
2000153a:	22b2      	movs	r2, #178	@ 0xb2
2000153c:	465d      	mov	r5, fp
2000153e:	0092      	lsls	r2, r2, #2
20001540:	58a0      	ldr	r0, [r4, r2]
20001542:	1a2d      	subs	r5, r5, r0
20001544:	116d      	asrs	r5, r5, #5
20001546:	182d      	adds	r5, r5, r0
20001548:	489d      	ldr	r0, [pc, #628]	@ (200017c0 <_ZN10WildPebble13ProcessSampleEv+0x6a4>)
2000154a:	50a5      	str	r5, [r4, r2]
2000154c:	012a      	lsls	r2, r5, #4
2000154e:	1812      	adds	r2, r2, r0
20001550:	20c0      	movs	r0, #192	@ 0xc0
20001552:	00c0      	lsls	r0, r0, #3
20001554:	4282      	cmp	r2, r0
20001556:	dc00      	bgt.n	2000155a <_ZN10WildPebble13ProcessSampleEv+0x43e>
20001558:	e29b      	b.n	20001a92 <_ZN10WildPebble13ProcessSampleEv+0x976>
2000155a:	3881      	subs	r0, #129	@ 0x81
2000155c:	1092      	asrs	r2, r2, #2
2000155e:	38ff      	subs	r0, #255	@ 0xff
20001560:	1812      	adds	r2, r2, r0
20001562:	4897      	ldr	r0, [pc, #604]	@ (200017c0 <_ZN10WildPebble13ProcessSampleEv+0x6a4>)
20001564:	4282      	cmp	r2, r0
20001566:	da00      	bge.n	2000156a <_ZN10WildPebble13ProcessSampleEv+0x44e>
20001568:	0002      	movs	r2, r0
2000156a:	2080      	movs	r0, #128	@ 0x80
2000156c:	0100      	lsls	r0, r0, #4
2000156e:	4282      	cmp	r2, r0
20001570:	db00      	blt.n	20001574 <_ZN10WildPebble13ProcessSampleEv+0x458>
20001572:	4a94      	ldr	r2, [pc, #592]	@ (200017c4 <_ZN10WildPebble13ProcessSampleEv+0x6a8>)
20001574:	26a0      	movs	r6, #160	@ 0xa0
20001576:	4893      	ldr	r0, [pc, #588]	@ (200017c4 <_ZN10WildPebble13ProcessSampleEv+0x6a8>)
20001578:	00b6      	lsls	r6, r6, #2
2000157a:	1a80      	subs	r0, r0, r2
2000157c:	0142      	lsls	r2, r0, #5
2000157e:	1a12      	subs	r2, r2, r0
20001580:	0092      	lsls	r2, r2, #2
20001582:	1812      	adds	r2, r2, r0
20001584:	209e      	movs	r0, #158	@ 0x9e
20001586:	604a      	str	r2, [r1, #4]
20001588:	59a2      	ldr	r2, [r4, r6]
2000158a:	0080      	lsls	r0, r0, #2
2000158c:	4694      	mov	ip, r2
2000158e:	5822      	ldr	r2, [r4, r0]
20001590:	4462      	add	r2, ip
20001592:	0511      	lsls	r1, r2, #20
20001594:	0d09      	lsrs	r1, r1, #20
20001596:	5021      	str	r1, [r4, r0]
20001598:	219f      	movs	r1, #159	@ 0x9f
2000159a:	0089      	lsls	r1, r1, #2
2000159c:	5867      	ldr	r7, [r4, r1]
2000159e:	3128      	adds	r1, #40	@ 0x28
200015a0:	5860      	ldr	r0, [r4, r1]
200015a2:	2180      	movs	r1, #128	@ 0x80
200015a4:	0109      	lsls	r1, r1, #4
200015a6:	4011      	ands	r1, r2
200015a8:	0552      	lsls	r2, r2, #21
200015aa:	468b      	mov	fp, r1
200015ac:	0d52      	lsrs	r2, r2, #21
200015ae:	2f00      	cmp	r7, #0
200015b0:	dc00      	bgt.n	200015b4 <_ZN10WildPebble13ProcessSampleEv+0x498>
200015b2:	e292      	b.n	20001ada <_ZN10WildPebble13ProcessSampleEv+0x9be>
200015b4:	07c1      	lsls	r1, r0, #31
200015b6:	d404      	bmi.n	200015c2 <_ZN10WildPebble13ProcessSampleEv+0x4a6>
200015b8:	2101      	movs	r1, #1
200015ba:	4249      	negs	r1, r1
200015bc:	448c      	add	ip, r1
200015be:	4661      	mov	r1, ip
200015c0:	51a1      	str	r1, [r4, r6]
200015c2:	4661      	mov	r1, ip
200015c4:	2903      	cmp	r1, #3
200015c6:	dc03      	bgt.n	200015d0 <_ZN10WildPebble13ProcessSampleEv+0x4b4>
200015c8:	21a0      	movs	r1, #160	@ 0xa0
200015ca:	2604      	movs	r6, #4
200015cc:	0089      	lsls	r1, r1, #2
200015ce:	5066      	str	r6, [r4, r1]
200015d0:	4659      	mov	r1, fp
200015d2:	2900      	cmp	r1, #0
200015d4:	d100      	bne.n	200015d8 <_ZN10WildPebble13ProcessSampleEv+0x4bc>
200015d6:	e28f      	b.n	20001af8 <_ZN10WildPebble13ProcessSampleEv+0x9dc>
200015d8:	2180      	movs	r1, #128	@ 0x80
200015da:	00c9      	lsls	r1, r1, #3
200015dc:	1a89      	subs	r1, r1, r2
200015de:	133a      	asrs	r2, r7, #12
200015e0:	3201      	adds	r2, #1
200015e2:	1abf      	subs	r7, r7, r2
200015e4:	229f      	movs	r2, #159	@ 0x9f
200015e6:	0049      	lsls	r1, r1, #1
200015e8:	0092      	lsls	r2, r2, #2
200015ea:	2f00      	cmp	r7, #0
200015ec:	da00      	bge.n	200015f0 <_ZN10WildPebble13ProcessSampleEv+0x4d4>
200015ee:	e28e      	b.n	20001b0e <_ZN10WildPebble13ProcessSampleEv+0x9f2>
200015f0:	50a7      	str	r7, [r4, r2]
200015f2:	003a      	movs	r2, r7
200015f4:	27c0      	movs	r7, #192	@ 0xc0
200015f6:	434a      	muls	r2, r1
200015f8:	00ff      	lsls	r7, r7, #3
200015fa:	1211      	asrs	r1, r2, #8
200015fc:	42b9      	cmp	r1, r7
200015fe:	dc00      	bgt.n	20001602 <_ZN10WildPebble13ProcessSampleEv+0x4e6>
20001600:	e23e      	b.n	20001a80 <_ZN10WildPebble13ProcessSampleEv+0x964>
20001602:	2190      	movs	r1, #144	@ 0x90
20001604:	1292      	asrs	r2, r2, #10
20001606:	00c9      	lsls	r1, r1, #3
20001608:	1852      	adds	r2, r2, r1
2000160a:	21f2      	movs	r1, #242	@ 0xf2
2000160c:	5262      	strh	r2, [r4, r1]
2000160e:	22a3      	movs	r2, #163	@ 0xa3
20001610:	27a2      	movs	r7, #162	@ 0xa2
20001612:	0092      	lsls	r2, r2, #2
20001614:	4694      	mov	ip, r2
20001616:	58a2      	ldr	r2, [r4, r2]
20001618:	00bf      	lsls	r7, r7, #2
2000161a:	4693      	mov	fp, r2
2000161c:	59e2      	ldr	r2, [r4, r7]
2000161e:	2680      	movs	r6, #128	@ 0x80
20001620:	445a      	add	r2, fp
20001622:	0511      	lsls	r1, r2, #20
20001624:	0d09      	lsrs	r1, r1, #20
20001626:	51e1      	str	r1, [r4, r7]
20001628:	21a1      	movs	r1, #161	@ 0xa1
2000162a:	0136      	lsls	r6, r6, #4
2000162c:	0089      	lsls	r1, r1, #2
2000162e:	4016      	ands	r6, r2
20001630:	5867      	ldr	r7, [r4, r1]
20001632:	0552      	lsls	r2, r2, #21
20001634:	0d52      	lsrs	r2, r2, #21
20001636:	4690      	mov	r8, r2
20001638:	2f00      	cmp	r7, #0
2000163a:	dc00      	bgt.n	2000163e <_ZN10WildPebble13ProcessSampleEv+0x522>
2000163c:	e231      	b.n	20001aa2 <_ZN10WildPebble13ProcessSampleEv+0x986>
2000163e:	4659      	mov	r1, fp
20001640:	3901      	subs	r1, #1
20001642:	2918      	cmp	r1, #24
20001644:	da00      	bge.n	20001648 <_ZN10WildPebble13ProcessSampleEv+0x52c>
20001646:	2118      	movs	r1, #24
20001648:	4662      	mov	r2, ip
2000164a:	50a1      	str	r1, [r4, r2]
2000164c:	2e00      	cmp	r6, #0
2000164e:	d004      	beq.n	2000165a <_ZN10WildPebble13ProcessSampleEv+0x53e>
20001650:	2180      	movs	r1, #128	@ 0x80
20001652:	4642      	mov	r2, r8
20001654:	0109      	lsls	r1, r1, #4
20001656:	1a8a      	subs	r2, r1, r2
20001658:	4690      	mov	r8, r2
2000165a:	495b      	ldr	r1, [pc, #364]	@ (200017c8 <_ZN10WildPebble13ProcessSampleEv+0x6ac>)
2000165c:	4441      	add	r1, r8
2000165e:	0049      	lsls	r1, r1, #1
20001660:	2f08      	cmp	r7, #8
20001662:	dc00      	bgt.n	20001666 <_ZN10WildPebble13ProcessSampleEv+0x54a>
20001664:	e240      	b.n	20001ae8 <_ZN10WildPebble13ProcessSampleEv+0x9cc>
20001666:	22b4      	movs	r2, #180	@ 0xb4
20001668:	0092      	lsls	r2, r2, #2
2000166a:	4690      	mov	r8, r2
2000166c:	58a2      	ldr	r2, [r4, r2]
2000166e:	0016      	movs	r6, r2
20001670:	0352      	lsls	r2, r2, #13
20001672:	4056      	eors	r6, r2
20001674:	0c72      	lsrs	r2, r6, #17
20001676:	4072      	eors	r2, r6
20001678:	0156      	lsls	r6, r2, #5
2000167a:	4072      	eors	r2, r6
2000167c:	4646      	mov	r6, r8
2000167e:	51a2      	str	r2, [r4, r6]
20001680:	127e      	asrs	r6, r7, #9
20001682:	3601      	adds	r6, #1
20001684:	1bbf      	subs	r7, r7, r6
20001686:	d400      	bmi.n	2000168a <_ZN10WildPebble13ProcessSampleEv+0x56e>
20001688:	e353      	b.n	20001d32 <_ZN10WildPebble13ProcessSampleEv+0xc16>
2000168a:	22a1      	movs	r2, #161	@ 0xa1
2000168c:	2100      	movs	r1, #0
2000168e:	0092      	lsls	r2, r2, #2
20001690:	50a1      	str	r1, [r4, r2]
20001692:	4a4b      	ldr	r2, [pc, #300]	@ (200017c0 <_ZN10WildPebble13ProcessSampleEv+0x6a4>)
20001694:	4293      	cmp	r3, r2
20001696:	da00      	bge.n	2000169a <_ZN10WildPebble13ProcessSampleEv+0x57e>
20001698:	0013      	movs	r3, r2
2000169a:	2280      	movs	r2, #128	@ 0x80
2000169c:	0112      	lsls	r2, r2, #4
2000169e:	4293      	cmp	r3, r2
200016a0:	db00      	blt.n	200016a4 <_ZN10WildPebble13ProcessSampleEv+0x588>
200016a2:	4b48      	ldr	r3, [pc, #288]	@ (200017c4 <_ZN10WildPebble13ProcessSampleEv+0x6a8>)
200016a4:	22f4      	movs	r2, #244	@ 0xf4
200016a6:	2160      	movs	r1, #96	@ 0x60
200016a8:	52a3      	strh	r3, [r4, r2]
200016aa:	f002 fa59 	bl	20003b60 <__wrap___aeabi_uidiv>
200016ae:	2900      	cmp	r1, #0
200016b0:	d151      	bne.n	20001756 <_ZN10WildPebble13ProcessSampleEv+0x63a>
200016b2:	00ea      	lsls	r2, r5, #3
200016b4:	43d3      	mvns	r3, r2
200016b6:	17db      	asrs	r3, r3, #31
200016b8:	401a      	ands	r2, r3
200016ba:	2380      	movs	r3, #128	@ 0x80
200016bc:	015b      	lsls	r3, r3, #5
200016be:	429a      	cmp	r2, r3
200016c0:	db00      	blt.n	200016c4 <_ZN10WildPebble13ProcessSampleEv+0x5a8>
200016c2:	4a42      	ldr	r2, [pc, #264]	@ (200017cc <_ZN10WildPebble13ProcessSampleEv+0x6b0>)
200016c4:	23af      	movs	r3, #175	@ 0xaf
200016c6:	2080      	movs	r0, #128	@ 0x80
200016c8:	009b      	lsls	r3, r3, #2
200016ca:	58e3      	ldr	r3, [r4, r3]
200016cc:	0140      	lsls	r0, r0, #5
200016ce:	00db      	lsls	r3, r3, #3
200016d0:	4283      	cmp	r3, r0
200016d2:	db00      	blt.n	200016d6 <_ZN10WildPebble13ProcessSampleEv+0x5ba>
200016d4:	4b3d      	ldr	r3, [pc, #244]	@ (200017cc <_ZN10WildPebble13ProcessSampleEv+0x6b0>)
200016d6:	9e00      	ldr	r6, [sp, #0]
200016d8:	483d      	ldr	r0, [pc, #244]	@ (200017d0 <_ZN10WildPebble13ProcessSampleEv+0x6b4>)
200016da:	3e01      	subs	r6, #1
200016dc:	4006      	ands	r6, r0
200016de:	483d      	ldr	r0, [pc, #244]	@ (200017d4 <_ZN10WildPebble13ProcessSampleEv+0x6b8>)
200016e0:	4f3d      	ldr	r7, [pc, #244]	@ (200017d8 <_ZN10WildPebble13ProcessSampleEv+0x6bc>)
200016e2:	4684      	mov	ip, r0
200016e4:	6838      	ldr	r0, [r7, #0]
200016e6:	4466      	add	r6, ip
200016e8:	4070      	eors	r0, r6
200016ea:	4d3c      	ldr	r5, [pc, #240]	@ (200017dc <_ZN10WildPebble13ProcessSampleEv+0x6c0>)
200016ec:	0400      	lsls	r0, r0, #16
200016ee:	0c00      	lsrs	r0, r0, #16
200016f0:	6028      	str	r0, [r5, #0]
200016f2:	4648      	mov	r0, r9
200016f4:	4340      	muls	r0, r0
200016f6:	683e      	ldr	r6, [r7, #0]
200016f8:	1200      	asrs	r0, r0, #8
200016fa:	0400      	lsls	r0, r0, #16
200016fc:	4070      	eors	r0, r6
200016fe:	0c00      	lsrs	r0, r0, #16
20001700:	0400      	lsls	r0, r0, #16
20001702:	6028      	str	r0, [r5, #0]
20001704:	4650      	mov	r0, sl
20001706:	4340      	muls	r0, r0
20001708:	4d35      	ldr	r5, [pc, #212]	@ (200017e0 <_ZN10WildPebble13ProcessSampleEv+0x6c4>)
2000170a:	1200      	asrs	r0, r0, #8
2000170c:	682e      	ldr	r6, [r5, #0]
2000170e:	4352      	muls	r2, r2
20001710:	4070      	eors	r0, r6
20001712:	0400      	lsls	r0, r0, #16
20001714:	4e33      	ldr	r6, [pc, #204]	@ (200017e4 <_ZN10WildPebble13ProcessSampleEv+0x6c8>)
20001716:	0c00      	lsrs	r0, r0, #16
20001718:	6030      	str	r0, [r6, #0]
2000171a:	6828      	ldr	r0, [r5, #0]
2000171c:	1212      	asrs	r2, r2, #8
2000171e:	0412      	lsls	r2, r2, #16
20001720:	4042      	eors	r2, r0
20001722:	0c12      	lsrs	r2, r2, #16
20001724:	0412      	lsls	r2, r2, #16
20001726:	6032      	str	r2, [r6, #0]
20001728:	22ac      	movs	r2, #172	@ 0xac
2000172a:	0092      	lsls	r2, r2, #2
2000172c:	5ca2      	ldrb	r2, [r4, r2]
2000172e:	2a00      	cmp	r2, #0
20001730:	d000      	beq.n	20001734 <_ZN10WildPebble13ProcessSampleEv+0x618>
20001732:	4661      	mov	r1, ip
20001734:	482c      	ldr	r0, [pc, #176]	@ (200017e8 <_ZN10WildPebble13ProcessSampleEv+0x6cc>)
20001736:	041b      	lsls	r3, r3, #16
20001738:	6802      	ldr	r2, [r0, #0]
2000173a:	0c1b      	lsrs	r3, r3, #16
2000173c:	404a      	eors	r2, r1
2000173e:	435b      	muls	r3, r3
20001740:	492a      	ldr	r1, [pc, #168]	@ (200017ec <_ZN10WildPebble13ProcessSampleEv+0x6d0>)
20001742:	0412      	lsls	r2, r2, #16
20001744:	0c12      	lsrs	r2, r2, #16
20001746:	600a      	str	r2, [r1, #0]
20001748:	6802      	ldr	r2, [r0, #0]
2000174a:	121b      	asrs	r3, r3, #8
2000174c:	041b      	lsls	r3, r3, #16
2000174e:	4053      	eors	r3, r2
20001750:	0c1b      	lsrs	r3, r3, #16
20001752:	041b      	lsls	r3, r3, #16
20001754:	600b      	str	r3, [r1, #0]
20001756:	b009      	add	sp, #36	@ 0x24
20001758:	bcf0      	pop	{r4, r5, r6, r7}
2000175a:	46bb      	mov	fp, r7
2000175c:	46b2      	mov	sl, r6
2000175e:	46a9      	mov	r9, r5
20001760:	46a0      	mov	r8, r4
20001762:	bdf0      	pop	{r4, r5, r6, r7, pc}
20001764:	2385      	movs	r3, #133	@ 0x85
20001766:	005b      	lsls	r3, r3, #1
20001768:	5ce3      	ldrb	r3, [r4, r3]
2000176a:	2b00      	cmp	r3, #0
2000176c:	d000      	beq.n	20001770 <_ZN10WildPebble13ProcessSampleEv+0x654>
2000176e:	e641      	b.n	200013f4 <_ZN10WildPebble13ProcessSampleEv+0x2d8>
20001770:	23ac      	movs	r3, #172	@ 0xac
20001772:	2201      	movs	r2, #1
20001774:	009b      	lsls	r3, r3, #2
20001776:	54e2      	strb	r2, [r4, r3]
20001778:	4a1d      	ldr	r2, [pc, #116]	@ (200017f0 <_ZN10WildPebble13ProcessSampleEv+0x6d4>)
2000177a:	3304      	adds	r3, #4
2000177c:	50e2      	str	r2, [r4, r3]
2000177e:	239b      	movs	r3, #155	@ 0x9b
20001780:	009b      	lsls	r3, r3, #2
20001782:	58e3      	ldr	r3, [r4, r3]
20001784:	1c5a      	adds	r2, r3, #1
20001786:	4693      	mov	fp, r2
20001788:	2a0f      	cmp	r2, #15
2000178a:	dc00      	bgt.n	2000178e <_ZN10WildPebble13ProcessSampleEv+0x672>
2000178c:	e56e      	b.n	2000126c <_ZN10WildPebble13ProcessSampleEv+0x150>
2000178e:	2300      	movs	r3, #0
20001790:	2100      	movs	r1, #0
20001792:	469b      	mov	fp, r3
20001794:	9300      	str	r3, [sp, #0]
20001796:	e56f      	b.n	20001278 <_ZN10WildPebble13ProcessSampleEv+0x15c>
20001798:	00007148 	.word	0x00007148
2000179c:	80000001 	.word	0x80000001
200017a0:	00000291 	.word	0x00000291
200017a4:	000002ba 	.word	0x000002ba
200017a8:	000002bb 	.word	0x000002bb
200017ac:	20008ef5 	.word	0x20008ef5
200017b0:	20008ef4 	.word	0x20008ef4
200017b4:	20008a4c 	.word	0x20008a4c
200017b8:	0007ffff 	.word	0x0007ffff
200017bc:	20007e60 	.word	0x20007e60
200017c0:	fffff800 	.word	0xfffff800
200017c4:	000007ff 	.word	0x000007ff
200017c8:	fffffc00 	.word	0xfffffc00
200017cc:	00000fff 	.word	0x00000fff
200017d0:	ffff0020 	.word	0xffff0020
200017d4:	0000ffe0 	.word	0x0000ffe0
200017d8:	40050070 	.word	0x40050070
200017dc:	40051070 	.word	0x40051070
200017e0:	40050084 	.word	0x40050084
200017e4:	40051084 	.word	0x40051084
200017e8:	40050098 	.word	0x40050098
200017ec:	40051098 	.word	0x40051098
200017f0:	0000bb7f 	.word	0x0000bb7f
200017f4:	221f      	movs	r2, #31
200017f6:	4bdd      	ldr	r3, [pc, #884]	@ (20001b6c <_ZN10WildPebble13ProcessSampleEv+0xa50>)
200017f8:	7819      	ldrb	r1, [r3, #0]
200017fa:	3101      	adds	r1, #1
200017fc:	400a      	ands	r2, r1
200017fe:	49dc      	ldr	r1, [pc, #880]	@ (20001b70 <_ZN10WildPebble13ProcessSampleEv+0xa54>)
20001800:	7809      	ldrb	r1, [r1, #0]
20001802:	428a      	cmp	r2, r1
20001804:	d013      	beq.n	2000182e <_ZN10WildPebble13ProcessSampleEv+0x712>
20001806:	781e      	ldrb	r6, [r3, #0]
20001808:	49da      	ldr	r1, [pc, #872]	@ (20001b74 <_ZN10WildPebble13ProcessSampleEv+0xa58>)
2000180a:	0070      	lsls	r0, r6, #1
2000180c:	1980      	adds	r0, r0, r6
2000180e:	2680      	movs	r6, #128	@ 0x80
20001810:	5c65      	ldrb	r5, [r4, r1]
20001812:	49d9      	ldr	r1, [pc, #868]	@ (20001b78 <_ZN10WildPebble13ProcessSampleEv+0xa5c>)
20001814:	5446      	strb	r6, [r0, r1]
20001816:	781e      	ldrb	r6, [r3, #0]
20001818:	0070      	lsls	r0, r6, #1
2000181a:	1980      	adds	r0, r0, r6
2000181c:	1808      	adds	r0, r1, r0
2000181e:	7045      	strb	r5, [r0, #1]
20001820:	781d      	ldrb	r5, [r3, #0]
20001822:	0068      	lsls	r0, r5, #1
20001824:	1940      	adds	r0, r0, r5
20001826:	1809      	adds	r1, r1, r0
20001828:	2000      	movs	r0, #0
2000182a:	7088      	strb	r0, [r1, #2]
2000182c:	701a      	strb	r2, [r3, #0]
2000182e:	2200      	movs	r2, #0
20001830:	4bd2      	ldr	r3, [pc, #840]	@ (20001b7c <_ZN10WildPebble13ProcessSampleEv+0xa60>)
20001832:	54e2      	strb	r2, [r4, r3]
20001834:	e4ea      	b.n	2000120c <_ZN10WildPebble13ProcessSampleEv+0xf0>
20001836:	43eb      	mvns	r3, r5
20001838:	17db      	asrs	r3, r3, #31
2000183a:	401d      	ands	r5, r3
2000183c:	e52e      	b.n	2000129c <_ZN10WildPebble13ProcessSampleEv+0x180>
2000183e:	ad06      	add	r5, sp, #24
20001840:	0028      	movs	r0, r5
20001842:	f002 fcc3 	bl	200041cc <pico_get_unique_board_id>
20001846:	782a      	ldrb	r2, [r5, #0]
20001848:	0353      	lsls	r3, r2, #13
2000184a:	189a      	adds	r2, r3, r2
2000184c:	0c5b      	lsrs	r3, r3, #17
2000184e:	4053      	eors	r3, r2
20001850:	786a      	ldrb	r2, [r5, #1]
20001852:	0212      	lsls	r2, r2, #8
20001854:	405a      	eors	r2, r3
20001856:	015b      	lsls	r3, r3, #5
20001858:	4053      	eors	r3, r2
2000185a:	035a      	lsls	r2, r3, #13
2000185c:	4053      	eors	r3, r2
2000185e:	0c5a      	lsrs	r2, r3, #17
20001860:	405a      	eors	r2, r3
20001862:	78ab      	ldrb	r3, [r5, #2]
20001864:	041b      	lsls	r3, r3, #16
20001866:	4053      	eors	r3, r2
20001868:	0152      	lsls	r2, r2, #5
2000186a:	4053      	eors	r3, r2
2000186c:	035a      	lsls	r2, r3, #13
2000186e:	4053      	eors	r3, r2
20001870:	0c5a      	lsrs	r2, r3, #17
20001872:	405a      	eors	r2, r3
20001874:	78eb      	ldrb	r3, [r5, #3]
20001876:	061b      	lsls	r3, r3, #24
20001878:	4053      	eors	r3, r2
2000187a:	0152      	lsls	r2, r2, #5
2000187c:	4053      	eors	r3, r2
2000187e:	035a      	lsls	r2, r3, #13
20001880:	4053      	eors	r3, r2
20001882:	0c5a      	lsrs	r2, r3, #17
20001884:	405a      	eors	r2, r3
20001886:	792b      	ldrb	r3, [r5, #4]
20001888:	4053      	eors	r3, r2
2000188a:	0152      	lsls	r2, r2, #5
2000188c:	4053      	eors	r3, r2
2000188e:	035a      	lsls	r2, r3, #13
20001890:	4053      	eors	r3, r2
20001892:	0c5a      	lsrs	r2, r3, #17
20001894:	405a      	eors	r2, r3
20001896:	796b      	ldrb	r3, [r5, #5]
20001898:	021b      	lsls	r3, r3, #8
2000189a:	4053      	eors	r3, r2
2000189c:	0152      	lsls	r2, r2, #5
2000189e:	4053      	eors	r3, r2
200018a0:	035a      	lsls	r2, r3, #13
200018a2:	4053      	eors	r3, r2
200018a4:	0c5a      	lsrs	r2, r3, #17
200018a6:	405a      	eors	r2, r3
200018a8:	79ab      	ldrb	r3, [r5, #6]
200018aa:	041b      	lsls	r3, r3, #16
200018ac:	4053      	eors	r3, r2
200018ae:	0152      	lsls	r2, r2, #5
200018b0:	4053      	eors	r3, r2
200018b2:	035a      	lsls	r2, r3, #13
200018b4:	4053      	eors	r3, r2
200018b6:	0c5a      	lsrs	r2, r3, #17
200018b8:	405a      	eors	r2, r3
200018ba:	79eb      	ldrb	r3, [r5, #7]
200018bc:	061b      	lsls	r3, r3, #24
200018be:	4053      	eors	r3, r2
200018c0:	0152      	lsls	r2, r2, #5
200018c2:	4053      	eors	r3, r2
200018c4:	035a      	lsls	r2, r3, #13
200018c6:	4053      	eors	r3, r2
200018c8:	0c5a      	lsrs	r2, r3, #17
200018ca:	405a      	eors	r2, r3
200018cc:	23f8      	movs	r3, #248	@ 0xf8
200018ce:	58e3      	ldr	r3, [r4, r3]
200018d0:	005b      	lsls	r3, r3, #1
200018d2:	4053      	eors	r3, r2
200018d4:	0152      	lsls	r2, r2, #5
200018d6:	4053      	eors	r3, r2
200018d8:	2286      	movs	r2, #134	@ 0x86
200018da:	0052      	lsls	r2, r2, #1
200018dc:	58a2      	ldr	r2, [r4, r2]
200018de:	b212      	sxth	r2, r2
200018e0:	00d2      	lsls	r2, r2, #3
200018e2:	4293      	cmp	r3, r2
200018e4:	d100      	bne.n	200018e8 <_ZN10WildPebble13ProcessSampleEv+0x7cc>
200018e6:	e19f      	b.n	20001c28 <_ZN10WildPebble13ProcessSampleEv+0xb0c>
200018e8:	4053      	eors	r3, r2
200018ea:	22b4      	movs	r2, #180	@ 0xb4
200018ec:	0092      	lsls	r2, r2, #2
200018ee:	50a3      	str	r3, [r4, r2]
200018f0:	23b5      	movs	r3, #181	@ 0xb5
200018f2:	2201      	movs	r2, #1
200018f4:	009b      	lsls	r3, r3, #2
200018f6:	54e2      	strb	r2, [r4, r3]
200018f8:	e423      	b.n	20001142 <_ZN10WildPebble13ProcessSampleEv+0x26>
200018fa:	23a5      	movs	r3, #165	@ 0xa5
200018fc:	2100      	movs	r1, #0
200018fe:	009b      	lsls	r3, r3, #2
20001900:	50e1      	str	r1, [r4, r3]
20001902:	2e00      	cmp	r6, #0
20001904:	d000      	beq.n	20001908 <_ZN10WildPebble13ProcessSampleEv+0x7ec>
20001906:	e089      	b.n	20001a1c <_ZN10WildPebble13ProcessSampleEv+0x900>
20001908:	23a6      	movs	r3, #166	@ 0xa6
2000190a:	009b      	lsls	r3, r3, #2
2000190c:	50e6      	str	r6, [r4, r3]
2000190e:	9b03      	ldr	r3, [sp, #12]
20001910:	2b00      	cmp	r3, #0
20001912:	d100      	bne.n	20001916 <_ZN10WildPebble13ProcessSampleEv+0x7fa>
20001914:	e093      	b.n	20001a3e <_ZN10WildPebble13ProcessSampleEv+0x922>
20001916:	9900      	ldr	r1, [sp, #0]
20001918:	2900      	cmp	r1, #0
2000191a:	d000      	beq.n	2000191e <_ZN10WildPebble13ProcessSampleEv+0x802>
2000191c:	e59b      	b.n	20001456 <_ZN10WildPebble13ProcessSampleEv+0x33a>
2000191e:	22b0      	movs	r2, #176	@ 0xb0
20001920:	23af      	movs	r3, #175	@ 0xaf
20001922:	0092      	lsls	r2, r2, #2
20001924:	5ca0      	ldrb	r0, [r4, r2]
20001926:	009b      	lsls	r3, r3, #2
20001928:	58e7      	ldr	r7, [r4, r3]
2000192a:	2800      	cmp	r0, #0
2000192c:	d100      	bne.n	20001930 <_ZN10WildPebble13ProcessSampleEv+0x814>
2000192e:	e158      	b.n	20001be2 <_ZN10WildPebble13ProcessSampleEv+0xac6>
20001930:	3701      	adds	r7, #1
20001932:	50e7      	str	r7, [r4, r3]
20001934:	2fdc      	cmp	r7, #220	@ 0xdc
20001936:	dd00      	ble.n	2000193a <_ZN10WildPebble13ProcessSampleEv+0x81e>
20001938:	54a1      	strb	r1, [r4, r2]
2000193a:	465b      	mov	r3, fp
2000193c:	2b00      	cmp	r3, #0
2000193e:	d000      	beq.n	20001942 <_ZN10WildPebble13ProcessSampleEv+0x826>
20001940:	e589      	b.n	20001456 <_ZN10WildPebble13ProcessSampleEv+0x33a>
20001942:	23b4      	movs	r3, #180	@ 0xb4
20001944:	009b      	lsls	r3, r3, #2
20001946:	58e3      	ldr	r3, [r4, r3]
20001948:	035a      	lsls	r2, r3, #13
2000194a:	405a      	eors	r2, r3
2000194c:	0c53      	lsrs	r3, r2, #17
2000194e:	4053      	eors	r3, r2
20001950:	015d      	lsls	r5, r3, #5
20001952:	405d      	eors	r5, r3
20001954:	075b      	lsls	r3, r3, #29
20001956:	d100      	bne.n	2000195a <_ZN10WildPebble13ProcessSampleEv+0x83e>
20001958:	e16c      	b.n	20001c34 <_ZN10WildPebble13ProcessSampleEv+0xb18>
2000195a:	4653      	mov	r3, sl
2000195c:	10fa      	asrs	r2, r7, #3
2000195e:	111b      	asrs	r3, r3, #4
20001960:	189b      	adds	r3, r3, r2
20001962:	2bff      	cmp	r3, #255	@ 0xff
20001964:	dd00      	ble.n	20001968 <_ZN10WildPebble13ProcessSampleEv+0x84c>
20001966:	23ff      	movs	r3, #255	@ 0xff
20001968:	9a01      	ldr	r2, [sp, #4]
2000196a:	2a02      	cmp	r2, #2
2000196c:	d100      	bne.n	20001970 <_ZN10WildPebble13ProcessSampleEv+0x854>
2000196e:	e15d      	b.n	20001c2c <_ZN10WildPebble13ProcessSampleEv+0xb10>
20001970:	2a01      	cmp	r2, #1
20001972:	d100      	bne.n	20001976 <_ZN10WildPebble13ProcessSampleEv+0x85a>
20001974:	e203      	b.n	20001d7e <_ZN10WildPebble13ProcessSampleEv+0xc62>
20001976:	22ff      	movs	r2, #255	@ 0xff
20001978:	1ad3      	subs	r3, r2, r3
2000197a:	036a      	lsls	r2, r5, #13
2000197c:	406a      	eors	r2, r5
2000197e:	0c51      	lsrs	r1, r2, #17
20001980:	4051      	eors	r1, r2
20001982:	014a      	lsls	r2, r1, #5
20001984:	404a      	eors	r2, r1
20001986:	21ff      	movs	r1, #255	@ 0xff
20001988:	4011      	ands	r1, r2
2000198a:	2b04      	cmp	r3, #4
2000198c:	da00      	bge.n	20001990 <_ZN10WildPebble13ProcessSampleEv+0x874>
2000198e:	2304      	movs	r3, #4
20001990:	4299      	cmp	r1, r3
20001992:	d900      	bls.n	20001996 <_ZN10WildPebble13ProcessSampleEv+0x87a>
20001994:	e12d      	b.n	20001bf2 <_ZN10WildPebble13ProcessSampleEv+0xad6>
20001996:	23b4      	movs	r3, #180	@ 0xb4
20001998:	009b      	lsls	r3, r3, #2
2000199a:	50e2      	str	r2, [r4, r3]
2000199c:	22a5      	movs	r2, #165	@ 0xa5
2000199e:	0092      	lsls	r2, r2, #2
200019a0:	58a3      	ldr	r3, [r4, r2]
200019a2:	2b00      	cmp	r3, #0
200019a4:	dd00      	ble.n	200019a8 <_ZN10WildPebble13ProcessSampleEv+0x88c>
200019a6:	e55c      	b.n	20001462 <_ZN10WildPebble13ProcessSampleEv+0x346>
200019a8:	23a4      	movs	r3, #164	@ 0xa4
200019aa:	22a6      	movs	r2, #166	@ 0xa6
200019ac:	2100      	movs	r1, #0
200019ae:	009b      	lsls	r3, r3, #2
200019b0:	0092      	lsls	r2, r2, #2
200019b2:	54e1      	strb	r1, [r4, r3]
200019b4:	58a3      	ldr	r3, [r4, r2]
200019b6:	2b00      	cmp	r3, #0
200019b8:	dc00      	bgt.n	200019bc <_ZN10WildPebble13ProcessSampleEv+0x8a0>
200019ba:	e0bd      	b.n	20001b38 <_ZN10WildPebble13ProcessSampleEv+0xa1c>
200019bc:	3b01      	subs	r3, #1
200019be:	50a3      	str	r3, [r4, r2]
200019c0:	4b6f      	ldr	r3, [pc, #444]	@ (20001b80 <_ZN10WildPebble13ProcessSampleEv+0xa64>)
200019c2:	5ce2      	ldrb	r2, [r4, r3]
200019c4:	2378      	movs	r3, #120	@ 0x78
200019c6:	4251      	negs	r1, r2
200019c8:	400b      	ands	r3, r1
200019ca:	21d0      	movs	r1, #208	@ 0xd0
200019cc:	2080      	movs	r0, #128	@ 0x80
200019ce:	0609      	lsls	r1, r1, #24
200019d0:	0040      	lsls	r0, r0, #1
200019d2:	6148      	str	r0, [r1, #20]
200019d4:	2a00      	cmp	r2, #0
200019d6:	d100      	bne.n	200019da <_ZN10WildPebble13ProcessSampleEv+0x8be>
200019d8:	e0b6      	b.n	20001b48 <_ZN10WildPebble13ProcessSampleEv+0xa2c>
200019da:	2280      	movs	r2, #128	@ 0x80
200019dc:	0092      	lsls	r2, r2, #2
200019de:	618a      	str	r2, [r1, #24]
200019e0:	219d      	movs	r1, #157	@ 0x9d
200019e2:	229c      	movs	r2, #156	@ 0x9c
200019e4:	0089      	lsls	r1, r1, #2
200019e6:	5861      	ldr	r1, [r4, r1]
200019e8:	0092      	lsls	r2, r2, #2
200019ea:	468b      	mov	fp, r1
200019ec:	4963      	ldr	r1, [pc, #396]	@ (20001b7c <_ZN10WildPebble13ProcessSampleEv+0xa60>)
200019ee:	58a2      	ldr	r2, [r4, r2]
200019f0:	5c61      	ldrb	r1, [r4, r1]
200019f2:	2900      	cmp	r1, #0
200019f4:	d000      	beq.n	200019f8 <_ZN10WildPebble13ProcessSampleEv+0x8dc>
200019f6:	e0cd      	b.n	20001b94 <_ZN10WildPebble13ProcessSampleEv+0xa78>
200019f8:	2100      	movs	r1, #0
200019fa:	9100      	str	r1, [sp, #0]
200019fc:	e584      	b.n	20001508 <_ZN10WildPebble13ProcessSampleEv+0x3ec>
200019fe:	2300      	movs	r3, #0
20001a00:	e4b3      	b.n	2000136a <_ZN10WildPebble13ProcessSampleEv+0x24e>
20001a02:	2300      	movs	r3, #0
20001a04:	e49d      	b.n	20001342 <_ZN10WildPebble13ProcessSampleEv+0x226>
20001a06:	2385      	movs	r3, #133	@ 0x85
20001a08:	005b      	lsls	r3, r3, #1
20001a0a:	5ce3      	ldrb	r3, [r4, r3]
20001a0c:	2b00      	cmp	r3, #0
20001a0e:	d000      	beq.n	20001a12 <_ZN10WildPebble13ProcessSampleEv+0x8f6>
20001a10:	e422      	b.n	20001258 <_ZN10WildPebble13ProcessSampleEv+0x13c>
20001a12:	e6ad      	b.n	20001770 <_ZN10WildPebble13ProcessSampleEv+0x654>
20001a14:	2382      	movs	r3, #130	@ 0x82
20001a16:	005b      	lsls	r3, r3, #1
20001a18:	0019      	movs	r1, r3
20001a1a:	e4fe      	b.n	2000141a <_ZN10WildPebble13ProcessSampleEv+0x2fe>
20001a1c:	23a8      	movs	r3, #168	@ 0xa8
20001a1e:	009b      	lsls	r3, r3, #2
20001a20:	58e1      	ldr	r1, [r4, r3]
20001a22:	3b08      	subs	r3, #8
20001a24:	50e1      	str	r1, [r4, r3]
20001a26:	23a1      	movs	r3, #161	@ 0xa1
20001a28:	4956      	ldr	r1, [pc, #344]	@ (20001b84 <_ZN10WildPebble13ProcessSampleEv+0xa68>)
20001a2a:	009b      	lsls	r3, r3, #2
20001a2c:	10d2      	asrs	r2, r2, #3
20001a2e:	50e1      	str	r1, [r4, r3]
20001a30:	321c      	adds	r2, #28
20001a32:	3308      	adds	r3, #8
20001a34:	50e2      	str	r2, [r4, r3]
20001a36:	9b03      	ldr	r3, [sp, #12]
20001a38:	2b00      	cmp	r3, #0
20001a3a:	d000      	beq.n	20001a3e <_ZN10WildPebble13ProcessSampleEv+0x922>
20001a3c:	e76b      	b.n	20001916 <_ZN10WildPebble13ProcessSampleEv+0x7fa>
20001a3e:	4653      	mov	r3, sl
20001a40:	10c0      	asrs	r0, r0, #3
20001a42:	1119      	asrs	r1, r3, #4
20001a44:	1809      	adds	r1, r1, r0
20001a46:	29ff      	cmp	r1, #255	@ 0xff
20001a48:	dd00      	ble.n	20001a4c <_ZN10WildPebble13ProcessSampleEv+0x930>
20001a4a:	21ff      	movs	r1, #255	@ 0xff
20001a4c:	9a01      	ldr	r2, [sp, #4]
20001a4e:	0020      	movs	r0, r4
20001a50:	f7ff fa6c 	bl	20000f2c <_ZN10WildPebble6MutateEll>
20001a54:	239b      	movs	r3, #155	@ 0x9b
20001a56:	009b      	lsls	r3, r3, #2
20001a58:	58e3      	ldr	r3, [r4, r3]
20001a5a:	001a      	movs	r2, r3
20001a5c:	469b      	mov	fp, r3
20001a5e:	2303      	movs	r3, #3
20001a60:	401a      	ands	r2, r3
20001a62:	9200      	str	r2, [sp, #0]
20001a64:	e757      	b.n	20001916 <_ZN10WildPebble13ProcessSampleEv+0x7fa>
20001a66:	23a6      	movs	r3, #166	@ 0xa6
20001a68:	4946      	ldr	r1, [pc, #280]	@ (20001b84 <_ZN10WildPebble13ProcessSampleEv+0xa68>)
20001a6a:	009b      	lsls	r3, r3, #2
20001a6c:	50e6      	str	r6, [r4, r3]
20001a6e:	1152      	asrs	r2, r2, #5
20001a70:	3b1c      	subs	r3, #28
20001a72:	50e1      	str	r1, [r4, r3]
20001a74:	320e      	adds	r2, #14
20001a76:	3304      	adds	r3, #4
20001a78:	50e2      	str	r2, [r4, r3]
20001a7a:	e748      	b.n	2000190e <_ZN10WildPebble13ProcessSampleEv+0x7f2>
20001a7c:	321e      	adds	r2, #30
20001a7e:	e42a      	b.n	200012d6 <_ZN10WildPebble13ProcessSampleEv+0x1ba>
20001a80:	4e41      	ldr	r6, [pc, #260]	@ (20001b88 <_ZN10WildPebble13ProcessSampleEv+0xa6c>)
20001a82:	4f42      	ldr	r7, [pc, #264]	@ (20001b8c <_ZN10WildPebble13ProcessSampleEv+0xa70>)
20001a84:	1292      	asrs	r2, r2, #10
20001a86:	1992      	adds	r2, r2, r6
20001a88:	42b9      	cmp	r1, r7
20001a8a:	da00      	bge.n	20001a8e <_ZN10WildPebble13ProcessSampleEv+0x972>
20001a8c:	e5bd      	b.n	2000160a <_ZN10WildPebble13ProcessSampleEv+0x4ee>
20001a8e:	000a      	movs	r2, r1
20001a90:	e5bb      	b.n	2000160a <_ZN10WildPebble13ProcessSampleEv+0x4ee>
20001a92:	483e      	ldr	r0, [pc, #248]	@ (20001b8c <_ZN10WildPebble13ProcessSampleEv+0xa70>)
20001a94:	4282      	cmp	r2, r0
20001a96:	db00      	blt.n	20001a9a <_ZN10WildPebble13ProcessSampleEv+0x97e>
20001a98:	e563      	b.n	20001562 <_ZN10WildPebble13ProcessSampleEv+0x446>
20001a9a:	483b      	ldr	r0, [pc, #236]	@ (20001b88 <_ZN10WildPebble13ProcessSampleEv+0xa6c>)
20001a9c:	1092      	asrs	r2, r2, #2
20001a9e:	1812      	adds	r2, r2, r0
20001aa0:	e55f      	b.n	20001562 <_ZN10WildPebble13ProcessSampleEv+0x446>
20001aa2:	2e00      	cmp	r6, #0
20001aa4:	d05a      	beq.n	20001b5c <_ZN10WildPebble13ProcessSampleEv+0xa40>
20001aa6:	2600      	movs	r6, #0
20001aa8:	317d      	adds	r1, #125	@ 0x7d
20001aaa:	31ff      	adds	r1, #255	@ 0xff
20001aac:	1a89      	subs	r1, r1, r2
20001aae:	0049      	lsls	r1, r1, #1
20001ab0:	4379      	muls	r1, r7
20001ab2:	128a      	asrs	r2, r1, #10
20001ab4:	1992      	adds	r2, r2, r6
20001ab6:	189b      	adds	r3, r3, r2
20001ab8:	22c0      	movs	r2, #192	@ 0xc0
20001aba:	00d2      	lsls	r2, r2, #3
20001abc:	4293      	cmp	r3, r2
20001abe:	dd04      	ble.n	20001aca <_ZN10WildPebble13ProcessSampleEv+0x9ae>
20001ac0:	3a81      	subs	r2, #129	@ 0x81
20001ac2:	109b      	asrs	r3, r3, #2
20001ac4:	3aff      	subs	r2, #255	@ 0xff
20001ac6:	189b      	adds	r3, r3, r2
20001ac8:	e5e3      	b.n	20001692 <_ZN10WildPebble13ProcessSampleEv+0x576>
20001aca:	4a30      	ldr	r2, [pc, #192]	@ (20001b8c <_ZN10WildPebble13ProcessSampleEv+0xa70>)
20001acc:	4293      	cmp	r3, r2
20001ace:	db00      	blt.n	20001ad2 <_ZN10WildPebble13ProcessSampleEv+0x9b6>
20001ad0:	e5df      	b.n	20001692 <_ZN10WildPebble13ProcessSampleEv+0x576>
20001ad2:	4a2d      	ldr	r2, [pc, #180]	@ (20001b88 <_ZN10WildPebble13ProcessSampleEv+0xa6c>)
20001ad4:	109b      	asrs	r3, r3, #2
20001ad6:	189b      	adds	r3, r3, r2
20001ad8:	e5db      	b.n	20001692 <_ZN10WildPebble13ProcessSampleEv+0x576>
20001ada:	2900      	cmp	r1, #0
20001adc:	d042      	beq.n	20001b64 <_ZN10WildPebble13ProcessSampleEv+0xa48>
20001ade:	2180      	movs	r1, #128	@ 0x80
20001ae0:	00c9      	lsls	r1, r1, #3
20001ae2:	1a89      	subs	r1, r1, r2
20001ae4:	0049      	lsls	r1, r1, #1
20001ae6:	e584      	b.n	200015f2 <_ZN10WildPebble13ProcessSampleEv+0x4d6>
20001ae8:	1e7a      	subs	r2, r7, #1
20001aea:	27a1      	movs	r7, #161	@ 0xa1
20001aec:	00bf      	lsls	r7, r7, #2
20001aee:	51e2      	str	r2, [r4, r7]
20001af0:	434a      	muls	r2, r1
20001af2:	1292      	asrs	r2, r2, #10
20001af4:	189b      	adds	r3, r3, r2
20001af6:	e5cc      	b.n	20001692 <_ZN10WildPebble13ProcessSampleEv+0x576>
20001af8:	4925      	ldr	r1, [pc, #148]	@ (20001b90 <_ZN10WildPebble13ProcessSampleEv+0xa74>)
20001afa:	1851      	adds	r1, r2, r1
20001afc:	133a      	asrs	r2, r7, #12
20001afe:	3201      	adds	r2, #1
20001b00:	1abf      	subs	r7, r7, r2
20001b02:	229f      	movs	r2, #159	@ 0x9f
20001b04:	0049      	lsls	r1, r1, #1
20001b06:	0092      	lsls	r2, r2, #2
20001b08:	2f00      	cmp	r7, #0
20001b0a:	db00      	blt.n	20001b0e <_ZN10WildPebble13ProcessSampleEv+0x9f2>
20001b0c:	e570      	b.n	200015f0 <_ZN10WildPebble13ProcessSampleEv+0x4d4>
20001b0e:	2100      	movs	r1, #0
20001b10:	50a1      	str	r1, [r4, r2]
20001b12:	2200      	movs	r2, #0
20001b14:	e579      	b.n	2000160a <_ZN10WildPebble13ProcessSampleEv+0x4ee>
20001b16:	2200      	movs	r2, #0
20001b18:	4b19      	ldr	r3, [pc, #100]	@ (20001b80 <_ZN10WildPebble13ProcessSampleEv+0xa64>)
20001b1a:	54e2      	strb	r2, [r4, r3]
20001b1c:	2900      	cmp	r1, #0
20001b1e:	d00d      	beq.n	20001b3c <_ZN10WildPebble13ProcessSampleEv+0xa20>
20001b20:	23d0      	movs	r3, #208	@ 0xd0
20001b22:	2280      	movs	r2, #128	@ 0x80
20001b24:	061b      	lsls	r3, r3, #24
20001b26:	0052      	lsls	r2, r2, #1
20001b28:	619a      	str	r2, [r3, #24]
20001b2a:	23d0      	movs	r3, #208	@ 0xd0
20001b2c:	2280      	movs	r2, #128	@ 0x80
20001b2e:	061b      	lsls	r3, r3, #24
20001b30:	0092      	lsls	r2, r2, #2
20001b32:	615a      	str	r2, [r3, #20]
20001b34:	2300      	movs	r3, #0
20001b36:	e4b2      	b.n	2000149e <_ZN10WildPebble13ProcessSampleEv+0x382>
20001b38:	4b11      	ldr	r3, [pc, #68]	@ (20001b80 <_ZN10WildPebble13ProcessSampleEv+0xa64>)
20001b3a:	54e1      	strb	r1, [r4, r3]
20001b3c:	23d0      	movs	r3, #208	@ 0xd0
20001b3e:	2280      	movs	r2, #128	@ 0x80
20001b40:	061b      	lsls	r3, r3, #24
20001b42:	0052      	lsls	r2, r2, #1
20001b44:	615a      	str	r2, [r3, #20]
20001b46:	2300      	movs	r3, #0
20001b48:	22d0      	movs	r2, #208	@ 0xd0
20001b4a:	2180      	movs	r1, #128	@ 0x80
20001b4c:	0612      	lsls	r2, r2, #24
20001b4e:	0089      	lsls	r1, r1, #2
20001b50:	6151      	str	r1, [r2, #20]
20001b52:	e745      	b.n	200019e0 <_ZN10WildPebble13ProcessSampleEv+0x8c4>
20001b54:	2300      	movs	r3, #0
20001b56:	5063      	str	r3, [r4, r1]
20001b58:	f7ff fb80 	bl	2000125c <_ZN10WildPebble13ProcessSampleEv+0x140>
20001b5c:	490c      	ldr	r1, [pc, #48]	@ (20001b90 <_ZN10WildPebble13ProcessSampleEv+0xa74>)
20001b5e:	4441      	add	r1, r8
20001b60:	0049      	lsls	r1, r1, #1
20001b62:	e7a5      	b.n	20001ab0 <_ZN10WildPebble13ProcessSampleEv+0x994>
20001b64:	490a      	ldr	r1, [pc, #40]	@ (20001b90 <_ZN10WildPebble13ProcessSampleEv+0xa74>)
20001b66:	1851      	adds	r1, r2, r1
20001b68:	0049      	lsls	r1, r1, #1
20001b6a:	e542      	b.n	200015f2 <_ZN10WildPebble13ProcessSampleEv+0x4d6>
20001b6c:	20008ef5 	.word	0x20008ef5
20001b70:	20008ef4 	.word	0x20008ef4
20001b74:	000002bb 	.word	0x000002bb
20001b78:	20008a4c 	.word	0x20008a4c
20001b7c:	000002ba 	.word	0x000002ba
20001b80:	00000291 	.word	0x00000291
20001b84:	00000fff 	.word	0x00000fff
20001b88:	fffffb80 	.word	0xfffffb80
20001b8c:	fffffa00 	.word	0xfffffa00
20001b90:	fffffc00 	.word	0xfffffc00
20001b94:	271f      	movs	r7, #31
20001b96:	4984      	ldr	r1, [pc, #528]	@ (20001da8 <_ZN10WildPebble13ProcessSampleEv+0xc8c>)
20001b98:	7808      	ldrb	r0, [r1, #0]
20001b9a:	3001      	adds	r0, #1
20001b9c:	4007      	ands	r7, r0
20001b9e:	4883      	ldr	r0, [pc, #524]	@ (20001dac <_ZN10WildPebble13ProcessSampleEv+0xc90>)
20001ba0:	7800      	ldrb	r0, [r0, #0]
20001ba2:	4287      	cmp	r7, r0
20001ba4:	d016      	beq.n	20001bd4 <_ZN10WildPebble13ProcessSampleEv+0xab8>
20001ba6:	780e      	ldrb	r6, [r1, #0]
20001ba8:	4881      	ldr	r0, [pc, #516]	@ (20001db0 <_ZN10WildPebble13ProcessSampleEv+0xc94>)
20001baa:	0075      	lsls	r5, r6, #1
20001bac:	1976      	adds	r6, r6, r5
20001bae:	2580      	movs	r5, #128	@ 0x80
20001bb0:	5c20      	ldrb	r0, [r4, r0]
20001bb2:	4684      	mov	ip, r0
20001bb4:	487f      	ldr	r0, [pc, #508]	@ (20001db4 <_ZN10WildPebble13ProcessSampleEv+0xc98>)
20001bb6:	5435      	strb	r5, [r6, r0]
20001bb8:	780e      	ldrb	r6, [r1, #0]
20001bba:	0075      	lsls	r5, r6, #1
20001bbc:	1976      	adds	r6, r6, r5
20001bbe:	4665      	mov	r5, ip
20001bc0:	1986      	adds	r6, r0, r6
20001bc2:	7075      	strb	r5, [r6, #1]
20001bc4:	780d      	ldrb	r5, [r1, #0]
20001bc6:	46ac      	mov	ip, r5
20001bc8:	006e      	lsls	r6, r5, #1
20001bca:	4466      	add	r6, ip
20001bcc:	1980      	adds	r0, r0, r6
20001bce:	2600      	movs	r6, #0
20001bd0:	7086      	strb	r6, [r0, #2]
20001bd2:	700f      	strb	r7, [r1, #0]
20001bd4:	2000      	movs	r0, #0
20001bd6:	4978      	ldr	r1, [pc, #480]	@ (20001db8 <_ZN10WildPebble13ProcessSampleEv+0xc9c>)
20001bd8:	5460      	strb	r0, [r4, r1]
20001bda:	e70d      	b.n	200019f8 <_ZN10WildPebble13ProcessSampleEv+0x8dc>
20001bdc:	2378      	movs	r3, #120	@ 0x78
20001bde:	2178      	movs	r1, #120	@ 0x78
20001be0:	e41b      	b.n	2000141a <_ZN10WildPebble13ProcessSampleEv+0x2fe>
20001be2:	3f01      	subs	r7, #1
20001be4:	50e7      	str	r7, [r4, r3]
20001be6:	2f27      	cmp	r7, #39	@ 0x27
20001be8:	dd00      	ble.n	20001bec <_ZN10WildPebble13ProcessSampleEv+0xad0>
20001bea:	e6a6      	b.n	2000193a <_ZN10WildPebble13ProcessSampleEv+0x81e>
20001bec:	2301      	movs	r3, #1
20001bee:	54a3      	strb	r3, [r4, r2]
20001bf0:	e6a3      	b.n	2000193a <_ZN10WildPebble13ProcessSampleEv+0x81e>
20001bf2:	0353      	lsls	r3, r2, #13
20001bf4:	405a      	eors	r2, r3
20001bf6:	0c53      	lsrs	r3, r2, #17
20001bf8:	4053      	eors	r3, r2
20001bfa:	015a      	lsls	r2, r3, #5
20001bfc:	405a      	eors	r2, r3
20001bfe:	0353      	lsls	r3, r2, #13
20001c00:	4053      	eors	r3, r2
20001c02:	0c59      	lsrs	r1, r3, #17
20001c04:	4059      	eors	r1, r3
20001c06:	014b      	lsls	r3, r1, #5
20001c08:	404b      	eors	r3, r1
20001c0a:	2103      	movs	r1, #3
20001c0c:	4211      	tst	r1, r2
20001c0e:	d000      	beq.n	20001c12 <_ZN10WildPebble13ProcessSampleEv+0xaf6>
20001c10:	e0a5      	b.n	20001d5e <_ZN10WildPebble13ProcessSampleEv+0xc42>
20001c12:	22b4      	movs	r2, #180	@ 0xb4
20001c14:	0092      	lsls	r2, r2, #2
20001c16:	50a3      	str	r3, [r4, r2]
20001c18:	400b      	ands	r3, r1
20001c1a:	3a04      	subs	r2, #4
20001c1c:	50a3      	str	r3, [r4, r2]
20001c1e:	e41a      	b.n	20001456 <_ZN10WildPebble13ProcessSampleEv+0x33a>
20001c20:	185b      	adds	r3, r3, r1
20001c22:	5023      	str	r3, [r4, r0]
20001c24:	f7ff fc0f 	bl	20001446 <_ZN10WildPebble13ProcessSampleEv+0x32a>
20001c28:	4b64      	ldr	r3, [pc, #400]	@ (20001dbc <_ZN10WildPebble13ProcessSampleEv+0xca0>)
20001c2a:	e65e      	b.n	200018ea <_ZN10WildPebble13ProcessSampleEv+0x7ce>
20001c2c:	109b      	asrs	r3, r3, #2
20001c2e:	32fd      	adds	r2, #253	@ 0xfd
20001c30:	1ad3      	subs	r3, r2, r3
20001c32:	e6a2      	b.n	2000197a <_ZN10WildPebble13ProcessSampleEv+0x85e>
20001c34:	036b      	lsls	r3, r5, #13
20001c36:	406b      	eors	r3, r5
20001c38:	0c5a      	lsrs	r2, r3, #17
20001c3a:	405a      	eors	r2, r3
20001c3c:	0153      	lsls	r3, r2, #5
20001c3e:	4053      	eors	r3, r2
20001c40:	2203      	movs	r2, #3
20001c42:	0359      	lsls	r1, r3, #13
20001c44:	4059      	eors	r1, r3
20001c46:	401a      	ands	r2, r3
20001c48:	0c4b      	lsrs	r3, r1, #17
20001c4a:	404b      	eors	r3, r1
20001c4c:	015d      	lsls	r5, r3, #5
20001c4e:	405d      	eors	r5, r3
20001c50:	2303      	movs	r3, #3
20001c52:	402b      	ands	r3, r5
20001c54:	0099      	lsls	r1, r3, #2
20001c56:	9102      	str	r1, [sp, #8]
20001c58:	429a      	cmp	r2, r3
20001c5a:	d100      	bne.n	20001c5e <_ZN10WildPebble13ProcessSampleEv+0xb42>
20001c5c:	e67d      	b.n	2000195a <_ZN10WildPebble13ProcessSampleEv+0x83e>
20001c5e:	0116      	lsls	r6, r2, #4
20001c60:	19a0      	adds	r0, r4, r6
20001c62:	011e      	lsls	r6, r3, #4
20001c64:	46b4      	mov	ip, r6
20001c66:	21b6      	movs	r1, #182	@ 0xb6
20001c68:	44a4      	add	ip, r4
20001c6a:	4666      	mov	r6, ip
20001c6c:	0049      	lsls	r1, r1, #1
20001c6e:	9000      	str	r0, [sp, #0]
20001c70:	5840      	ldr	r0, [r0, r1]
20001c72:	3217      	adds	r2, #23
20001c74:	5070      	str	r0, [r6, r1]
20001c76:	20d6      	movs	r0, #214	@ 0xd6
20001c78:	9900      	ldr	r1, [sp, #0]
20001c7a:	0040      	lsls	r0, r0, #1
20001c7c:	5809      	ldr	r1, [r1, r0]
20001c7e:	3317      	adds	r3, #23
20001c80:	5031      	str	r1, [r6, r0]
20001c82:	21f6      	movs	r1, #246	@ 0xf6
20001c84:	9800      	ldr	r0, [sp, #0]
20001c86:	0049      	lsls	r1, r1, #1
20001c88:	5840      	ldr	r0, [r0, r1]
20001c8a:	0112      	lsls	r2, r2, #4
20001c8c:	5070      	str	r0, [r6, r1]
20001c8e:	9800      	ldr	r0, [sp, #0]
20001c90:	3140      	adds	r1, #64	@ 0x40
20001c92:	5840      	ldr	r0, [r0, r1]
20001c94:	011b      	lsls	r3, r3, #4
20001c96:	5070      	str	r0, [r6, r1]
20001c98:	2680      	movs	r6, #128	@ 0x80
20001c9a:	46b0      	mov	r8, r6
20001c9c:	18a2      	adds	r2, r4, r2
20001c9e:	18e3      	adds	r3, r4, r3
20001ca0:	6810      	ldr	r0, [r2, #0]
20001ca2:	6851      	ldr	r1, [r2, #4]
20001ca4:	6018      	str	r0, [r3, #0]
20001ca6:	6059      	str	r1, [r3, #4]
20001ca8:	4498      	add	r8, r3
20001caa:	6c10      	ldr	r0, [r2, #64]	@ 0x40
20001cac:	6c51      	ldr	r1, [r2, #68]	@ 0x44
20001cae:	6418      	str	r0, [r3, #64]	@ 0x40
20001cb0:	6459      	str	r1, [r3, #68]	@ 0x44
20001cb2:	0011      	movs	r1, r2
20001cb4:	4646      	mov	r6, r8
20001cb6:	3180      	adds	r1, #128	@ 0x80
20001cb8:	c903      	ldmia	r1, {r0, r1}
20001cba:	c603      	stmia	r6!, {r0, r1}
20001cbc:	32c0      	adds	r2, #192	@ 0xc0
20001cbe:	33c0      	adds	r3, #192	@ 0xc0
20001cc0:	ca03      	ldmia	r2!, {r0, r1}
20001cc2:	c303      	stmia	r3!, {r0, r1}
20001cc4:	23bc      	movs	r3, #188	@ 0xbc
20001cc6:	4666      	mov	r6, ip
20001cc8:	9900      	ldr	r1, [sp, #0]
20001cca:	005b      	lsls	r3, r3, #1
20001ccc:	58ca      	ldr	r2, [r1, r3]
20001cce:	20d6      	movs	r0, #214	@ 0xd6
20001cd0:	50f2      	str	r2, [r6, r3]
20001cd2:	3340      	adds	r3, #64	@ 0x40
20001cd4:	58ca      	ldr	r2, [r1, r3]
20001cd6:	0040      	lsls	r0, r0, #1
20001cd8:	50f2      	str	r2, [r6, r3]
20001cda:	3340      	adds	r3, #64	@ 0x40
20001cdc:	58ca      	ldr	r2, [r1, r3]
20001cde:	50f2      	str	r2, [r6, r3]
20001ce0:	3340      	adds	r3, #64	@ 0x40
20001ce2:	58ca      	ldr	r2, [r1, r3]
20001ce4:	50f2      	str	r2, [r6, r3]
20001ce6:	036b      	lsls	r3, r5, #13
20001ce8:	406b      	eors	r3, r5
20001cea:	0c5a      	lsrs	r2, r3, #17
20001cec:	405a      	eors	r2, r3
20001cee:	0153      	lsls	r3, r2, #5
20001cf0:	4053      	eors	r3, r2
20001cf2:	0359      	lsls	r1, r3, #13
20001cf4:	4059      	eors	r1, r3
20001cf6:	0c4a      	lsrs	r2, r1, #17
20001cf8:	404a      	eors	r2, r1
20001cfa:	0155      	lsls	r5, r2, #5
20001cfc:	4055      	eors	r5, r2
20001cfe:	22b4      	movs	r2, #180	@ 0xb4
20001d00:	0092      	lsls	r2, r2, #2
20001d02:	50a5      	str	r5, [r4, r2]
20001d04:	2203      	movs	r2, #3
20001d06:	9902      	ldr	r1, [sp, #8]
20001d08:	4013      	ands	r3, r2
20001d0a:	185e      	adds	r6, r3, r1
20001d0c:	00b6      	lsls	r6, r6, #2
20001d0e:	19a6      	adds	r6, r4, r6
20001d10:	5833      	ldr	r3, [r6, r0]
20001d12:	2103      	movs	r1, #3
20001d14:	3b01      	subs	r3, #1
20001d16:	0028      	movs	r0, r5
20001d18:	9300      	str	r3, [sp, #0]
20001d1a:	f001 ff21 	bl	20003b60 <__wrap___aeabi_uidiv>
20001d1e:	9b00      	ldr	r3, [sp, #0]
20001d20:	185b      	adds	r3, r3, r1
20001d22:	d435      	bmi.n	20001d90 <_ZN10WildPebble13ProcessSampleEv+0xc74>
20001d24:	2b0e      	cmp	r3, #14
20001d26:	dd32      	ble.n	20001d8e <_ZN10WildPebble13ProcessSampleEv+0xc72>
20001d28:	22d6      	movs	r2, #214	@ 0xd6
20001d2a:	230e      	movs	r3, #14
20001d2c:	0052      	lsls	r2, r2, #1
20001d2e:	50b3      	str	r3, [r6, r2]
20001d30:	e613      	b.n	2000195a <_ZN10WildPebble13ProcessSampleEv+0x83e>
20001d32:	26a1      	movs	r6, #161	@ 0xa1
20001d34:	00b6      	lsls	r6, r6, #2
20001d36:	51a7      	str	r7, [r4, r6]
20001d38:	3e86      	subs	r6, #134	@ 0x86
20001d3a:	3eff      	subs	r6, #255	@ 0xff
20001d3c:	4032      	ands	r2, r6
20001d3e:	3a80      	subs	r2, #128	@ 0x80
20001d40:	00d2      	lsls	r2, r2, #3
20001d42:	437a      	muls	r2, r7
20001d44:	1296      	asrs	r6, r2, #10
20001d46:	e6b3      	b.n	20001ab0 <_ZN10WildPebble13ProcessSampleEv+0x994>
20001d48:	21ac      	movs	r1, #172	@ 0xac
20001d4a:	0089      	lsls	r1, r1, #2
20001d4c:	5c61      	ldrb	r1, [r4, r1]
20001d4e:	3b01      	subs	r3, #1
20001d50:	50a3      	str	r3, [r4, r2]
20001d52:	2900      	cmp	r1, #0
20001d54:	d001      	beq.n	20001d5a <_ZN10WildPebble13ProcessSampleEv+0xc3e>
20001d56:	f7ff fb7e 	bl	20001456 <_ZN10WildPebble13ProcessSampleEv+0x33a>
20001d5a:	f7ff fb55 	bl	20001408 <_ZN10WildPebble13ProcessSampleEv+0x2ec>
20001d5e:	22b4      	movs	r2, #180	@ 0xb4
20001d60:	2001      	movs	r0, #1
20001d62:	0092      	lsls	r2, r2, #2
20001d64:	50a3      	str	r3, [r4, r2]
20001d66:	4003      	ands	r3, r0
20001d68:	1e5a      	subs	r2, r3, #1
20001d6a:	23b3      	movs	r3, #179	@ 0xb3
20001d6c:	009b      	lsls	r3, r3, #2
20001d6e:	4382      	bics	r2, r0
20001d70:	58e0      	ldr	r0, [r4, r3]
20001d72:	3201      	adds	r2, #1
20001d74:	1812      	adds	r2, r2, r0
20001d76:	d510      	bpl.n	20001d9a <_ZN10WildPebble13ProcessSampleEv+0xc7e>
20001d78:	50e1      	str	r1, [r4, r3]
20001d7a:	f7ff fb6c 	bl	20001456 <_ZN10WildPebble13ProcessSampleEv+0x33a>
20001d7e:	105b      	asrs	r3, r3, #1
20001d80:	32fe      	adds	r2, #254	@ 0xfe
20001d82:	1ad3      	subs	r3, r2, r3
20001d84:	e5f9      	b.n	2000197a <_ZN10WildPebble13ProcessSampleEv+0x85e>
20001d86:	2378      	movs	r3, #120	@ 0x78
20001d88:	4251      	negs	r1, r2
20001d8a:	400b      	ands	r3, r1
20001d8c:	e61d      	b.n	200019ca <_ZN10WildPebble13ProcessSampleEv+0x8ae>
20001d8e:	469b      	mov	fp, r3
20001d90:	23d6      	movs	r3, #214	@ 0xd6
20001d92:	465a      	mov	r2, fp
20001d94:	005b      	lsls	r3, r3, #1
20001d96:	50f2      	str	r2, [r6, r3]
20001d98:	e5df      	b.n	2000195a <_ZN10WildPebble13ProcessSampleEv+0x83e>
20001d9a:	2a03      	cmp	r2, #3
20001d9c:	dd00      	ble.n	20001da0 <_ZN10WildPebble13ProcessSampleEv+0xc84>
20001d9e:	2200      	movs	r2, #0
20001da0:	50e2      	str	r2, [r4, r3]
20001da2:	f7ff fb58 	bl	20001456 <_ZN10WildPebble13ProcessSampleEv+0x33a>
20001da6:	46c0      	nop			@ (mov r8, r8)
20001da8:	20008ef5 	.word	0x20008ef5
20001dac:	20008ef4 	.word	0x20008ef4
20001db0:	000002bb 	.word	0x000002bb
20001db4:	20008a4c 	.word	0x20008a4c
20001db8:	000002ba 	.word	0x000002ba
20001dbc:	cafebabe 	.word	0xcafebabe

20001dc0 <_ZN12ComputerCard13AudioCallbackEv>:
20001dc0:	b510      	push	{r4, lr}
20001dc2:	4b02      	ldr	r3, [pc, #8]	@ (20001dcc <_ZN12ComputerCard13AudioCallbackEv+0xc>)
20001dc4:	6818      	ldr	r0, [r3, #0]
20001dc6:	f004 fc2f 	bl	20006628 <_ZN12ComputerCard10BufferFullEv>
20001dca:	bd10      	pop	{r4, pc}
20001dcc:	200086a0 	.word	0x200086a0

20001dd0 <_Z14MidiDeviceTaskv>:
20001dd0:	b5f0      	push	{r4, r5, r6, r7, lr}
20001dd2:	46c6      	mov	lr, r8
20001dd4:	b500      	push	{lr}
20001dd6:	4e32      	ldr	r6, [pc, #200]	@ (20001ea0 <_Z14MidiDeviceTaskv+0xd0>)
20001dd8:	4d32      	ldr	r5, [pc, #200]	@ (20001ea4 <_Z14MidiDeviceTaskv+0xd4>)
20001dda:	4c33      	ldr	r4, [pc, #204]	@ (20001ea8 <_Z14MidiDeviceTaskv+0xd8>)
20001ddc:	4f33      	ldr	r7, [pc, #204]	@ (20001eac <_Z14MidiDeviceTaskv+0xdc>)
20001dde:	b092      	sub	sp, #72	@ 0x48
20001de0:	2100      	movs	r1, #0
20001de2:	2000      	movs	r0, #0
20001de4:	f003 fa24 	bl	20005230 <tud_midi_n_available>
20001de8:	2800      	cmp	r0, #0
20001dea:	d028      	beq.n	20001e3e <_Z14MidiDeviceTaskv+0x6e>
20001dec:	2340      	movs	r3, #64	@ 0x40
20001dee:	2100      	movs	r1, #0
20001df0:	2000      	movs	r0, #0
20001df2:	aa02      	add	r2, sp, #8
20001df4:	f003 fa2e 	bl	20005254 <tud_midi_n_stream_read>
20001df8:	2800      	cmp	r0, #0
20001dfa:	d0f1      	beq.n	20001de0 <_Z14MidiDeviceTaskv+0x10>
20001dfc:	ab02      	add	r3, sp, #8
20001dfe:	1818      	adds	r0, r3, r0
20001e00:	e00b      	b.n	20001e1a <_Z14MidiDeviceTaskv+0x4a>
20001e02:	2afa      	cmp	r2, #250	@ 0xfa
20001e04:	d013      	beq.n	20001e2e <_Z14MidiDeviceTaskv+0x5e>
20001e06:	2afb      	cmp	r2, #251	@ 0xfb
20001e08:	d015      	beq.n	20001e36 <_Z14MidiDeviceTaskv+0x66>
20001e0a:	2afc      	cmp	r2, #252	@ 0xfc
20001e0c:	d102      	bne.n	20001e14 <_Z14MidiDeviceTaskv+0x44>
20001e0e:	783a      	ldrb	r2, [r7, #0]
20001e10:	3201      	adds	r2, #1
20001e12:	703a      	strb	r2, [r7, #0]
20001e14:	3301      	adds	r3, #1
20001e16:	4283      	cmp	r3, r0
20001e18:	d0e2      	beq.n	20001de0 <_Z14MidiDeviceTaskv+0x10>
20001e1a:	781a      	ldrb	r2, [r3, #0]
20001e1c:	2af8      	cmp	r2, #248	@ 0xf8
20001e1e:	d1f0      	bne.n	20001e02 <_Z14MidiDeviceTaskv+0x32>
20001e20:	7822      	ldrb	r2, [r4, #0]
20001e22:	2aff      	cmp	r2, #255	@ 0xff
20001e24:	d0f6      	beq.n	20001e14 <_Z14MidiDeviceTaskv+0x44>
20001e26:	7822      	ldrb	r2, [r4, #0]
20001e28:	3201      	adds	r2, #1
20001e2a:	7022      	strb	r2, [r4, #0]
20001e2c:	e7f2      	b.n	20001e14 <_Z14MidiDeviceTaskv+0x44>
20001e2e:	782a      	ldrb	r2, [r5, #0]
20001e30:	3201      	adds	r2, #1
20001e32:	702a      	strb	r2, [r5, #0]
20001e34:	e7ee      	b.n	20001e14 <_Z14MidiDeviceTaskv+0x44>
20001e36:	7832      	ldrb	r2, [r6, #0]
20001e38:	3201      	adds	r2, #1
20001e3a:	7032      	strb	r2, [r6, #0]
20001e3c:	e7ea      	b.n	20001e14 <_Z14MidiDeviceTaskv+0x44>
20001e3e:	4c1c      	ldr	r4, [pc, #112]	@ (20001eb0 <_Z14MidiDeviceTaskv+0xe0>)
20001e40:	4f1c      	ldr	r7, [pc, #112]	@ (20001eb4 <_Z14MidiDeviceTaskv+0xe4>)
20001e42:	7823      	ldrb	r3, [r4, #0]
20001e44:	783a      	ldrb	r2, [r7, #0]
20001e46:	429a      	cmp	r2, r3
20001e48:	d026      	beq.n	20001e98 <_Z14MidiDeviceTaskv+0xc8>
20001e4a:	231f      	movs	r3, #31
20001e4c:	4e1a      	ldr	r6, [pc, #104]	@ (20001eb8 <_Z14MidiDeviceTaskv+0xe8>)
20001e4e:	4698      	mov	r8, r3
20001e50:	ad01      	add	r5, sp, #4
20001e52:	e008      	b.n	20001e66 <_Z14MidiDeviceTaskv+0x96>
20001e54:	4642      	mov	r2, r8
20001e56:	7823      	ldrb	r3, [r4, #0]
20001e58:	3301      	adds	r3, #1
20001e5a:	4013      	ands	r3, r2
20001e5c:	7023      	strb	r3, [r4, #0]
20001e5e:	7822      	ldrb	r2, [r4, #0]
20001e60:	783b      	ldrb	r3, [r7, #0]
20001e62:	429a      	cmp	r2, r3
20001e64:	d018      	beq.n	20001e98 <_Z14MidiDeviceTaskv+0xc8>
20001e66:	7822      	ldrb	r2, [r4, #0]
20001e68:	0053      	lsls	r3, r2, #1
20001e6a:	189b      	adds	r3, r3, r2
20001e6c:	5cf1      	ldrb	r1, [r6, r3]
20001e6e:	7822      	ldrb	r2, [r4, #0]
20001e70:	7029      	strb	r1, [r5, #0]
20001e72:	0053      	lsls	r3, r2, #1
20001e74:	189b      	adds	r3, r3, r2
20001e76:	18f3      	adds	r3, r6, r3
20001e78:	7858      	ldrb	r0, [r3, #1]
20001e7a:	7822      	ldrb	r2, [r4, #0]
20001e7c:	7068      	strb	r0, [r5, #1]
20001e7e:	0053      	lsls	r3, r2, #1
20001e80:	189b      	adds	r3, r3, r2
20001e82:	18f3      	adds	r3, r6, r3
20001e84:	789b      	ldrb	r3, [r3, #2]
20001e86:	002a      	movs	r2, r5
20001e88:	70ab      	strb	r3, [r5, #2]
20001e8a:	2100      	movs	r1, #0
20001e8c:	2303      	movs	r3, #3
20001e8e:	2000      	movs	r0, #0
20001e90:	f003 fa72 	bl	20005378 <tud_midi_n_stream_write>
20001e94:	2800      	cmp	r0, #0
20001e96:	d1dd      	bne.n	20001e54 <_Z14MidiDeviceTaskv+0x84>
20001e98:	b012      	add	sp, #72	@ 0x48
20001e9a:	bc80      	pop	{r7}
20001e9c:	46b8      	mov	r8, r7
20001e9e:	bdf0      	pop	{r4, r5, r6, r7, pc}
20001ea0:	20008ef3 	.word	0x20008ef3
20001ea4:	20008ef6 	.word	0x20008ef6
20001ea8:	20008ef2 	.word	0x20008ef2
20001eac:	20008ef7 	.word	0x20008ef7
20001eb0:	20008ef4 	.word	0x20008ef4
20001eb4:	20008ef5 	.word	0x20008ef5
20001eb8:	20008a4c 	.word	0x20008a4c

20001ebc <main>:
20001ebc:	b500      	push	{lr}
20001ebe:	b085      	sub	sp, #20
20001ec0:	4810      	ldr	r0, [pc, #64]	@ (20001f04 <main+0x48>)
20001ec2:	ab03      	add	r3, sp, #12
20001ec4:	aa02      	add	r2, sp, #8
20001ec6:	a901      	add	r1, sp, #4
20001ec8:	f001 faf6 	bl	200034b8 <check_sys_clock_khz>
20001ecc:	2800      	cmp	r0, #0
20001ece:	d103      	bne.n	20001ed8 <main+0x1c>
20001ed0:	480d      	ldr	r0, [pc, #52]	@ (20001f08 <main+0x4c>)
20001ed2:	490c      	ldr	r1, [pc, #48]	@ (20001f04 <main+0x48>)
20001ed4:	f000 f9ba 	bl	2000224c <panic>
20001ed8:	9a03      	ldr	r2, [sp, #12]
20001eda:	9902      	ldr	r1, [sp, #8]
20001edc:	9801      	ldr	r0, [sp, #4]
20001ede:	f001 fa11 	bl	20003304 <set_sys_clock_pll>
20001ee2:	f003 ff9b 	bl	20005e1c <board_init>
20001ee6:	2100      	movs	r1, #0
20001ee8:	0008      	movs	r0, r1
20001eea:	f003 fc8d 	bl	20005808 <tusb_rhport_init>
20001eee:	4807      	ldr	r0, [pc, #28]	@ (20001f0c <main+0x50>)
20001ef0:	f002 f9de 	bl	200042b0 <multicore_launch_core1>
20001ef4:	2001      	movs	r0, #1
20001ef6:	2100      	movs	r1, #0
20001ef8:	4240      	negs	r0, r0
20001efa:	f002 fc19 	bl	20004730 <tud_task_ext>
20001efe:	f7ff ff67 	bl	20001dd0 <_Z14MidiDeviceTaskv>
20001f02:	e7f7      	b.n	20001ef4 <main+0x38>
20001f04:	00023280 	.word	0x00023280
20001f08:	20007a64 	.word	0x20007a64
20001f0c:	20000215 	.word	0x20000215

20001f10 <_GLOBAL__sub_I__ZN12ComputerCard7cvValueE>:
20001f10:	b5f0      	push	{r4, r5, r6, r7, lr}
20001f12:	46c6      	mov	lr, r8
20001f14:	4c75      	ldr	r4, [pc, #468]	@ (200020ec <_GLOBAL__sub_I__ZN12ComputerCard7cvValueE+0x1dc>)
20001f16:	b500      	push	{lr}
20001f18:	0020      	movs	r0, r4
20001f1a:	f7fe fde7 	bl	20000aec <_ZN12ComputerCardC1Ev>
20001f1e:	4b74      	ldr	r3, [pc, #464]	@ (200020f0 <_GLOBAL__sub_I__ZN12ComputerCard7cvValueE+0x1e0>)
20001f20:	2201      	movs	r2, #1
20001f22:	6023      	str	r3, [r4, #0]
20001f24:	239b      	movs	r3, #155	@ 0x9b
20001f26:	4252      	negs	r2, r2
20001f28:	009b      	lsls	r3, r3, #2
20001f2a:	50e2      	str	r2, [r4, r3]
20001f2c:	21a4      	movs	r1, #164	@ 0xa4
20001f2e:	3304      	adds	r3, #4
20001f30:	3231      	adds	r2, #49	@ 0x31
20001f32:	50e2      	str	r2, [r4, r3]
20001f34:	2300      	movs	r3, #0
20001f36:	20a7      	movs	r0, #167	@ 0xa7
20001f38:	25c8      	movs	r5, #200	@ 0xc8
20001f3a:	229d      	movs	r2, #157	@ 0x9d
20001f3c:	0089      	lsls	r1, r1, #2
20001f3e:	5263      	strh	r3, [r4, r1]
20001f40:	3104      	adds	r1, #4
20001f42:	5063      	str	r3, [r4, r1]
20001f44:	3104      	adds	r1, #4
20001f46:	5063      	str	r3, [r4, r1]
20001f48:	0080      	lsls	r0, r0, #2
20001f4a:	3124      	adds	r1, #36	@ 0x24
20001f4c:	5021      	str	r1, [r4, r0]
20001f4e:	006d      	lsls	r5, r5, #1
20001f50:	3004      	adds	r0, #4
20001f52:	5025      	str	r5, [r4, r0]
20001f54:	25fa      	movs	r5, #250	@ 0xfa
20001f56:	0092      	lsls	r2, r2, #2
20001f58:	50a3      	str	r3, [r4, r2]
20001f5a:	3204      	adds	r2, #4
20001f5c:	50a3      	str	r3, [r4, r2]
20001f5e:	3204      	adds	r2, #4
20001f60:	50a3      	str	r3, [r4, r2]
20001f62:	3204      	adds	r2, #4
20001f64:	50a3      	str	r3, [r4, r2]
20001f66:	3204      	adds	r2, #4
20001f68:	50a3      	str	r3, [r4, r2]
20001f6a:	3004      	adds	r0, #4
20001f6c:	3204      	adds	r2, #4
20001f6e:	5023      	str	r3, [r4, r0]
20001f70:	50a3      	str	r3, [r4, r2]
20001f72:	3004      	adds	r0, #4
20001f74:	3204      	adds	r2, #4
20001f76:	5023      	str	r3, [r4, r0]
20001f78:	50a3      	str	r3, [r4, r2]
20001f7a:	3004      	adds	r0, #4
20001f7c:	2200      	movs	r2, #0
20001f7e:	012d      	lsls	r5, r5, #4
20001f80:	5025      	str	r5, [r4, r0]
20001f82:	25c0      	movs	r5, #192	@ 0xc0
20001f84:	3004      	adds	r0, #4
20001f86:	5422      	strb	r2, [r4, r0]
20001f88:	3004      	adds	r0, #4
20001f8a:	5023      	str	r3, [r4, r0]
20001f8c:	05ad      	lsls	r5, r5, #22
20001f8e:	3004      	adds	r0, #4
20001f90:	5025      	str	r5, [r4, r0]
20001f92:	2040      	movs	r0, #64	@ 0x40
20001f94:	2501      	movs	r5, #1
20001f96:	5060      	str	r0, [r4, r1]
20001f98:	3104      	adds	r1, #4
20001f9a:	5465      	strb	r5, [r4, r1]
20001f9c:	3104      	adds	r1, #4
20001f9e:	5063      	str	r3, [r4, r1]
20001fa0:	3104      	adds	r1, #4
20001fa2:	5063      	str	r3, [r4, r1]
20001fa4:	4853      	ldr	r0, [pc, #332]	@ (200020f4 <_GLOBAL__sub_I__ZN12ComputerCard7cvValueE+0x1e4>)
20001fa6:	3104      	adds	r1, #4
20001fa8:	5063      	str	r3, [r4, r1]
20001faa:	3104      	adds	r1, #4
20001fac:	5060      	str	r0, [r4, r1]
20001fae:	3104      	adds	r1, #4
20001fb0:	5462      	strb	r2, [r4, r1]
20001fb2:	22d6      	movs	r2, #214	@ 0xd6
20001fb4:	2180      	movs	r1, #128	@ 0x80
20001fb6:	208b      	movs	r0, #139	@ 0x8b
20001fb8:	26b8      	movs	r6, #184	@ 0xb8
20001fba:	0052      	lsls	r2, r2, #1
20001fbc:	50a3      	str	r3, [r4, r2]
20001fbe:	3240      	adds	r2, #64	@ 0x40
20001fc0:	50a1      	str	r1, [r4, r2]
20001fc2:	3a8d      	subs	r2, #141	@ 0x8d
20001fc4:	3aff      	subs	r2, #255	@ 0xff
20001fc6:	0080      	lsls	r0, r0, #2
20001fc8:	5022      	str	r2, [r4, r0]
20001fca:	27da      	movs	r7, #218	@ 0xda
20001fcc:	38a1      	subs	r0, #161	@ 0xa1
20001fce:	38ff      	subs	r0, #255	@ 0xff
20001fd0:	0076      	lsls	r6, r6, #1
20001fd2:	51a0      	str	r0, [r4, r6]
20001fd4:	3640      	adds	r6, #64	@ 0x40
20001fd6:	51a5      	str	r5, [r4, r6]
20001fd8:	3640      	adds	r6, #64	@ 0x40
20001fda:	51a1      	str	r1, [r4, r6]
20001fdc:	3640      	adds	r6, #64	@ 0x40
20001fde:	51a2      	str	r2, [r4, r6]
20001fe0:	3ebc      	subs	r6, #188	@ 0xbc
20001fe2:	51a0      	str	r0, [r4, r6]
20001fe4:	3e73      	subs	r6, #115	@ 0x73
20001fe6:	3eff      	subs	r6, #255	@ 0xff
20001fe8:	46b0      	mov	r8, r6
20001fea:	007f      	lsls	r7, r7, #1
20001fec:	51e6      	str	r6, [r4, r7]
20001fee:	3740      	adds	r7, #64	@ 0x40
20001ff0:	51e1      	str	r1, [r4, r7]
20001ff2:	3740      	adds	r7, #64	@ 0x40
20001ff4:	51e2      	str	r2, [r4, r7]
20001ff6:	3fbc      	subs	r7, #188	@ 0xbc
20001ff8:	51e0      	str	r0, [r4, r7]
20001ffa:	3601      	adds	r6, #1
20001ffc:	3740      	adds	r7, #64	@ 0x40
20001ffe:	51e6      	str	r6, [r4, r7]
20002000:	3740      	adds	r7, #64	@ 0x40
20002002:	51e1      	str	r1, [r4, r7]
20002004:	3740      	adds	r7, #64	@ 0x40
20002006:	51e2      	str	r2, [r4, r7]
20002008:	46b4      	mov	ip, r6
2000200a:	3f7c      	subs	r7, #124	@ 0x7c
2000200c:	3601      	adds	r6, #1
2000200e:	51e6      	str	r6, [r4, r7]
20002010:	4646      	mov	r6, r8
20002012:	3740      	adds	r7, #64	@ 0x40
20002014:	51e1      	str	r1, [r4, r7]
20002016:	3740      	adds	r7, #64	@ 0x40
20002018:	51e2      	str	r2, [r4, r7]
2000201a:	3fbc      	subs	r7, #188	@ 0xbc
2000201c:	51e0      	str	r0, [r4, r7]
2000201e:	3740      	adds	r7, #64	@ 0x40
20002020:	51e3      	str	r3, [r4, r7]
20002022:	3740      	adds	r7, #64	@ 0x40
20002024:	51e1      	str	r1, [r4, r7]
20002026:	3740      	adds	r7, #64	@ 0x40
20002028:	51e2      	str	r2, [r4, r7]
2000202a:	3fbc      	subs	r7, #188	@ 0xbc
2000202c:	51e0      	str	r0, [r4, r7]
2000202e:	3740      	adds	r7, #64	@ 0x40
20002030:	51e5      	str	r5, [r4, r7]
20002032:	3740      	adds	r7, #64	@ 0x40
20002034:	51e1      	str	r1, [r4, r7]
20002036:	3740      	adds	r7, #64	@ 0x40
20002038:	51e2      	str	r2, [r4, r7]
2000203a:	3fbc      	subs	r7, #188	@ 0xbc
2000203c:	51e0      	str	r0, [r4, r7]
2000203e:	3740      	adds	r7, #64	@ 0x40
20002040:	51e6      	str	r6, [r4, r7]
20002042:	4666      	mov	r6, ip
20002044:	3740      	adds	r7, #64	@ 0x40
20002046:	51e1      	str	r1, [r4, r7]
20002048:	3740      	adds	r7, #64	@ 0x40
2000204a:	51e2      	str	r2, [r4, r7]
2000204c:	3f7c      	subs	r7, #124	@ 0x7c
2000204e:	51e6      	str	r6, [r4, r7]
20002050:	3740      	adds	r7, #64	@ 0x40
20002052:	51e1      	str	r1, [r4, r7]
20002054:	3740      	adds	r7, #64	@ 0x40
20002056:	51e2      	str	r2, [r4, r7]
20002058:	3fbc      	subs	r7, #188	@ 0xbc
2000205a:	51e0      	str	r0, [r4, r7]
2000205c:	3601      	adds	r6, #1
2000205e:	3740      	adds	r7, #64	@ 0x40
20002060:	51e6      	str	r6, [r4, r7]
20002062:	3740      	adds	r7, #64	@ 0x40
20002064:	51e1      	str	r1, [r4, r7]
20002066:	3740      	adds	r7, #64	@ 0x40
20002068:	51e2      	str	r2, [r4, r7]
2000206a:	3fbc      	subs	r7, #188	@ 0xbc
2000206c:	51e0      	str	r0, [r4, r7]
2000206e:	3740      	adds	r7, #64	@ 0x40
20002070:	51e3      	str	r3, [r4, r7]
20002072:	3740      	adds	r7, #64	@ 0x40
20002074:	51e1      	str	r1, [r4, r7]
20002076:	3740      	adds	r7, #64	@ 0x40
20002078:	51e2      	str	r2, [r4, r7]
2000207a:	3fbc      	subs	r7, #188	@ 0xbc
2000207c:	51e0      	str	r0, [r4, r7]
2000207e:	3740      	adds	r7, #64	@ 0x40
20002080:	51e5      	str	r5, [r4, r7]
20002082:	2586      	movs	r5, #134	@ 0x86
20002084:	4647      	mov	r7, r8
20002086:	00ad      	lsls	r5, r5, #2
20002088:	5161      	str	r1, [r4, r5]
2000208a:	3540      	adds	r5, #64	@ 0x40
2000208c:	5162      	str	r2, [r4, r5]
2000208e:	3d7c      	subs	r5, #124	@ 0x7c
20002090:	5167      	str	r7, [r4, r5]
20002092:	4667      	mov	r7, ip
20002094:	3540      	adds	r5, #64	@ 0x40
20002096:	5161      	str	r1, [r4, r5]
20002098:	3540      	adds	r5, #64	@ 0x40
2000209a:	5162      	str	r2, [r4, r5]
2000209c:	3dbc      	subs	r5, #188	@ 0xbc
2000209e:	5160      	str	r0, [r4, r5]
200020a0:	3540      	adds	r5, #64	@ 0x40
200020a2:	5167      	str	r7, [r4, r5]
200020a4:	3540      	adds	r5, #64	@ 0x40
200020a6:	5161      	str	r1, [r4, r5]
200020a8:	3540      	adds	r5, #64	@ 0x40
200020aa:	5162      	str	r2, [r4, r5]
200020ac:	3dbc      	subs	r5, #188	@ 0xbc
200020ae:	5160      	str	r0, [r4, r5]
200020b0:	3540      	adds	r5, #64	@ 0x40
200020b2:	5166      	str	r6, [r4, r5]
200020b4:	3540      	adds	r5, #64	@ 0x40
200020b6:	5161      	str	r1, [r4, r5]
200020b8:	3540      	adds	r5, #64	@ 0x40
200020ba:	5162      	str	r2, [r4, r5]
200020bc:	3dbc      	subs	r5, #188	@ 0xbc
200020be:	5160      	str	r0, [r4, r5]
200020c0:	305d      	adds	r0, #93	@ 0x5d
200020c2:	30ff      	adds	r0, #255	@ 0xff
200020c4:	5023      	str	r3, [r4, r0]
200020c6:	238a      	movs	r3, #138	@ 0x8a
200020c8:	009b      	lsls	r3, r3, #2
200020ca:	50e1      	str	r1, [r4, r3]
200020cc:	3340      	adds	r3, #64	@ 0x40
200020ce:	50e2      	str	r2, [r4, r3]
200020d0:	3bfc      	subs	r3, #252	@ 0xfc
200020d2:	329f      	adds	r2, #159	@ 0x9f
200020d4:	50e2      	str	r2, [r4, r3]
200020d6:	3b90      	subs	r3, #144	@ 0x90
200020d8:	327d      	adds	r2, #125	@ 0x7d
200020da:	50a3      	str	r3, [r4, r2]
200020dc:	3210      	adds	r2, #16
200020de:	50a3      	str	r3, [r4, r2]
200020e0:	3210      	adds	r2, #16
200020e2:	50a3      	str	r3, [r4, r2]
200020e4:	bc80      	pop	{r7}
200020e6:	46b8      	mov	r8, r7
200020e8:	bdf0      	pop	{r4, r5, r6, r7, pc}
200020ea:	46c0      	nop			@ (mov r8, r8)
200020ec:	20008048 	.word	0x20008048
200020f0:	20007c10 	.word	0x20007c10
200020f4:	cafebabe 	.word	0xcafebabe

200020f8 <tud_descriptor_device_cb>:
200020f8:	4800      	ldr	r0, [pc, #0]	@ (200020fc <tud_descriptor_device_cb+0x4>)
200020fa:	4770      	bx	lr
200020fc:	20007d18 	.word	0x20007d18

20002100 <tud_descriptor_configuration_cb>:
20002100:	4800      	ldr	r0, [pc, #0]	@ (20002104 <tud_descriptor_configuration_cb+0x4>)
20002102:	4770      	bx	lr
20002104:	20007cb0 	.word	0x20007cb0

20002108 <tud_descriptor_string_cb>:
20002108:	b570      	push	{r4, r5, r6, lr}
2000210a:	2800      	cmp	r0, #0
2000210c:	d026      	beq.n	2000215c <tud_descriptor_string_cb+0x54>
2000210e:	2804      	cmp	r0, #4
20002110:	d833      	bhi.n	2000217a <tud_descriptor_string_cb+0x72>
20002112:	4b1b      	ldr	r3, [pc, #108]	@ (20002180 <tud_descriptor_string_cb+0x78>)
20002114:	0080      	lsls	r0, r0, #2
20002116:	58c4      	ldr	r4, [r0, r3]
20002118:	0020      	movs	r0, r4
2000211a:	f004 f961 	bl	200063e0 <strlen>
2000211e:	b2c3      	uxtb	r3, r0
20002120:	1c18      	adds	r0, r3, #0
20002122:	2b1f      	cmp	r3, #31
20002124:	d818      	bhi.n	20002158 <tud_descriptor_string_cb+0x50>
20002126:	21c0      	movs	r1, #192	@ 0xc0
20002128:	b2c0      	uxtb	r0, r0
2000212a:	1c42      	adds	r2, r0, #1
2000212c:	b2d2      	uxtb	r2, r2
2000212e:	0052      	lsls	r2, r2, #1
20002130:	0089      	lsls	r1, r1, #2
20002132:	4311      	orrs	r1, r2
20002134:	000d      	movs	r5, r1
20002136:	2b00      	cmp	r3, #0
20002138:	d01c      	beq.n	20002174 <tud_descriptor_string_cb+0x6c>
2000213a:	4b12      	ldr	r3, [pc, #72]	@ (20002184 <tud_descriptor_string_cb+0x7c>)
2000213c:	469c      	mov	ip, r3
2000213e:	1c9a      	adds	r2, r3, #2
20002140:	2300      	movs	r3, #0
20002142:	5ce1      	ldrb	r1, [r4, r3]
20002144:	3301      	adds	r3, #1
20002146:	8011      	strh	r1, [r2, #0]
20002148:	b2d9      	uxtb	r1, r3
2000214a:	3202      	adds	r2, #2
2000214c:	4288      	cmp	r0, r1
2000214e:	d8f8      	bhi.n	20002142 <tud_descriptor_string_cb+0x3a>
20002150:	4663      	mov	r3, ip
20002152:	4660      	mov	r0, ip
20002154:	801d      	strh	r5, [r3, #0]
20002156:	bd70      	pop	{r4, r5, r6, pc}
20002158:	201f      	movs	r0, #31
2000215a:	e7e4      	b.n	20002126 <tud_descriptor_string_cb+0x1e>
2000215c:	480a      	ldr	r0, [pc, #40]	@ (20002188 <tud_descriptor_string_cb+0x80>)
2000215e:	25c1      	movs	r5, #193	@ 0xc1
20002160:	0004      	movs	r4, r0
20002162:	4b07      	ldr	r3, [pc, #28]	@ (20002180 <tud_descriptor_string_cb+0x78>)
20002164:	2202      	movs	r2, #2
20002166:	6819      	ldr	r1, [r3, #0]
20002168:	f001 feb4 	bl	20003ed4 <__wrap___aeabi_memcpy>
2000216c:	1ea3      	subs	r3, r4, #2
2000216e:	469c      	mov	ip, r3
20002170:	00ad      	lsls	r5, r5, #2
20002172:	e7ed      	b.n	20002150 <tud_descriptor_string_cb+0x48>
20002174:	4b03      	ldr	r3, [pc, #12]	@ (20002184 <tud_descriptor_string_cb+0x7c>)
20002176:	469c      	mov	ip, r3
20002178:	e7ea      	b.n	20002150 <tud_descriptor_string_cb+0x48>
2000217a:	2000      	movs	r0, #0
2000217c:	e7eb      	b.n	20002156 <tud_descriptor_string_cb+0x4e>
2000217e:	46c0      	nop			@ (mov r8, r8)
20002180:	20007e68 	.word	0x20007e68
20002184:	20008a00 	.word	0x20008a00
20002188:	20008a02 	.word	0x20008a02

2000218c <gpio_set_function>:
2000218c:	b510      	push	{r4, lr}
2000218e:	2440      	movs	r4, #64	@ 0x40
20002190:	4a07      	ldr	r2, [pc, #28]	@ (200021b0 <gpio_set_function+0x24>)
20002192:	0083      	lsls	r3, r0, #2
20002194:	189a      	adds	r2, r3, r2
20002196:	6812      	ldr	r2, [r2, #0]
20002198:	00c0      	lsls	r0, r0, #3
2000219a:	4054      	eors	r4, r2
2000219c:	22c0      	movs	r2, #192	@ 0xc0
2000219e:	4022      	ands	r2, r4
200021a0:	4c04      	ldr	r4, [pc, #16]	@ (200021b4 <gpio_set_function+0x28>)
200021a2:	191b      	adds	r3, r3, r4
200021a4:	601a      	str	r2, [r3, #0]
200021a6:	4b04      	ldr	r3, [pc, #16]	@ (200021b8 <gpio_set_function+0x2c>)
200021a8:	18c0      	adds	r0, r0, r3
200021aa:	6041      	str	r1, [r0, #4]
200021ac:	bd10      	pop	{r4, pc}
200021ae:	46c0      	nop			@ (mov r8, r8)
200021b0:	4001c004 	.word	0x4001c004
200021b4:	4001d004 	.word	0x4001d004
200021b8:	40014000 	.word	0x40014000

200021bc <gpio_set_pulls>:
200021bc:	4b06      	ldr	r3, [pc, #24]	@ (200021d8 <gpio_set_pulls+0x1c>)
200021be:	0080      	lsls	r0, r0, #2
200021c0:	18c3      	adds	r3, r0, r3
200021c2:	681b      	ldr	r3, [r3, #0]
200021c4:	00c9      	lsls	r1, r1, #3
200021c6:	0092      	lsls	r2, r2, #2
200021c8:	430a      	orrs	r2, r1
200021ca:	405a      	eors	r2, r3
200021cc:	230c      	movs	r3, #12
200021ce:	4013      	ands	r3, r2
200021d0:	4a02      	ldr	r2, [pc, #8]	@ (200021dc <gpio_set_pulls+0x20>)
200021d2:	1880      	adds	r0, r0, r2
200021d4:	6003      	str	r3, [r0, #0]
200021d6:	4770      	bx	lr
200021d8:	4001c004 	.word	0x4001c004
200021dc:	4001d004 	.word	0x4001d004

200021e0 <gpio_set_input_enabled>:
200021e0:	0080      	lsls	r0, r0, #2
200021e2:	2900      	cmp	r1, #0
200021e4:	d004      	beq.n	200021f0 <gpio_set_input_enabled+0x10>
200021e6:	4b05      	ldr	r3, [pc, #20]	@ (200021fc <gpio_set_input_enabled+0x1c>)
200021e8:	18c0      	adds	r0, r0, r3
200021ea:	2340      	movs	r3, #64	@ 0x40
200021ec:	6003      	str	r3, [r0, #0]
200021ee:	4770      	bx	lr
200021f0:	4b03      	ldr	r3, [pc, #12]	@ (20002200 <gpio_set_input_enabled+0x20>)
200021f2:	18c0      	adds	r0, r0, r3
200021f4:	2340      	movs	r3, #64	@ 0x40
200021f6:	6003      	str	r3, [r0, #0]
200021f8:	e7f9      	b.n	200021ee <gpio_set_input_enabled+0xe>
200021fa:	46c0      	nop			@ (mov r8, r8)
200021fc:	4001e004 	.word	0x4001e004
20002200:	4001f004 	.word	0x4001f004

20002204 <gpio_init>:
20002204:	2301      	movs	r3, #1
20002206:	22d0      	movs	r2, #208	@ 0xd0
20002208:	4083      	lsls	r3, r0
2000220a:	0612      	lsls	r2, r2, #24
2000220c:	6293      	str	r3, [r2, #40]	@ 0x28
2000220e:	6193      	str	r3, [r2, #24]
20002210:	4a08      	ldr	r2, [pc, #32]	@ (20002234 <gpio_init+0x30>)
20002212:	0083      	lsls	r3, r0, #2
20002214:	189a      	adds	r2, r3, r2
20002216:	6811      	ldr	r1, [r2, #0]
20002218:	2240      	movs	r2, #64	@ 0x40
2000221a:	4051      	eors	r1, r2
2000221c:	3280      	adds	r2, #128	@ 0x80
2000221e:	400a      	ands	r2, r1
20002220:	4905      	ldr	r1, [pc, #20]	@ (20002238 <gpio_init+0x34>)
20002222:	00c0      	lsls	r0, r0, #3
20002224:	185b      	adds	r3, r3, r1
20002226:	601a      	str	r2, [r3, #0]
20002228:	4b04      	ldr	r3, [pc, #16]	@ (2000223c <gpio_init+0x38>)
2000222a:	18c0      	adds	r0, r0, r3
2000222c:	2305      	movs	r3, #5
2000222e:	6043      	str	r3, [r0, #4]
20002230:	4770      	bx	lr
20002232:	46c0      	nop			@ (mov r8, r8)
20002234:	4001c004 	.word	0x4001c004
20002238:	4001d004 	.word	0x4001d004
2000223c:	40014000 	.word	0x40014000

20002240 <rp2040_chip_version>:
20002240:	2380      	movs	r3, #128	@ 0x80
20002242:	05db      	lsls	r3, r3, #23
20002244:	6818      	ldr	r0, [r3, #0]
20002246:	0f00      	lsrs	r0, r0, #28
20002248:	4770      	bx	lr
2000224a:	46c0      	nop			@ (mov r8, r8)

2000224c <panic>:
2000224c:	b40f      	push	{r0, r1, r2, r3}
2000224e:	b500      	push	{lr}
20002250:	4808      	ldr	r0, [pc, #32]	@ (20002274 <panic+0x28>)
20002252:	b083      	sub	sp, #12
20002254:	f001 ff94 	bl	20004180 <__wrap_puts>
20002258:	9b04      	ldr	r3, [sp, #16]
2000225a:	2b00      	cmp	r3, #0
2000225c:	d007      	beq.n	2000226e <panic+0x22>
2000225e:	a905      	add	r1, sp, #20
20002260:	0018      	movs	r0, r3
20002262:	9101      	str	r1, [sp, #4]
20002264:	f001 fe44 	bl	20003ef0 <weak_raw_vprintf>
20002268:	4803      	ldr	r0, [pc, #12]	@ (20002278 <panic+0x2c>)
2000226a:	f001 ff89 	bl	20004180 <__wrap_puts>
2000226e:	2001      	movs	r0, #1
20002270:	f001 fe56 	bl	20003f20 <_exit>
20002274:	20007ae8 	.word	0x20007ae8
20002278:	20007af8 	.word	0x20007af8

2000227c <hw_claim_or_assert>:
2000227c:	b570      	push	{r4, r5, r6, lr}
2000227e:	468c      	mov	ip, r1
20002280:	0016      	movs	r6, r2
20002282:	f3ef 8410 	mrs	r4, PRIMASK
20002286:	b672      	cpsid	i
20002288:	490f      	ldr	r1, [pc, #60]	@ (200022c8 <hw_claim_or_assert+0x4c>)
2000228a:	680b      	ldr	r3, [r1, #0]
2000228c:	2b00      	cmp	r3, #0
2000228e:	d0fc      	beq.n	2000228a <hw_claim_or_assert+0xe>
20002290:	f3bf 8f5f 	dmb	sy
20002294:	4663      	mov	r3, ip
20002296:	08db      	lsrs	r3, r3, #3
20002298:	18c5      	adds	r5, r0, r3
2000229a:	2207      	movs	r2, #7
2000229c:	5cc0      	ldrb	r0, [r0, r3]
2000229e:	4663      	mov	r3, ip
200022a0:	401a      	ands	r2, r3
200022a2:	2301      	movs	r3, #1
200022a4:	4093      	lsls	r3, r2
200022a6:	001a      	movs	r2, r3
200022a8:	4002      	ands	r2, r0
200022aa:	4203      	tst	r3, r0
200022ac:	d107      	bne.n	200022be <hw_claim_or_assert+0x42>
200022ae:	4318      	orrs	r0, r3
200022b0:	7028      	strb	r0, [r5, #0]
200022b2:	f3bf 8f5f 	dmb	sy
200022b6:	600a      	str	r2, [r1, #0]
200022b8:	f384 8810 	msr	PRIMASK, r4
200022bc:	bd70      	pop	{r4, r5, r6, pc}
200022be:	4661      	mov	r1, ip
200022c0:	0030      	movs	r0, r6
200022c2:	f7ff ffc3 	bl	2000224c <panic>
200022c6:	46c0      	nop			@ (mov r8, r8)
200022c8:	d000012c 	.word	0xd000012c

200022cc <hw_claim_unused_from_range>:
200022cc:	b5f8      	push	{r3, r4, r5, r6, r7, lr}
200022ce:	46ce      	mov	lr, r9
200022d0:	4647      	mov	r7, r8
200022d2:	468c      	mov	ip, r1
200022d4:	b580      	push	{r7, lr}
200022d6:	001c      	movs	r4, r3
200022d8:	f3ef 8810 	mrs	r8, PRIMASK
200022dc:	b672      	cpsid	i
200022de:	491c      	ldr	r1, [pc, #112]	@ (20002350 <hw_claim_unused_from_range+0x84>)
200022e0:	680b      	ldr	r3, [r1, #0]
200022e2:	2b00      	cmp	r3, #0
200022e4:	d0fc      	beq.n	200022e0 <hw_claim_unused_from_range+0x14>
200022e6:	f3bf 8f5f 	dmb	sy
200022ea:	42a2      	cmp	r2, r4
200022ec:	d821      	bhi.n	20002332 <hw_claim_unused_from_range+0x66>
200022ee:	2307      	movs	r3, #7
200022f0:	4699      	mov	r9, r3
200022f2:	e002      	b.n	200022fa <hw_claim_unused_from_range+0x2e>
200022f4:	3201      	adds	r2, #1
200022f6:	4294      	cmp	r4, r2
200022f8:	d318      	bcc.n	2000232c <hw_claim_unused_from_range+0x60>
200022fa:	4649      	mov	r1, r9
200022fc:	2601      	movs	r6, #1
200022fe:	4011      	ands	r1, r2
20002300:	408e      	lsls	r6, r1
20002302:	08d3      	lsrs	r3, r2, #3
20002304:	18c7      	adds	r7, r0, r3
20002306:	5cc3      	ldrb	r3, [r0, r3]
20002308:	421e      	tst	r6, r3
2000230a:	d1f3      	bne.n	200022f4 <hw_claim_unused_from_range+0x28>
2000230c:	0010      	movs	r0, r2
2000230e:	4333      	orrs	r3, r6
20002310:	703b      	strb	r3, [r7, #0]
20002312:	f3bf 8f5f 	dmb	sy
20002316:	2200      	movs	r2, #0
20002318:	4b0d      	ldr	r3, [pc, #52]	@ (20002350 <hw_claim_unused_from_range+0x84>)
2000231a:	601a      	str	r2, [r3, #0]
2000231c:	f388 8810 	msr	PRIMASK, r8
20002320:	2800      	cmp	r0, #0
20002322:	db0e      	blt.n	20002342 <hw_claim_unused_from_range+0x76>
20002324:	bcc0      	pop	{r6, r7}
20002326:	46b9      	mov	r9, r7
20002328:	46b0      	mov	r8, r6
2000232a:	bdf8      	pop	{r3, r4, r5, r6, r7, pc}
2000232c:	2001      	movs	r0, #1
2000232e:	4240      	negs	r0, r0
20002330:	e7ef      	b.n	20002312 <hw_claim_unused_from_range+0x46>
20002332:	f3bf 8f5f 	dmb	sy
20002336:	2300      	movs	r3, #0
20002338:	600b      	str	r3, [r1, #0]
2000233a:	f388 8810 	msr	PRIMASK, r8
2000233e:	2001      	movs	r0, #1
20002340:	4240      	negs	r0, r0
20002342:	4663      	mov	r3, ip
20002344:	2b00      	cmp	r3, #0
20002346:	d0ed      	beq.n	20002324 <hw_claim_unused_from_range+0x58>
20002348:	9808      	ldr	r0, [sp, #32]
2000234a:	f7ff ff7f 	bl	2000224c <panic>
2000234e:	46c0      	nop			@ (mov r8, r8)
20002350:	d000012c 	.word	0xd000012c

20002354 <next_striped_spin_lock_num>:
20002354:	4a04      	ldr	r2, [pc, #16]	@ (20002368 <next_striped_spin_lock_num+0x14>)
20002356:	7810      	ldrb	r0, [r2, #0]
20002358:	1c43      	adds	r3, r0, #1
2000235a:	b2db      	uxtb	r3, r3
2000235c:	2b17      	cmp	r3, #23
2000235e:	d900      	bls.n	20002362 <next_striped_spin_lock_num+0xe>
20002360:	2310      	movs	r3, #16
20002362:	7013      	strb	r3, [r2, #0]
20002364:	4770      	bx	lr
20002366:	46c0      	nop			@ (mov r8, r8)
20002368:	20007e7c 	.word	0x20007e7c

2000236c <spin_lock_claim_unused>:
2000236c:	b500      	push	{lr}
2000236e:	4b05      	ldr	r3, [pc, #20]	@ (20002384 <spin_lock_claim_unused+0x18>)
20002370:	b083      	sub	sp, #12
20002372:	0001      	movs	r1, r0
20002374:	9300      	str	r3, [sp, #0]
20002376:	2218      	movs	r2, #24
20002378:	231f      	movs	r3, #31
2000237a:	4803      	ldr	r0, [pc, #12]	@ (20002388 <spin_lock_claim_unused+0x1c>)
2000237c:	f7ff ffa6 	bl	200022cc <hw_claim_unused_from_range>
20002380:	b003      	add	sp, #12
20002382:	bd00      	pop	{pc}
20002384:	20007afc 	.word	0x20007afc
20002388:	200089d0 	.word	0x200089d0

2000238c <spin_locks_reset>:
2000238c:	2100      	movs	r1, #0
2000238e:	4b04      	ldr	r3, [pc, #16]	@ (200023a0 <spin_locks_reset+0x14>)
20002390:	4a04      	ldr	r2, [pc, #16]	@ (200023a4 <spin_locks_reset+0x18>)
20002392:	f3bf 8f5f 	dmb	sy
20002396:	c302      	stmia	r3!, {r1}
20002398:	4293      	cmp	r3, r2
2000239a:	d1fa      	bne.n	20002392 <spin_locks_reset+0x6>
2000239c:	4770      	bx	lr
2000239e:	46c0      	nop			@ (mov r8, r8)
200023a0:	d0000100 	.word	0xd0000100
200023a4:	d0000180 	.word	0xd0000180

200023a8 <runtime_init_per_core_irq_priorities>:
200023a8:	4b08      	ldr	r3, [pc, #32]	@ (200023cc <runtime_init_per_core_irq_priorities+0x24>)
200023aa:	4a09      	ldr	r2, [pc, #36]	@ (200023d0 <runtime_init_per_core_irq_priorities+0x28>)
200023ac:	6013      	str	r3, [r2, #0]
200023ae:	4a09      	ldr	r2, [pc, #36]	@ (200023d4 <runtime_init_per_core_irq_priorities+0x2c>)
200023b0:	6013      	str	r3, [r2, #0]
200023b2:	4a09      	ldr	r2, [pc, #36]	@ (200023d8 <runtime_init_per_core_irq_priorities+0x30>)
200023b4:	6013      	str	r3, [r2, #0]
200023b6:	4a09      	ldr	r2, [pc, #36]	@ (200023dc <runtime_init_per_core_irq_priorities+0x34>)
200023b8:	6013      	str	r3, [r2, #0]
200023ba:	4a09      	ldr	r2, [pc, #36]	@ (200023e0 <runtime_init_per_core_irq_priorities+0x38>)
200023bc:	6013      	str	r3, [r2, #0]
200023be:	4a09      	ldr	r2, [pc, #36]	@ (200023e4 <runtime_init_per_core_irq_priorities+0x3c>)
200023c0:	6013      	str	r3, [r2, #0]
200023c2:	4a09      	ldr	r2, [pc, #36]	@ (200023e8 <runtime_init_per_core_irq_priorities+0x40>)
200023c4:	6013      	str	r3, [r2, #0]
200023c6:	4a09      	ldr	r2, [pc, #36]	@ (200023ec <runtime_init_per_core_irq_priorities+0x44>)
200023c8:	6013      	str	r3, [r2, #0]
200023ca:	4770      	bx	lr
200023cc:	80808080 	.word	0x80808080
200023d0:	e000e400 	.word	0xe000e400
200023d4:	e000e404 	.word	0xe000e404
200023d8:	e000e408 	.word	0xe000e408
200023dc:	e000e40c 	.word	0xe000e40c
200023e0:	e000e410 	.word	0xe000e410
200023e4:	e000e414 	.word	0xe000e414
200023e8:	e000e418 	.word	0xe000e418
200023ec:	e000e41c 	.word	0xe000e41c

200023f0 <irq_set_enabled>:
200023f0:	231f      	movs	r3, #31
200023f2:	4018      	ands	r0, r3
200023f4:	3b1e      	subs	r3, #30
200023f6:	4083      	lsls	r3, r0
200023f8:	2900      	cmp	r1, #0
200023fa:	d005      	beq.n	20002408 <irq_set_enabled+0x18>
200023fc:	21c0      	movs	r1, #192	@ 0xc0
200023fe:	4a04      	ldr	r2, [pc, #16]	@ (20002410 <irq_set_enabled+0x20>)
20002400:	0049      	lsls	r1, r1, #1
20002402:	5053      	str	r3, [r2, r1]
20002404:	6013      	str	r3, [r2, #0]
20002406:	4770      	bx	lr
20002408:	2280      	movs	r2, #128	@ 0x80
2000240a:	4901      	ldr	r1, [pc, #4]	@ (20002410 <irq_set_enabled+0x20>)
2000240c:	508b      	str	r3, [r1, r2]
2000240e:	e7fa      	b.n	20002406 <irq_set_enabled+0x16>
20002410:	e000e100 	.word	0xe000e100

20002414 <irq_is_enabled>:
20002414:	2201      	movs	r2, #1
20002416:	4082      	lsls	r2, r0
20002418:	4b03      	ldr	r3, [pc, #12]	@ (20002428 <irq_is_enabled+0x14>)
2000241a:	681b      	ldr	r3, [r3, #0]
2000241c:	4013      	ands	r3, r2
2000241e:	1e5a      	subs	r2, r3, #1
20002420:	4193      	sbcs	r3, r2
20002422:	b2d8      	uxtb	r0, r3
20002424:	4770      	bx	lr
20002426:	46c0      	nop			@ (mov r8, r8)
20002428:	e000e100 	.word	0xe000e100

2000242c <irq_set_exclusive_handler>:
2000242c:	b570      	push	{r4, r5, r6, lr}
2000242e:	000d      	movs	r5, r1
20002430:	f3ef 8610 	mrs	r6, PRIMASK
20002434:	b672      	cpsid	i
20002436:	4a0f      	ldr	r2, [pc, #60]	@ (20002474 <irq_set_exclusive_handler+0x48>)
20002438:	6813      	ldr	r3, [r2, #0]
2000243a:	2b00      	cmp	r3, #0
2000243c:	d0fc      	beq.n	20002438 <irq_set_exclusive_handler+0xc>
2000243e:	f3bf 8f5f 	dmb	sy
20002442:	4b0d      	ldr	r3, [pc, #52]	@ (20002478 <irq_set_exclusive_handler+0x4c>)
20002444:	3010      	adds	r0, #16
20002446:	689b      	ldr	r3, [r3, #8]
20002448:	0084      	lsls	r4, r0, #2
2000244a:	591b      	ldr	r3, [r3, r4]
2000244c:	4a0b      	ldr	r2, [pc, #44]	@ (2000247c <irq_set_exclusive_handler+0x50>)
2000244e:	4293      	cmp	r3, r2
20002450:	d003      	beq.n	2000245a <irq_set_exclusive_handler+0x2e>
20002452:	429d      	cmp	r5, r3
20002454:	d001      	beq.n	2000245a <irq_set_exclusive_handler+0x2e>
20002456:	f001 fa1b 	bl	20003890 <hard_assertion_failure>
2000245a:	4b07      	ldr	r3, [pc, #28]	@ (20002478 <irq_set_exclusive_handler+0x4c>)
2000245c:	689b      	ldr	r3, [r3, #8]
2000245e:	511d      	str	r5, [r3, r4]
20002460:	f3bf 8f5f 	dmb	sy
20002464:	f3bf 8f5f 	dmb	sy
20002468:	2200      	movs	r2, #0
2000246a:	4b02      	ldr	r3, [pc, #8]	@ (20002474 <irq_set_exclusive_handler+0x48>)
2000246c:	601a      	str	r2, [r3, #0]
2000246e:	f386 8810 	msr	PRIMASK, r6
20002472:	bd70      	pop	{r4, r5, r6, pc}
20002474:	d0000124 	.word	0xd0000124
20002478:	e000ed00 	.word	0xe000ed00
2000247c:	100001c1 	.word	0x100001c1

20002480 <irq_add_shared_handler>:
20002480:	b5f0      	push	{r4, r5, r6, r7, lr}
20002482:	46de      	mov	lr, fp
20002484:	4657      	mov	r7, sl
20002486:	464e      	mov	r6, r9
20002488:	4645      	mov	r5, r8
2000248a:	b5e0      	push	{r5, r6, r7, lr}
2000248c:	4682      	mov	sl, r0
2000248e:	b083      	sub	sp, #12
20002490:	468b      	mov	fp, r1
20002492:	0017      	movs	r7, r2
20002494:	f3ef 8810 	mrs	r8, PRIMASK
20002498:	b672      	cpsid	i
2000249a:	4a60      	ldr	r2, [pc, #384]	@ (2000261c <irq_add_shared_handler+0x19c>)
2000249c:	6813      	ldr	r3, [r2, #0]
2000249e:	2b00      	cmp	r3, #0
200024a0:	d0fc      	beq.n	2000249c <irq_add_shared_handler+0x1c>
200024a2:	f3bf 8f5f 	dmb	sy
200024a6:	2500      	movs	r5, #0
200024a8:	4b5d      	ldr	r3, [pc, #372]	@ (20002620 <irq_add_shared_handler+0x1a0>)
200024aa:	575d      	ldrsb	r5, [r3, r5]
200024ac:	4699      	mov	r9, r3
200024ae:	2d00      	cmp	r5, #0
200024b0:	da00      	bge.n	200024b4 <irq_add_shared_handler+0x34>
200024b2:	e09a      	b.n	200025ea <irq_add_shared_handler+0x16a>
200024b4:	464a      	mov	r2, r9
200024b6:	006b      	lsls	r3, r5, #1
200024b8:	4c5a      	ldr	r4, [pc, #360]	@ (20002624 <irq_add_shared_handler+0x1a4>)
200024ba:	195e      	adds	r6, r3, r5
200024bc:	00b6      	lsls	r6, r6, #2
200024be:	9301      	str	r3, [sp, #4]
200024c0:	19a3      	adds	r3, r4, r6
200024c2:	9300      	str	r3, [sp, #0]
200024c4:	799b      	ldrb	r3, [r3, #6]
200024c6:	7013      	strb	r3, [r2, #0]
200024c8:	4b57      	ldr	r3, [pc, #348]	@ (20002628 <irq_add_shared_handler+0x1a8>)
200024ca:	689a      	ldr	r2, [r3, #8]
200024cc:	4653      	mov	r3, sl
200024ce:	3310      	adds	r3, #16
200024d0:	009b      	lsls	r3, r3, #2
200024d2:	58d1      	ldr	r1, [r2, r3]
200024d4:	4699      	mov	r9, r3
200024d6:	1b0b      	subs	r3, r1, r4
200024d8:	2b2f      	cmp	r3, #47	@ 0x2f
200024da:	d932      	bls.n	20002542 <irq_add_shared_handler+0xc2>
200024dc:	4b53      	ldr	r3, [pc, #332]	@ (2000262c <irq_add_shared_handler+0x1ac>)
200024de:	4299      	cmp	r1, r3
200024e0:	d000      	beq.n	200024e4 <irq_add_shared_handler+0x64>
200024e2:	e098      	b.n	20002616 <irq_add_shared_handler+0x196>
200024e4:	9b01      	ldr	r3, [sp, #4]
200024e6:	3602      	adds	r6, #2
200024e8:	18ed      	adds	r5, r5, r3
200024ea:	4b51      	ldr	r3, [pc, #324]	@ (20002630 <irq_add_shared_handler+0x1b0>)
200024ec:	00ad      	lsls	r5, r5, #2
200024ee:	5363      	strh	r3, [r4, r5]
200024f0:	4b50      	ldr	r3, [pc, #320]	@ (20002634 <irq_add_shared_handler+0x1b4>)
200024f2:	19a6      	adds	r6, r4, r6
200024f4:	3b04      	subs	r3, #4
200024f6:	1b9b      	subs	r3, r3, r6
200024f8:	4a4f      	ldr	r2, [pc, #316]	@ (20002638 <irq_add_shared_handler+0x1b8>)
200024fa:	051b      	lsls	r3, r3, #20
200024fc:	0d5b      	lsrs	r3, r3, #21
200024fe:	1965      	adds	r5, r4, r5
20002500:	4313      	orrs	r3, r2
20002502:	806b      	strh	r3, [r5, #2]
20002504:	4b4d      	ldr	r3, [pc, #308]	@ (2000263c <irq_add_shared_handler+0x1bc>)
20002506:	2101      	movs	r1, #1
20002508:	80ab      	strh	r3, [r5, #4]
2000250a:	23ff      	movs	r3, #255	@ 0xff
2000250c:	71ab      	strb	r3, [r5, #6]
2000250e:	465b      	mov	r3, fp
20002510:	60ab      	str	r3, [r5, #8]
20002512:	9b00      	ldr	r3, [sp, #0]
20002514:	71ef      	strb	r7, [r5, #7]
20002516:	430b      	orrs	r3, r1
20002518:	0019      	movs	r1, r3
2000251a:	464a      	mov	r2, r9
2000251c:	4b42      	ldr	r3, [pc, #264]	@ (20002628 <irq_add_shared_handler+0x1a8>)
2000251e:	689b      	ldr	r3, [r3, #8]
20002520:	5099      	str	r1, [r3, r2]
20002522:	f3bf 8f5f 	dmb	sy
20002526:	f3bf 8f5f 	dmb	sy
2000252a:	2200      	movs	r2, #0
2000252c:	4b3b      	ldr	r3, [pc, #236]	@ (2000261c <irq_add_shared_handler+0x19c>)
2000252e:	601a      	str	r2, [r3, #0]
20002530:	f388 8810 	msr	PRIMASK, r8
20002534:	b003      	add	sp, #12
20002536:	bcf0      	pop	{r4, r5, r6, r7}
20002538:	46bb      	mov	fp, r7
2000253a:	46b2      	mov	sl, r6
2000253c:	46a9      	mov	r9, r5
2000253e:	46a0      	mov	r8, r4
20002540:	bdf0      	pop	{r4, r5, r6, r7, pc}
20002542:	2001      	movs	r0, #1
20002544:	000a      	movs	r2, r1
20002546:	4382      	bics	r2, r0
20002548:	79d3      	ldrb	r3, [r2, #7]
2000254a:	46b4      	mov	ip, r6
2000254c:	42bb      	cmp	r3, r7
2000254e:	d82d      	bhi.n	200025ac <irq_add_shared_handler+0x12c>
20002550:	4b3b      	ldr	r3, [pc, #236]	@ (20002640 <irq_add_shared_handler+0x1c0>)
20002552:	1cb5      	adds	r5, r6, #2
20002554:	0019      	movs	r1, r3
20002556:	0013      	movs	r3, r2
20002558:	1b1b      	subs	r3, r3, r4
2000255a:	415b      	adcs	r3, r3
2000255c:	4359      	muls	r1, r3
2000255e:	0d09      	lsrs	r1, r1, #20
20002560:	468c      	mov	ip, r1
20002562:	4b33      	ldr	r3, [pc, #204]	@ (20002630 <irq_add_shared_handler+0x1b0>)
20002564:	1965      	adds	r5, r4, r5
20002566:	53a3      	strh	r3, [r4, r6]
20002568:	4b32      	ldr	r3, [pc, #200]	@ (20002634 <irq_add_shared_handler+0x1b4>)
2000256a:	9900      	ldr	r1, [sp, #0]
2000256c:	3b04      	subs	r3, #4
2000256e:	1b5b      	subs	r3, r3, r5
20002570:	051b      	lsls	r3, r3, #20
20002572:	4d31      	ldr	r5, [pc, #196]	@ (20002638 <irq_add_shared_handler+0x1b8>)
20002574:	0d5b      	lsrs	r3, r3, #21
20002576:	432b      	orrs	r3, r5
20002578:	3604      	adds	r6, #4
2000257a:	804b      	strh	r3, [r1, #2]
2000257c:	19a6      	adds	r6, r4, r6
2000257e:	1f13      	subs	r3, r2, #4
20002580:	1b9b      	subs	r3, r3, r6
20002582:	051b      	lsls	r3, r3, #20
20002584:	0d5b      	lsrs	r3, r3, #21
20002586:	431d      	orrs	r5, r3
20002588:	4663      	mov	r3, ip
2000258a:	718b      	strb	r3, [r1, #6]
2000258c:	465b      	mov	r3, fp
2000258e:	608b      	str	r3, [r1, #8]
20002590:	4b2c      	ldr	r3, [pc, #176]	@ (20002644 <irq_add_shared_handler+0x1c4>)
20002592:	808d      	strh	r5, [r1, #4]
20002594:	71cf      	strb	r7, [r1, #7]
20002596:	6013      	str	r3, [r2, #0]
20002598:	4301      	orrs	r1, r0
2000259a:	e7be      	b.n	2000251a <irq_add_shared_handler+0x9a>
2000259c:	0058      	lsls	r0, r3, #1
2000259e:	18c0      	adds	r0, r0, r3
200025a0:	0080      	lsls	r0, r0, #2
200025a2:	1820      	adds	r0, r4, r0
200025a4:	79c6      	ldrb	r6, [r0, #7]
200025a6:	42be      	cmp	r6, r7
200025a8:	d925      	bls.n	200025f6 <irq_add_shared_handler+0x176>
200025aa:	0002      	movs	r2, r0
200025ac:	2306      	movs	r3, #6
200025ae:	56d3      	ldrsb	r3, [r2, r3]
200025b0:	2b00      	cmp	r3, #0
200025b2:	daf3      	bge.n	2000259c <irq_add_shared_handler+0x11c>
200025b4:	469a      	mov	sl, r3
200025b6:	1d13      	adds	r3, r2, #4
200025b8:	469c      	mov	ip, r3
200025ba:	4823      	ldr	r0, [pc, #140]	@ (20002648 <irq_add_shared_handler+0x1c8>)
200025bc:	4663      	mov	r3, ip
200025be:	9e00      	ldr	r6, [sp, #0]
200025c0:	7195      	strb	r5, [r2, #6]
200025c2:	3e04      	subs	r6, #4
200025c4:	1af6      	subs	r6, r6, r3
200025c6:	0536      	lsls	r6, r6, #20
200025c8:	4b1b      	ldr	r3, [pc, #108]	@ (20002638 <irq_add_shared_handler+0x1b8>)
200025ca:	0d76      	lsrs	r6, r6, #21
200025cc:	431e      	orrs	r6, r3
200025ce:	9b01      	ldr	r3, [sp, #4]
200025d0:	8096      	strh	r6, [r2, #4]
200025d2:	195a      	adds	r2, r3, r5
200025d4:	4653      	mov	r3, sl
200025d6:	0092      	lsls	r2, r2, #2
200025d8:	18a4      	adds	r4, r4, r2
200025da:	71a3      	strb	r3, [r4, #6]
200025dc:	465b      	mov	r3, fp
200025de:	4a19      	ldr	r2, [pc, #100]	@ (20002644 <irq_add_shared_handler+0x1c4>)
200025e0:	80a0      	strh	r0, [r4, #4]
200025e2:	6022      	str	r2, [r4, #0]
200025e4:	71e7      	strb	r7, [r4, #7]
200025e6:	60a3      	str	r3, [r4, #8]
200025e8:	e797      	b.n	2000251a <irq_add_shared_handler+0x9a>
200025ea:	f001 f951 	bl	20003890 <hard_assertion_failure>
200025ee:	2500      	movs	r5, #0
200025f0:	464b      	mov	r3, r9
200025f2:	575d      	ldrsb	r5, [r3, r5]
200025f4:	e75e      	b.n	200024b4 <irq_add_shared_handler+0x34>
200025f6:	4666      	mov	r6, ip
200025f8:	469a      	mov	sl, r3
200025fa:	1d13      	adds	r3, r2, #4
200025fc:	469c      	mov	ip, r3
200025fe:	8890      	ldrh	r0, [r2, #4]
20002600:	3604      	adds	r6, #4
20002602:	0540      	lsls	r0, r0, #21
20002604:	1500      	asrs	r0, r0, #20
20002606:	19a6      	adds	r6, r4, r6
20002608:	4460      	add	r0, ip
2000260a:	1b80      	subs	r0, r0, r6
2000260c:	0500      	lsls	r0, r0, #20
2000260e:	4e0a      	ldr	r6, [pc, #40]	@ (20002638 <irq_add_shared_handler+0x1b8>)
20002610:	0d40      	lsrs	r0, r0, #21
20002612:	4330      	orrs	r0, r6
20002614:	e7d2      	b.n	200025bc <irq_add_shared_handler+0x13c>
20002616:	f001 f93b 	bl	20003890 <hard_assertion_failure>
2000261a:	e763      	b.n	200024e4 <irq_add_shared_handler+0x64>
2000261c:	d0000124 	.word	0xd0000124
20002620:	20008ef8 	.word	0x20008ef8
20002624:	20007e80 	.word	0x20007e80
20002628:	e000ed00 	.word	0xe000ed00
2000262c:	100001c1 	.word	0x100001c1
20002630:	ffffa100 	.word	0xffffa100
20002634:	20007eb0 	.word	0x20007eb0
20002638:	ffffe000 	.word	0xffffe000
2000263c:	ffffbd01 	.word	0xffffbd01
20002640:	0000aaaa 	.word	0x0000aaaa
20002644:	47804801 	.word	0x47804801
20002648:	0000bd01 	.word	0x0000bd01

2000264c <irq_remove_handler>:
2000264c:	b5f0      	push	{r4, r5, r6, r7, lr}
2000264e:	4645      	mov	r5, r8
20002650:	46de      	mov	lr, fp
20002652:	4657      	mov	r7, sl
20002654:	464e      	mov	r6, r9
20002656:	b5e0      	push	{r5, r6, r7, lr}
20002658:	000d      	movs	r5, r1
2000265a:	b083      	sub	sp, #12
2000265c:	f3ef 8810 	mrs	r8, PRIMASK
20002660:	b672      	cpsid	i
20002662:	4a60      	ldr	r2, [pc, #384]	@ (200027e4 <irq_remove_handler+0x198>)
20002664:	6813      	ldr	r3, [r2, #0]
20002666:	2b00      	cmp	r3, #0
20002668:	d0fc      	beq.n	20002664 <irq_remove_handler+0x18>
2000266a:	f3bf 8f5f 	dmb	sy
2000266e:	4b5e      	ldr	r3, [pc, #376]	@ (200027e8 <irq_remove_handler+0x19c>)
20002670:	495e      	ldr	r1, [pc, #376]	@ (200027ec <irq_remove_handler+0x1a0>)
20002672:	689a      	ldr	r2, [r3, #8]
20002674:	0003      	movs	r3, r0
20002676:	3310      	adds	r3, #16
20002678:	009f      	lsls	r7, r3, #2
2000267a:	59d4      	ldr	r4, [r2, r7]
2000267c:	4699      	mov	r9, r3
2000267e:	428c      	cmp	r4, r1
20002680:	d03e      	beq.n	20002700 <irq_remove_handler+0xb4>
20002682:	42ac      	cmp	r4, r5
20002684:	d04f      	beq.n	20002726 <irq_remove_handler+0xda>
20002686:	4e5a      	ldr	r6, [pc, #360]	@ (200027f0 <irq_remove_handler+0x1a4>)
20002688:	1ba2      	subs	r2, r4, r6
2000268a:	2a2f      	cmp	r2, #47	@ 0x2f
2000268c:	d838      	bhi.n	20002700 <irq_remove_handler+0xb4>
2000268e:	4b59      	ldr	r3, [pc, #356]	@ (200027f4 <irq_remove_handler+0x1a8>)
20002690:	681a      	ldr	r2, [r3, #0]
20002692:	469c      	mov	ip, r3
20002694:	0013      	movs	r3, r2
20002696:	2201      	movs	r2, #1
20002698:	4082      	lsls	r2, r0
2000269a:	4013      	ands	r3, r2
2000269c:	221f      	movs	r2, #31
2000269e:	4002      	ands	r2, r0
200026a0:	2001      	movs	r0, #1
200026a2:	469a      	mov	sl, r3
200026a4:	4090      	lsls	r0, r2
200026a6:	4663      	mov	r3, ip
200026a8:	2280      	movs	r2, #128	@ 0x80
200026aa:	4683      	mov	fp, r0
200026ac:	5098      	str	r0, [r3, r2]
200026ae:	f3bf 8f5f 	dmb	sy
200026b2:	f3ef 8305 	mrs	r3, IPSR
200026b6:	9301      	str	r3, [sp, #4]
200026b8:	2b00      	cmp	r3, #0
200026ba:	d036      	beq.n	2000272a <irq_remove_handler+0xde>
200026bc:	4599      	cmp	r9, r3
200026be:	d001      	beq.n	200026c4 <irq_remove_handler+0x78>
200026c0:	f001 f8e6 	bl	20003890 <hard_assertion_failure>
200026c4:	2301      	movs	r3, #1
200026c6:	0022      	movs	r2, r4
200026c8:	439a      	bics	r2, r3
200026ca:	6890      	ldr	r0, [r2, #8]
200026cc:	4285      	cmp	r5, r0
200026ce:	d108      	bne.n	200026e2 <irq_remove_handler+0x96>
200026d0:	e076      	b.n	200027c0 <irq_remove_handler+0x174>
200026d2:	004b      	lsls	r3, r1, #1
200026d4:	185b      	adds	r3, r3, r1
200026d6:	009b      	lsls	r3, r3, #2
200026d8:	18f3      	adds	r3, r6, r3
200026da:	6898      	ldr	r0, [r3, #8]
200026dc:	4285      	cmp	r5, r0
200026de:	d036      	beq.n	2000274e <irq_remove_handler+0x102>
200026e0:	001a      	movs	r2, r3
200026e2:	2106      	movs	r1, #6
200026e4:	5651      	ldrsb	r1, [r2, r1]
200026e6:	2900      	cmp	r1, #0
200026e8:	daf3      	bge.n	200026d2 <irq_remove_handler+0x86>
200026ea:	4285      	cmp	r5, r0
200026ec:	d054      	beq.n	20002798 <irq_remove_handler+0x14c>
200026ee:	4653      	mov	r3, sl
200026f0:	2b00      	cmp	r3, #0
200026f2:	d027      	beq.n	20002744 <irq_remove_handler+0xf8>
200026f4:	22c0      	movs	r2, #192	@ 0xc0
200026f6:	4659      	mov	r1, fp
200026f8:	4b3e      	ldr	r3, [pc, #248]	@ (200027f4 <irq_remove_handler+0x1a8>)
200026fa:	0052      	lsls	r2, r2, #1
200026fc:	5099      	str	r1, [r3, r2]
200026fe:	6019      	str	r1, [r3, #0]
20002700:	4b39      	ldr	r3, [pc, #228]	@ (200027e8 <irq_remove_handler+0x19c>)
20002702:	689b      	ldr	r3, [r3, #8]
20002704:	51dc      	str	r4, [r3, r7]
20002706:	f3bf 8f5f 	dmb	sy
2000270a:	f3bf 8f5f 	dmb	sy
2000270e:	2200      	movs	r2, #0
20002710:	4b34      	ldr	r3, [pc, #208]	@ (200027e4 <irq_remove_handler+0x198>)
20002712:	601a      	str	r2, [r3, #0]
20002714:	f388 8810 	msr	PRIMASK, r8
20002718:	b003      	add	sp, #12
2000271a:	bcf0      	pop	{r4, r5, r6, r7}
2000271c:	46bb      	mov	fp, r7
2000271e:	46b2      	mov	sl, r6
20002720:	46a9      	mov	r9, r5
20002722:	46a0      	mov	r8, r4
20002724:	bdf0      	pop	{r4, r5, r6, r7, pc}
20002726:	000c      	movs	r4, r1
20002728:	e7ea      	b.n	20002700 <irq_remove_handler+0xb4>
2000272a:	0022      	movs	r2, r4
2000272c:	3301      	adds	r3, #1
2000272e:	439a      	bics	r2, r3
20002730:	6890      	ldr	r0, [r2, #8]
20002732:	4285      	cmp	r5, r0
20002734:	d1d5      	bne.n	200026e2 <irq_remove_handler+0x96>
20002736:	2006      	movs	r0, #6
20002738:	5610      	ldrsb	r0, [r2, r0]
2000273a:	0013      	movs	r3, r2
2000273c:	2800      	cmp	r0, #0
2000273e:	da0a      	bge.n	20002756 <irq_remove_handler+0x10a>
20002740:	000c      	movs	r4, r1
20002742:	e031      	b.n	200027a8 <irq_remove_handler+0x15c>
20002744:	2380      	movs	r3, #128	@ 0x80
20002746:	4659      	mov	r1, fp
20002748:	4a2a      	ldr	r2, [pc, #168]	@ (200027f4 <irq_remove_handler+0x1a8>)
2000274a:	50d1      	str	r1, [r2, r3]
2000274c:	e7d8      	b.n	20002700 <irq_remove_handler+0xb4>
2000274e:	2006      	movs	r0, #6
20002750:	5618      	ldrsb	r0, [r3, r0]
20002752:	2800      	cmp	r0, #0
20002754:	db21      	blt.n	2000279a <irq_remove_handler+0x14e>
20002756:	0042      	lsls	r2, r0, #1
20002758:	1811      	adds	r1, r2, r0
2000275a:	0089      	lsls	r1, r1, #2
2000275c:	1875      	adds	r5, r6, r1
2000275e:	4689      	mov	r9, r1
20002760:	68a9      	ldr	r1, [r5, #8]
20002762:	6099      	str	r1, [r3, #8]
20002764:	79e9      	ldrb	r1, [r5, #7]
20002766:	71d9      	strb	r1, [r3, #7]
20002768:	2106      	movs	r1, #6
2000276a:	5669      	ldrsb	r1, [r5, r1]
2000276c:	7199      	strb	r1, [r3, #6]
2000276e:	2900      	cmp	r1, #0
20002770:	db24      	blt.n	200027bc <irq_remove_handler+0x170>
20002772:	88ad      	ldrh	r5, [r5, #4]
20002774:	1af1      	subs	r1, r6, r3
20002776:	056d      	lsls	r5, r5, #21
20002778:	152d      	asrs	r5, r5, #20
2000277a:	444d      	add	r5, r9
2000277c:	1949      	adds	r1, r1, r5
2000277e:	0509      	lsls	r1, r1, #20
20002780:	4d1d      	ldr	r5, [pc, #116]	@ (200027f8 <irq_remove_handler+0x1ac>)
20002782:	0d49      	lsrs	r1, r1, #21
20002784:	4329      	orrs	r1, r5
20002786:	8099      	strh	r1, [r3, #4]
20002788:	1813      	adds	r3, r2, r0
2000278a:	4a1c      	ldr	r2, [pc, #112]	@ (200027fc <irq_remove_handler+0x1b0>)
2000278c:	009b      	lsls	r3, r3, #2
2000278e:	7811      	ldrb	r1, [r2, #0]
20002790:	18f3      	adds	r3, r6, r3
20002792:	7199      	strb	r1, [r3, #6]
20002794:	7010      	strb	r0, [r2, #0]
20002796:	e7aa      	b.n	200026ee <irq_remove_handler+0xa2>
20002798:	0013      	movs	r3, r2
2000279a:	9901      	ldr	r1, [sp, #4]
2000279c:	2900      	cmp	r1, #0
2000279e:	d114      	bne.n	200027ca <irq_remove_handler+0x17e>
200027a0:	31ff      	adds	r1, #255	@ 0xff
200027a2:	7191      	strb	r1, [r2, #6]
200027a4:	4916      	ldr	r1, [pc, #88]	@ (20002800 <irq_remove_handler+0x1b4>)
200027a6:	8091      	strh	r1, [r2, #4]
200027a8:	4914      	ldr	r1, [pc, #80]	@ (200027fc <irq_remove_handler+0x1b0>)
200027aa:	780a      	ldrb	r2, [r1, #0]
200027ac:	719a      	strb	r2, [r3, #6]
200027ae:	4a15      	ldr	r2, [pc, #84]	@ (20002804 <irq_remove_handler+0x1b8>)
200027b0:	1b9b      	subs	r3, r3, r6
200027b2:	415b      	adcs	r3, r3
200027b4:	435a      	muls	r2, r3
200027b6:	0d12      	lsrs	r2, r2, #20
200027b8:	700a      	strb	r2, [r1, #0]
200027ba:	e798      	b.n	200026ee <irq_remove_handler+0xa2>
200027bc:	4910      	ldr	r1, [pc, #64]	@ (20002800 <irq_remove_handler+0x1b4>)
200027be:	e7e2      	b.n	20002786 <irq_remove_handler+0x13a>
200027c0:	2006      	movs	r0, #6
200027c2:	5610      	ldrsb	r0, [r2, r0]
200027c4:	0013      	movs	r3, r2
200027c6:	2800      	cmp	r0, #0
200027c8:	dac5      	bge.n	20002756 <irq_remove_handler+0x10a>
200027ca:	4a0f      	ldr	r2, [pc, #60]	@ (20002808 <irq_remove_handler+0x1bc>)
200027cc:	490f      	ldr	r1, [pc, #60]	@ (2000280c <irq_remove_handler+0x1c0>)
200027ce:	1ad2      	subs	r2, r2, r3
200027d0:	3a08      	subs	r2, #8
200027d2:	0250      	lsls	r0, r2, #9
200027d4:	0d40      	lsrs	r0, r0, #21
200027d6:	4301      	orrs	r1, r0
200027d8:	8099      	strh	r1, [r3, #4]
200027da:	490d      	ldr	r1, [pc, #52]	@ (20002810 <irq_remove_handler+0x1c4>)
200027dc:	0852      	lsrs	r2, r2, #1
200027de:	430a      	orrs	r2, r1
200027e0:	80da      	strh	r2, [r3, #6]
200027e2:	e784      	b.n	200026ee <irq_remove_handler+0xa2>
200027e4:	d0000124 	.word	0xd0000124
200027e8:	e000ed00 	.word	0xe000ed00
200027ec:	100001c1 	.word	0x100001c1
200027f0:	20007e80 	.word	0x20007e80
200027f4:	e000e100 	.word	0xe000e100
200027f8:	ffffe000 	.word	0xffffe000
200027fc:	20008ef8 	.word	0x20008ef8
20002800:	ffffbd01 	.word	0xffffbd01
20002804:	0000aaaa 	.word	0x0000aaaa
20002808:	20007eba 	.word	0x20007eba
2000280c:	fffff000 	.word	0xfffff000
20002810:	fffff800 	.word	0xfffff800

20002814 <irq_set_priority>:
20002814:	4a08      	ldr	r2, [pc, #32]	@ (20002838 <irq_set_priority+0x24>)
20002816:	0883      	lsrs	r3, r0, #2
20002818:	009b      	lsls	r3, r3, #2
2000281a:	189b      	adds	r3, r3, r2
2000281c:	681a      	ldr	r2, [r3, #0]
2000281e:	b510      	push	{r4, lr}
20002820:	0014      	movs	r4, r2
20002822:	2203      	movs	r2, #3
20002824:	4010      	ands	r0, r2
20002826:	00c0      	lsls	r0, r0, #3
20002828:	32fc      	adds	r2, #252	@ 0xfc
2000282a:	4082      	lsls	r2, r0
2000282c:	4394      	bics	r4, r2
2000282e:	0022      	movs	r2, r4
20002830:	4081      	lsls	r1, r0
20002832:	430a      	orrs	r2, r1
20002834:	601a      	str	r2, [r3, #0]
20002836:	bd10      	pop	{r4, pc}
20002838:	e000e400 	.word	0xe000e400

2000283c <irq_add_tail_to_free_list>:
2000283c:	2301      	movs	r3, #1
2000283e:	4303      	orrs	r3, r0
20002840:	b570      	push	{r4, r5, r6, lr}
20002842:	469c      	mov	ip, r3
20002844:	f3ef 8105 	mrs	r1, IPSR
20002848:	f3ef 8510 	mrs	r5, PRIMASK
2000284c:	b672      	cpsid	i
2000284e:	4a21      	ldr	r2, [pc, #132]	@ (200028d4 <irq_add_tail_to_free_list+0x98>)
20002850:	6813      	ldr	r3, [r2, #0]
20002852:	2b00      	cmp	r3, #0
20002854:	d0fc      	beq.n	20002850 <irq_add_tail_to_free_list+0x14>
20002856:	f3bf 8f5f 	dmb	sy
2000285a:	4b1f      	ldr	r3, [pc, #124]	@ (200028d8 <irq_add_tail_to_free_list+0x9c>)
2000285c:	0004      	movs	r4, r0
2000285e:	4a1f      	ldr	r2, [pc, #124]	@ (200028dc <irq_add_tail_to_free_list+0xa0>)
20002860:	1ae4      	subs	r4, r4, r3
20002862:	4164      	adcs	r4, r4
20002864:	4362      	muls	r2, r4
20002866:	0d12      	lsrs	r2, r2, #20
20002868:	4c1d      	ldr	r4, [pc, #116]	@ (200028e0 <irq_add_tail_to_free_list+0xa4>)
2000286a:	0089      	lsls	r1, r1, #2
2000286c:	68a6      	ldr	r6, [r4, #8]
2000286e:	b252      	sxtb	r2, r2
20002870:	5876      	ldr	r6, [r6, r1]
20002872:	4566      	cmp	r6, ip
20002874:	d01c      	beq.n	200028b0 <irq_add_tail_to_free_list+0x74>
20002876:	2106      	movs	r1, #6
20002878:	5659      	ldrsb	r1, [r3, r1]
2000287a:	4291      	cmp	r1, r2
2000287c:	d01c      	beq.n	200028b8 <irq_add_tail_to_free_list+0x7c>
2000287e:	2112      	movs	r1, #18
20002880:	5659      	ldrsb	r1, [r3, r1]
20002882:	4291      	cmp	r1, r2
20002884:	d022      	beq.n	200028cc <irq_add_tail_to_free_list+0x90>
20002886:	211e      	movs	r1, #30
20002888:	5659      	ldrsb	r1, [r3, r1]
2000288a:	4291      	cmp	r1, r2
2000288c:	d020      	beq.n	200028d0 <irq_add_tail_to_free_list+0x94>
2000288e:	212a      	movs	r1, #42	@ 0x2a
20002890:	5659      	ldrsb	r1, [r3, r1]
20002892:	2403      	movs	r4, #3
20002894:	4291      	cmp	r1, r2
20002896:	d010      	beq.n	200028ba <irq_add_tail_to_free_list+0x7e>
20002898:	4b12      	ldr	r3, [pc, #72]	@ (200028e4 <irq_add_tail_to_free_list+0xa8>)
2000289a:	7819      	ldrb	r1, [r3, #0]
2000289c:	701a      	strb	r2, [r3, #0]
2000289e:	7181      	strb	r1, [r0, #6]
200028a0:	f3bf 8f5f 	dmb	sy
200028a4:	2200      	movs	r2, #0
200028a6:	4b0b      	ldr	r3, [pc, #44]	@ (200028d4 <irq_add_tail_to_free_list+0x98>)
200028a8:	601a      	str	r2, [r3, #0]
200028aa:	f385 8810 	msr	PRIMASK, r5
200028ae:	bd70      	pop	{r4, r5, r6, pc}
200028b0:	68a3      	ldr	r3, [r4, #8]
200028b2:	4c0d      	ldr	r4, [pc, #52]	@ (200028e8 <irq_add_tail_to_free_list+0xac>)
200028b4:	505c      	str	r4, [r3, r1]
200028b6:	e7ef      	b.n	20002898 <irq_add_tail_to_free_list+0x5c>
200028b8:	2400      	movs	r4, #0
200028ba:	0061      	lsls	r1, r4, #1
200028bc:	1909      	adds	r1, r1, r4
200028be:	0089      	lsls	r1, r1, #2
200028c0:	185b      	adds	r3, r3, r1
200028c2:	21ff      	movs	r1, #255	@ 0xff
200028c4:	7199      	strb	r1, [r3, #6]
200028c6:	4909      	ldr	r1, [pc, #36]	@ (200028ec <irq_add_tail_to_free_list+0xb0>)
200028c8:	8099      	strh	r1, [r3, #4]
200028ca:	e7e5      	b.n	20002898 <irq_add_tail_to_free_list+0x5c>
200028cc:	2401      	movs	r4, #1
200028ce:	e7f4      	b.n	200028ba <irq_add_tail_to_free_list+0x7e>
200028d0:	2402      	movs	r4, #2
200028d2:	e7f2      	b.n	200028ba <irq_add_tail_to_free_list+0x7e>
200028d4:	d0000124 	.word	0xd0000124
200028d8:	20007e80 	.word	0x20007e80
200028dc:	0000aaaa 	.word	0x0000aaaa
200028e0:	e000ed00 	.word	0xe000ed00
200028e4:	20008ef8 	.word	0x20008ef8
200028e8:	100001c1 	.word	0x100001c1
200028ec:	ffffbd01 	.word	0xffffbd01

200028f0 <lock_init>:
200028f0:	4b02      	ldr	r3, [pc, #8]	@ (200028fc <lock_init+0xc>)
200028f2:	18c9      	adds	r1, r1, r3
200028f4:	0089      	lsls	r1, r1, #2
200028f6:	6001      	str	r1, [r0, #0]
200028f8:	4770      	bx	lr
200028fa:	46c0      	nop			@ (mov r8, r8)
200028fc:	34000040 	.word	0x34000040

20002900 <runtime_init_mutex>:
20002900:	b570      	push	{r4, r5, r6, lr}
20002902:	4c11      	ldr	r4, [pc, #68]	@ (20002948 <runtime_init_mutex+0x48>)
20002904:	4d11      	ldr	r5, [pc, #68]	@ (2000294c <runtime_init_mutex+0x4c>)
20002906:	42ac      	cmp	r4, r5
20002908:	d20f      	bcs.n	2000292a <runtime_init_mutex+0x2a>
2000290a:	26ff      	movs	r6, #255	@ 0xff
2000290c:	6823      	ldr	r3, [r4, #0]
2000290e:	2b00      	cmp	r3, #0
20002910:	d00c      	beq.n	2000292c <runtime_init_mutex+0x2c>
20002912:	f7ff fd1f 	bl	20002354 <next_striped_spin_lock_num>
20002916:	0001      	movs	r1, r0
20002918:	0020      	movs	r0, r4
2000291a:	f7ff ffe9 	bl	200028f0 <lock_init>
2000291e:	80a6      	strh	r6, [r4, #4]
20002920:	f3bf 8f5f 	dmb	sy
20002924:	3408      	adds	r4, #8
20002926:	42ac      	cmp	r4, r5
20002928:	d3f0      	bcc.n	2000290c <runtime_init_mutex+0xc>
2000292a:	bd70      	pop	{r4, r5, r6, pc}
2000292c:	f7ff fd12 	bl	20002354 <next_striped_spin_lock_num>
20002930:	0001      	movs	r1, r0
20002932:	0020      	movs	r0, r4
20002934:	f7ff ffdc 	bl	200028f0 <lock_init>
20002938:	7126      	strb	r6, [r4, #4]
2000293a:	f3bf 8f5f 	dmb	sy
2000293e:	3408      	adds	r4, #8
20002940:	42ac      	cmp	r4, r5
20002942:	d3e3      	bcc.n	2000290c <runtime_init_mutex+0xc>
20002944:	e7f1      	b.n	2000292a <runtime_init_mutex+0x2a>
20002946:	46c0      	nop			@ (mov r8, r8)
20002948:	20007f28 	.word	0x20007f28
2000294c:	20007f38 	.word	0x20007f38

20002950 <mutex_init>:
20002950:	b510      	push	{r4, lr}
20002952:	0004      	movs	r4, r0
20002954:	f7ff fcfe 	bl	20002354 <next_striped_spin_lock_num>
20002958:	0001      	movs	r1, r0
2000295a:	0020      	movs	r0, r4
2000295c:	f7ff ffc8 	bl	200028f0 <lock_init>
20002960:	23ff      	movs	r3, #255	@ 0xff
20002962:	7123      	strb	r3, [r4, #4]
20002964:	f3bf 8f5f 	dmb	sy
20002968:	bd10      	pop	{r4, pc}
2000296a:	46c0      	nop			@ (mov r8, r8)

2000296c <critical_section_init>:
2000296c:	b510      	push	{r4, lr}
2000296e:	0004      	movs	r4, r0
20002970:	2001      	movs	r0, #1
20002972:	f7ff fcfb 	bl	2000236c <spin_lock_claim_unused>
20002976:	4b03      	ldr	r3, [pc, #12]	@ (20002984 <critical_section_init+0x18>)
20002978:	18c0      	adds	r0, r0, r3
2000297a:	0080      	lsls	r0, r0, #2
2000297c:	6020      	str	r0, [r4, #0]
2000297e:	f3bf 8f5f 	dmb	sy
20002982:	bd10      	pop	{r4, pc}
20002984:	34000040 	.word	0x34000040

20002988 <sleep_until_callback>:
20002988:	4b0a      	ldr	r3, [pc, #40]	@ (200029b4 <sleep_until_callback+0x2c>)
2000298a:	6819      	ldr	r1, [r3, #0]
2000298c:	f3ef 8010 	mrs	r0, PRIMASK
20002990:	b672      	cpsid	i
20002992:	680a      	ldr	r2, [r1, #0]
20002994:	2a00      	cmp	r2, #0
20002996:	d0fc      	beq.n	20002992 <sleep_until_callback+0xa>
20002998:	f3bf 8f5f 	dmb	sy
2000299c:	681b      	ldr	r3, [r3, #0]
2000299e:	f3bf 8f5f 	dmb	sy
200029a2:	2200      	movs	r2, #0
200029a4:	601a      	str	r2, [r3, #0]
200029a6:	f380 8810 	msr	PRIMASK, r0
200029aa:	bf40      	sev
200029ac:	2000      	movs	r0, #0
200029ae:	2100      	movs	r1, #0
200029b0:	4770      	bx	lr
200029b2:	46c0      	nop			@ (mov r8, r8)
200029b4:	20008ee8 	.word	0x20008ee8

200029b8 <alarm_pool_irq_handler>:
200029b8:	b5f0      	push	{r4, r5, r6, r7, lr}
200029ba:	46de      	mov	lr, fp
200029bc:	4657      	mov	r7, sl
200029be:	464e      	mov	r6, r9
200029c0:	4645      	mov	r5, r8
200029c2:	b5e0      	push	{r5, r6, r7, lr}
200029c4:	b085      	sub	sp, #20
200029c6:	f3ef 8305 	mrs	r3, IPSR
200029ca:	2203      	movs	r2, #3
200029cc:	401a      	ands	r2, r3
200029ce:	4bb3      	ldr	r3, [pc, #716]	@ (20002c9c <alarm_pool_irq_handler+0x2e4>)
200029d0:	0091      	lsls	r1, r2, #2
200029d2:	585f      	ldr	r7, [r3, r1]
200029d4:	2301      	movs	r3, #1
200029d6:	4093      	lsls	r3, r2
200029d8:	469b      	mov	fp, r3
200029da:	9202      	str	r2, [sp, #8]
200029dc:	465a      	mov	r2, fp
200029de:	4688      	mov	r8, r1
200029e0:	4baf      	ldr	r3, [pc, #700]	@ (20002ca0 <alarm_pool_irq_handler+0x2e8>)
200029e2:	601a      	str	r2, [r3, #0]
200029e4:	4baf      	ldr	r3, [pc, #700]	@ (20002ca4 <alarm_pool_irq_handler+0x2ec>)
200029e6:	9303      	str	r3, [sp, #12]
200029e8:	465b      	mov	r3, fp
200029ea:	48af      	ldr	r0, [pc, #700]	@ (20002ca8 <alarm_pool_irq_handler+0x2f0>)
200029ec:	6343      	str	r3, [r0, #52]	@ 0x34
200029ee:	2308      	movs	r3, #8
200029f0:	5efe      	ldrsh	r6, [r7, r3]
200029f2:	2e00      	cmp	r6, #0
200029f4:	da37      	bge.n	20002a66 <alarm_pool_irq_handler+0xae>
200029f6:	88bb      	ldrh	r3, [r7, #4]
200029f8:	b21b      	sxth	r3, r3
200029fa:	2b00      	cmp	r3, #0
200029fc:	db00      	blt.n	20002a00 <alarm_pool_irq_handler+0x48>
200029fe:	e0a4      	b.n	20002b4a <alarm_pool_irq_handler+0x192>
20002a00:	79bb      	ldrb	r3, [r7, #6]
20002a02:	2b00      	cmp	r3, #0
20002a04:	d000      	beq.n	20002a08 <alarm_pool_irq_handler+0x50>
20002a06:	e0e5      	b.n	20002bd4 <alarm_pool_irq_handler+0x21c>
20002a08:	2308      	movs	r3, #8
20002a0a:	5ef9      	ldrsh	r1, [r7, r3]
20002a0c:	2900      	cmp	r1, #0
20002a0e:	db20      	blt.n	20002a52 <alarm_pool_irq_handler+0x9a>
20002a10:	004b      	lsls	r3, r1, #1
20002a12:	697a      	ldr	r2, [r7, #20]
20002a14:	185b      	adds	r3, r3, r1
20002a16:	00db      	lsls	r3, r3, #3
20002a18:	18d3      	adds	r3, r2, r3
20002a1a:	689d      	ldr	r5, [r3, #8]
20002a1c:	68dc      	ldr	r4, [r3, #12]
20002a1e:	1c6b      	adds	r3, r5, #1
20002a20:	d100      	bne.n	20002a24 <alarm_pool_irq_handler+0x6c>
20002a22:	e104      	b.n	20002c2e <alarm_pool_irq_handler+0x276>
20002a24:	48a0      	ldr	r0, [pc, #640]	@ (20002ca8 <alarm_pool_irq_handler+0x2f0>)
20002a26:	0001      	movs	r1, r0
20002a28:	4441      	add	r1, r8
20002a2a:	6a82      	ldr	r2, [r0, #40]	@ 0x28
20002a2c:	690b      	ldr	r3, [r1, #16]
20002a2e:	1aae      	subs	r6, r5, r2
20002a30:	1a9b      	subs	r3, r3, r2
20002a32:	429e      	cmp	r6, r3
20002a34:	d315      	bcc.n	20002a62 <alarm_pool_irq_handler+0xaa>
20002a36:	2301      	movs	r3, #1
20002a38:	6a02      	ldr	r2, [r0, #32]
20002a3a:	9802      	ldr	r0, [sp, #8]
20002a3c:	4083      	lsls	r3, r0
20002a3e:	421a      	tst	r2, r3
20002a40:	d00f      	beq.n	20002a62 <alarm_pool_irq_handler+0xaa>
20002a42:	4899      	ldr	r0, [pc, #612]	@ (20002ca8 <alarm_pool_irq_handler+0x2f0>)
20002a44:	f000 fb50 	bl	200030e8 <timer_time_us_64>
20002a48:	428c      	cmp	r4, r1
20002a4a:	dc02      	bgt.n	20002a52 <alarm_pool_irq_handler+0x9a>
20002a4c:	d1cc      	bne.n	200029e8 <alarm_pool_irq_handler+0x30>
20002a4e:	4285      	cmp	r5, r0
20002a50:	d9ca      	bls.n	200029e8 <alarm_pool_irq_handler+0x30>
20002a52:	bf40      	sev
20002a54:	b005      	add	sp, #20
20002a56:	bcf0      	pop	{r4, r5, r6, r7}
20002a58:	46bb      	mov	fp, r7
20002a5a:	46b2      	mov	sl, r6
20002a5c:	46a9      	mov	r9, r5
20002a5e:	46a0      	mov	r8, r4
20002a60:	bdf0      	pop	{r4, r5, r6, r7, pc}
20002a62:	610d      	str	r5, [r1, #16]
20002a64:	e7ed      	b.n	20002a42 <alarm_pool_irq_handler+0x8a>
20002a66:	697a      	ldr	r2, [r7, #20]
20002a68:	0073      	lsls	r3, r6, #1
20002a6a:	4691      	mov	r9, r2
20002a6c:	199b      	adds	r3, r3, r6
20002a6e:	00db      	lsls	r3, r3, #3
20002a70:	4499      	add	r9, r3
20002a72:	464b      	mov	r3, r9
20002a74:	689c      	ldr	r4, [r3, #8]
20002a76:	68dd      	ldr	r5, [r3, #12]
20002a78:	f000 fb36 	bl	200030e8 <timer_time_us_64>
20002a7c:	428d      	cmp	r5, r1
20002a7e:	dcba      	bgt.n	200029f6 <alarm_pool_irq_handler+0x3e>
20002a80:	d100      	bne.n	20002a84 <alarm_pool_irq_handler+0xcc>
20002a82:	e0f6      	b.n	20002c72 <alarm_pool_irq_handler+0x2ba>
20002a84:	2d00      	cmp	r5, #0
20002a86:	da00      	bge.n	20002a8a <alarm_pool_irq_handler+0xd2>
20002a88:	e0db      	b.n	20002c42 <alarm_pool_irq_handler+0x28a>
20002a8a:	464a      	mov	r2, r9
20002a8c:	464b      	mov	r3, r9
20002a8e:	6952      	ldr	r2, [r2, #20]
20002a90:	691b      	ldr	r3, [r3, #16]
20002a92:	4692      	mov	sl, r2
20002a94:	9a03      	ldr	r2, [sp, #12]
20002a96:	4293      	cmp	r3, r2
20002a98:	d100      	bne.n	20002a9c <alarm_pool_irq_handler+0xe4>
20002a9a:	e0cc      	b.n	20002c36 <alarm_pool_irq_handler+0x27e>
20002a9c:	464a      	mov	r2, r9
20002a9e:	2108      	movs	r1, #8
20002aa0:	5e78      	ldrsh	r0, [r7, r1]
20002aa2:	8852      	ldrh	r2, [r2, #2]
20002aa4:	0400      	lsls	r0, r0, #16
20002aa6:	4651      	mov	r1, sl
20002aa8:	4310      	orrs	r0, r2
20002aaa:	4798      	blx	r3
20002aac:	9000      	str	r0, [sp, #0]
20002aae:	9101      	str	r1, [sp, #4]
20002ab0:	9900      	ldr	r1, [sp, #0]
20002ab2:	9a01      	ldr	r2, [sp, #4]
20002ab4:	000b      	movs	r3, r1
20002ab6:	4313      	orrs	r3, r2
20002ab8:	d100      	bne.n	20002abc <alarm_pool_irq_handler+0x104>
20002aba:	e0c2      	b.n	20002c42 <alarm_pool_irq_handler+0x28a>
20002abc:	0013      	movs	r3, r2
20002abe:	000a      	movs	r2, r1
20002ac0:	2b00      	cmp	r3, #0
20002ac2:	db00      	blt.n	20002ac6 <alarm_pool_irq_handler+0x10e>
20002ac4:	e0d9      	b.n	20002c7a <alarm_pool_irq_handler+0x2c2>
20002ac6:	0020      	movs	r0, r4
20002ac8:	0029      	movs	r1, r5
20002aca:	1a80      	subs	r0, r0, r2
20002acc:	4199      	sbcs	r1, r3
20002ace:	464b      	mov	r3, r9
20002ad0:	6098      	str	r0, [r3, #8]
20002ad2:	60d9      	str	r1, [r3, #12]
20002ad4:	2200      	movs	r2, #0
20002ad6:	5e9b      	ldrsh	r3, [r3, r2]
20002ad8:	2b00      	cmp	r3, #0
20002ada:	da00      	bge.n	20002ade <alarm_pool_irq_handler+0x126>
20002adc:	e78b      	b.n	200029f6 <alarm_pool_irq_handler+0x3e>
20002ade:	005d      	lsls	r5, r3, #1
20002ae0:	697c      	ldr	r4, [r7, #20]
20002ae2:	18ea      	adds	r2, r5, r3
20002ae4:	00d2      	lsls	r2, r2, #3
20002ae6:	18a2      	adds	r2, r4, r2
20002ae8:	9400      	str	r4, [sp, #0]
20002aea:	6894      	ldr	r4, [r2, #8]
20002aec:	68d2      	ldr	r2, [r2, #12]
20002aee:	46a2      	mov	sl, r4
20002af0:	428a      	cmp	r2, r1
20002af2:	dd00      	ble.n	20002af6 <alarm_pool_irq_handler+0x13e>
20002af4:	e77f      	b.n	200029f6 <alarm_pool_irq_handler+0x3e>
20002af6:	d102      	bne.n	20002afe <alarm_pool_irq_handler+0x146>
20002af8:	4284      	cmp	r4, r0
20002afa:	d900      	bls.n	20002afe <alarm_pool_irq_handler+0x146>
20002afc:	e77b      	b.n	200029f6 <alarm_pool_irq_handler+0x3e>
20002afe:	2408      	movs	r4, #8
20002b00:	46a4      	mov	ip, r4
20002b02:	813b      	strh	r3, [r7, #8]
20002b04:	44bc      	add	ip, r7
20002b06:	9c00      	ldr	r4, [sp, #0]
20002b08:	9700      	str	r7, [sp, #0]
20002b0a:	002f      	movs	r7, r5
20002b0c:	4665      	mov	r5, ip
20002b0e:	46b4      	mov	ip, r6
20002b10:	003e      	movs	r6, r7
20002b12:	e006      	b.n	20002b22 <alarm_pool_irq_handler+0x16a>
20002b14:	005e      	lsls	r6, r3, #1
20002b16:	18f2      	adds	r2, r6, r3
20002b18:	00d2      	lsls	r2, r2, #3
20002b1a:	18a2      	adds	r2, r4, r2
20002b1c:	6897      	ldr	r7, [r2, #8]
20002b1e:	68d2      	ldr	r2, [r2, #12]
20002b20:	46ba      	mov	sl, r7
20002b22:	428a      	cmp	r2, r1
20002b24:	dc07      	bgt.n	20002b36 <alarm_pool_irq_handler+0x17e>
20002b26:	d100      	bne.n	20002b2a <alarm_pool_irq_handler+0x172>
20002b28:	e0b4      	b.n	20002c94 <alarm_pool_irq_handler+0x2dc>
20002b2a:	18f3      	adds	r3, r6, r3
20002b2c:	00db      	lsls	r3, r3, #3
20002b2e:	18e5      	adds	r5, r4, r3
20002b30:	5ee3      	ldrsh	r3, [r4, r3]
20002b32:	2b00      	cmp	r3, #0
20002b34:	daee      	bge.n	20002b14 <alarm_pool_irq_handler+0x15c>
20002b36:	4666      	mov	r6, ip
20002b38:	464a      	mov	r2, r9
20002b3a:	9f00      	ldr	r7, [sp, #0]
20002b3c:	8013      	strh	r3, [r2, #0]
20002b3e:	802e      	strh	r6, [r5, #0]
20002b40:	88bb      	ldrh	r3, [r7, #4]
20002b42:	b21b      	sxth	r3, r3
20002b44:	2b00      	cmp	r3, #0
20002b46:	da00      	bge.n	20002b4a <alarm_pool_irq_handler+0x192>
20002b48:	e75a      	b.n	20002a00 <alarm_pool_irq_handler+0x48>
20002b4a:	693a      	ldr	r2, [r7, #16]
20002b4c:	f3ef 8110 	mrs	r1, PRIMASK
20002b50:	b672      	cpsid	i
20002b52:	6813      	ldr	r3, [r2, #0]
20002b54:	2b00      	cmp	r3, #0
20002b56:	d0fc      	beq.n	20002b52 <alarm_pool_irq_handler+0x19a>
20002b58:	f3bf 8f5f 	dmb	sy
20002b5c:	2301      	movs	r3, #1
20002b5e:	88be      	ldrh	r6, [r7, #4]
20002b60:	425b      	negs	r3, r3
20002b62:	80bb      	strh	r3, [r7, #4]
20002b64:	b236      	sxth	r6, r6
20002b66:	693b      	ldr	r3, [r7, #16]
20002b68:	f3bf 8f5f 	dmb	sy
20002b6c:	2200      	movs	r2, #0
20002b6e:	601a      	str	r2, [r3, #0]
20002b70:	f381 8810 	msr	PRIMASK, r1
20002b74:	2e00      	cmp	r6, #0
20002b76:	da00      	bge.n	20002b7a <alarm_pool_irq_handler+0x1c2>
20002b78:	e742      	b.n	20002a00 <alarm_pool_irq_handler+0x48>
20002b7a:	003b      	movs	r3, r7
20002b7c:	3308      	adds	r3, #8
20002b7e:	003a      	movs	r2, r7
20002b80:	4699      	mov	r9, r3
20002b82:	697d      	ldr	r5, [r7, #20]
20002b84:	0073      	lsls	r3, r6, #1
20002b86:	199b      	adds	r3, r3, r6
20002b88:	2408      	movs	r4, #8
20002b8a:	5f11      	ldrsh	r1, [r2, r4]
20002b8c:	00db      	lsls	r3, r3, #3
20002b8e:	4648      	mov	r0, r9
20002b90:	18eb      	adds	r3, r5, r3
20002b92:	2900      	cmp	r1, #0
20002b94:	db13      	blt.n	20002bbe <alarm_pool_irq_handler+0x206>
20002b96:	689c      	ldr	r4, [r3, #8]
20002b98:	9300      	str	r3, [sp, #0]
20002b9a:	46a4      	mov	ip, r4
20002b9c:	68dc      	ldr	r4, [r3, #12]
20002b9e:	e006      	b.n	20002bae <alarm_pool_irq_handler+0x1f6>
20002ba0:	42a3      	cmp	r3, r4
20002ba2:	d040      	beq.n	20002c26 <alarm_pool_irq_handler+0x26e>
20002ba4:	2300      	movs	r3, #0
20002ba6:	5ef9      	ldrsh	r1, [r7, r3]
20002ba8:	0038      	movs	r0, r7
20002baa:	2900      	cmp	r1, #0
20002bac:	db06      	blt.n	20002bbc <alarm_pool_irq_handler+0x204>
20002bae:	004f      	lsls	r7, r1, #1
20002bb0:	187f      	adds	r7, r7, r1
20002bb2:	00ff      	lsls	r7, r7, #3
20002bb4:	19ef      	adds	r7, r5, r7
20002bb6:	68fb      	ldr	r3, [r7, #12]
20002bb8:	42a3      	cmp	r3, r4
20002bba:	ddf1      	ble.n	20002ba0 <alarm_pool_irq_handler+0x1e8>
20002bbc:	9b00      	ldr	r3, [sp, #0]
20002bbe:	8006      	strh	r6, [r0, #0]
20002bc0:	2000      	movs	r0, #0
20002bc2:	5e1e      	ldrsh	r6, [r3, r0]
20002bc4:	8019      	strh	r1, [r3, #0]
20002bc6:	2e00      	cmp	r6, #0
20002bc8:	dadc      	bge.n	20002b84 <alarm_pool_irq_handler+0x1cc>
20002bca:	0017      	movs	r7, r2
20002bcc:	79bb      	ldrb	r3, [r7, #6]
20002bce:	2b00      	cmp	r3, #0
20002bd0:	d100      	bne.n	20002bd4 <alarm_pool_irq_handler+0x21c>
20002bd2:	e719      	b.n	20002a08 <alarm_pool_irq_handler+0x50>
20002bd4:	2300      	movs	r3, #0
20002bd6:	71bb      	strb	r3, [r7, #6]
20002bd8:	2308      	movs	r3, #8
20002bda:	5ef9      	ldrsh	r1, [r7, r3]
20002bdc:	1c4b      	adds	r3, r1, #1
20002bde:	d100      	bne.n	20002be2 <alarm_pool_irq_handler+0x22a>
20002be0:	e737      	b.n	20002a52 <alarm_pool_irq_handler+0x9a>
20002be2:	003d      	movs	r5, r7
20002be4:	3508      	adds	r5, #8
20002be6:	46ac      	mov	ip, r5
20002be8:	697c      	ldr	r4, [r7, #20]
20002bea:	e003      	b.n	20002bf4 <alarm_pool_irq_handler+0x23c>
20002bec:	4684      	mov	ip, r0
20002bee:	1c4b      	adds	r3, r1, #1
20002bf0:	d100      	bne.n	20002bf4 <alarm_pool_irq_handler+0x23c>
20002bf2:	e709      	b.n	20002a08 <alarm_pool_irq_handler+0x50>
20002bf4:	004b      	lsls	r3, r1, #1
20002bf6:	185b      	adds	r3, r3, r1
20002bf8:	00db      	lsls	r3, r3, #3
20002bfa:	18e0      	adds	r0, r4, r3
20002bfc:	000a      	movs	r2, r1
20002bfe:	5ee1      	ldrsh	r1, [r4, r3]
20002c00:	8843      	ldrh	r3, [r0, #2]
20002c02:	b21b      	sxth	r3, r3
20002c04:	2b00      	cmp	r3, #0
20002c06:	daf1      	bge.n	20002bec <alarm_pool_irq_handler+0x234>
20002c08:	2501      	movs	r5, #1
20002c0a:	426d      	negs	r5, r5
20002c0c:	17ee      	asrs	r6, r5, #31
20002c0e:	6085      	str	r5, [r0, #8]
20002c10:	60c6      	str	r6, [r0, #12]
20002c12:	2508      	movs	r5, #8
20002c14:	5f7b      	ldrsh	r3, [r7, r5]
20002c16:	4293      	cmp	r3, r2
20002c18:	d0e9      	beq.n	20002bee <alarm_pool_irq_handler+0x236>
20002c1a:	4663      	mov	r3, ip
20002c1c:	8019      	strh	r1, [r3, #0]
20002c1e:	893b      	ldrh	r3, [r7, #8]
20002c20:	8003      	strh	r3, [r0, #0]
20002c22:	813a      	strh	r2, [r7, #8]
20002c24:	e7e3      	b.n	20002bee <alarm_pool_irq_handler+0x236>
20002c26:	68bb      	ldr	r3, [r7, #8]
20002c28:	4563      	cmp	r3, ip
20002c2a:	d9bb      	bls.n	20002ba4 <alarm_pool_irq_handler+0x1ec>
20002c2c:	e7c6      	b.n	20002bbc <alarm_pool_irq_handler+0x204>
20002c2e:	1c63      	adds	r3, r4, #1
20002c30:	d000      	beq.n	20002c34 <alarm_pool_irq_handler+0x27c>
20002c32:	e6f7      	b.n	20002a24 <alarm_pool_irq_handler+0x6c>
20002c34:	e705      	b.n	20002a42 <alarm_pool_irq_handler+0x8a>
20002c36:	4653      	mov	r3, sl
20002c38:	4650      	mov	r0, sl
20002c3a:	691b      	ldr	r3, [r3, #16]
20002c3c:	4798      	blx	r3
20002c3e:	2800      	cmp	r0, #0
20002c40:	d123      	bne.n	20002c8a <alarm_pool_irq_handler+0x2d2>
20002c42:	464b      	mov	r3, r9
20002c44:	881b      	ldrh	r3, [r3, #0]
20002c46:	693a      	ldr	r2, [r7, #16]
20002c48:	813b      	strh	r3, [r7, #8]
20002c4a:	f3ef 8310 	mrs	r3, PRIMASK
20002c4e:	b672      	cpsid	i
20002c50:	6811      	ldr	r1, [r2, #0]
20002c52:	2900      	cmp	r1, #0
20002c54:	d0fc      	beq.n	20002c50 <alarm_pool_irq_handler+0x298>
20002c56:	f3bf 8f5f 	dmb	sy
20002c5a:	4649      	mov	r1, r9
20002c5c:	887a      	ldrh	r2, [r7, #2]
20002c5e:	800a      	strh	r2, [r1, #0]
20002c60:	693a      	ldr	r2, [r7, #16]
20002c62:	807e      	strh	r6, [r7, #2]
20002c64:	f3bf 8f5f 	dmb	sy
20002c68:	2100      	movs	r1, #0
20002c6a:	6011      	str	r1, [r2, #0]
20002c6c:	f383 8810 	msr	PRIMASK, r3
20002c70:	e6c1      	b.n	200029f6 <alarm_pool_irq_handler+0x3e>
20002c72:	4284      	cmp	r4, r0
20002c74:	d800      	bhi.n	20002c78 <alarm_pool_irq_handler+0x2c0>
20002c76:	e705      	b.n	20002a84 <alarm_pool_irq_handler+0xcc>
20002c78:	e6bd      	b.n	200029f6 <alarm_pool_irq_handler+0x3e>
20002c7a:	480b      	ldr	r0, [pc, #44]	@ (20002ca8 <alarm_pool_irq_handler+0x2f0>)
20002c7c:	f000 fa34 	bl	200030e8 <timer_time_us_64>
20002c80:	9b00      	ldr	r3, [sp, #0]
20002c82:	9c01      	ldr	r4, [sp, #4]
20002c84:	18c0      	adds	r0, r0, r3
20002c86:	4161      	adcs	r1, r4
20002c88:	e721      	b.n	20002ace <alarm_pool_irq_handler+0x116>
20002c8a:	4653      	mov	r3, sl
20002c8c:	cb0c      	ldmia	r3, {r2, r3}
20002c8e:	9200      	str	r2, [sp, #0]
20002c90:	9301      	str	r3, [sp, #4]
20002c92:	e70d      	b.n	20002ab0 <alarm_pool_irq_handler+0xf8>
20002c94:	4582      	cmp	sl, r0
20002c96:	d800      	bhi.n	20002c9a <alarm_pool_irq_handler+0x2e2>
20002c98:	e747      	b.n	20002b2a <alarm_pool_irq_handler+0x172>
20002c9a:	e74c      	b.n	20002b36 <alarm_pool_irq_handler+0x17e>
20002c9c:	20008ecc 	.word	0x20008ecc
20002ca0:	4005703c 	.word	0x4005703c
20002ca4:	200029b9 	.word	0x200029b9
20002ca8:	40054000 	.word	0x40054000

20002cac <runtime_init_default_alarm_pool>:
20002cac:	b570      	push	{r4, r5, r6, lr}
20002cae:	4c2d      	ldr	r4, [pc, #180]	@ (20002d64 <runtime_init_default_alarm_pool+0xb8>)
20002cb0:	6925      	ldr	r5, [r4, #16]
20002cb2:	2d00      	cmp	r5, #0
20002cb4:	d004      	beq.n	20002cc0 <runtime_init_default_alarm_pool+0x14>
20002cb6:	210a      	movs	r1, #10
20002cb8:	482b      	ldr	r0, [pc, #172]	@ (20002d68 <runtime_init_default_alarm_pool+0xbc>)
20002cba:	f7ff fe19 	bl	200028f0 <lock_init>
20002cbe:	bd70      	pop	{r4, r5, r6, pc}
20002cc0:	4e2a      	ldr	r6, [pc, #168]	@ (20002d6c <runtime_init_default_alarm_pool+0xc0>)
20002cc2:	2103      	movs	r1, #3
20002cc4:	4829      	ldr	r0, [pc, #164]	@ (20002d6c <runtime_init_default_alarm_pool+0xc0>)
20002cc6:	f000 fa05 	bl	200030d4 <timer_hardware_alarm_claim>
20002cca:	60e6      	str	r6, [r4, #12]
20002ccc:	f7ff fb42 	bl	20002354 <next_striped_spin_lock_num>
20002cd0:	4b27      	ldr	r3, [pc, #156]	@ (20002d70 <runtime_init_default_alarm_pool+0xc4>)
20002cd2:	2203      	movs	r2, #3
20002cd4:	18c0      	adds	r0, r0, r3
20002cd6:	23d0      	movs	r3, #208	@ 0xd0
20002cd8:	7022      	strb	r2, [r4, #0]
20002cda:	061b      	lsls	r3, r3, #24
20002cdc:	681b      	ldr	r3, [r3, #0]
20002cde:	2101      	movs	r1, #1
20002ce0:	7063      	strb	r3, [r4, #1]
20002ce2:	4b24      	ldr	r3, [pc, #144]	@ (20002d74 <runtime_init_default_alarm_pool+0xc8>)
20002ce4:	0080      	lsls	r0, r0, #2
20002ce6:	60a3      	str	r3, [r4, #8]
20002ce8:	230f      	movs	r3, #15
20002cea:	6120      	str	r0, [r4, #16]
20002cec:	2002      	movs	r0, #2
20002cee:	8063      	strh	r3, [r4, #2]
20002cf0:	6963      	ldr	r3, [r4, #20]
20002cf2:	4249      	negs	r1, r1
20002cf4:	80a1      	strh	r1, [r4, #4]
20002cf6:	8019      	strh	r1, [r3, #0]
20002cf8:	3102      	adds	r1, #2
20002cfa:	8619      	strh	r1, [r3, #48]	@ 0x30
20002cfc:	3147      	adds	r1, #71	@ 0x47
20002cfe:	831d      	strh	r5, [r3, #24]
20002d00:	5258      	strh	r0, [r3, r1]
20002d02:	3118      	adds	r1, #24
20002d04:	525a      	strh	r2, [r3, r1]
20002d06:	3275      	adds	r2, #117	@ 0x75
20002d08:	395c      	subs	r1, #92	@ 0x5c
20002d0a:	5299      	strh	r1, [r3, r2]
20002d0c:	3218      	adds	r2, #24
20002d0e:	3101      	adds	r1, #1
20002d10:	5299      	strh	r1, [r3, r2]
20002d12:	3218      	adds	r2, #24
20002d14:	3101      	adds	r1, #1
20002d16:	5299      	strh	r1, [r3, r2]
20002d18:	3218      	adds	r2, #24
20002d1a:	3101      	adds	r1, #1
20002d1c:	5299      	strh	r1, [r3, r2]
20002d1e:	3508      	adds	r5, #8
20002d20:	3218      	adds	r2, #24
20002d22:	529d      	strh	r5, [r3, r2]
20002d24:	3102      	adds	r1, #2
20002d26:	3218      	adds	r2, #24
20002d28:	5299      	strh	r1, [r3, r2]
20002d2a:	3218      	adds	r2, #24
20002d2c:	3101      	adds	r1, #1
20002d2e:	5299      	strh	r1, [r3, r2]
20002d30:	3218      	adds	r2, #24
20002d32:	3101      	adds	r1, #1
20002d34:	5299      	strh	r1, [r3, r2]
20002d36:	3218      	adds	r2, #24
20002d38:	3101      	adds	r1, #1
20002d3a:	5299      	strh	r1, [r3, r2]
20002d3c:	3218      	adds	r2, #24
20002d3e:	3101      	adds	r1, #1
20002d40:	5299      	strh	r1, [r3, r2]
20002d42:	3218      	adds	r2, #24
20002d44:	3101      	adds	r1, #1
20002d46:	5299      	strh	r1, [r3, r2]
20002d48:	4b0b      	ldr	r3, [pc, #44]	@ (20002d78 <runtime_init_default_alarm_pool+0xcc>)
20002d4a:	490c      	ldr	r1, [pc, #48]	@ (20002d7c <runtime_init_default_alarm_pool+0xd0>)
20002d4c:	60dc      	str	r4, [r3, #12]
20002d4e:	3001      	adds	r0, #1
20002d50:	6235      	str	r5, [r6, #32]
20002d52:	f7ff fb6b 	bl	2000242c <irq_set_exclusive_handler>
20002d56:	2101      	movs	r1, #1
20002d58:	2003      	movs	r0, #3
20002d5a:	f7ff fb49 	bl	200023f0 <irq_set_enabled>
20002d5e:	4b08      	ldr	r3, [pc, #32]	@ (20002d80 <runtime_init_default_alarm_pool+0xd4>)
20002d60:	601d      	str	r5, [r3, #0]
20002d62:	e7a8      	b.n	20002cb6 <runtime_init_default_alarm_pool+0xa>
20002d64:	20007ec8 	.word	0x20007ec8
20002d68:	20008ee8 	.word	0x20008ee8
20002d6c:	40054000 	.word	0x40054000
20002d70:	34000040 	.word	0x34000040
20002d74:	0010ffff 	.word	0x0010ffff
20002d78:	20008ecc 	.word	0x20008ecc
20002d7c:	200029b9 	.word	0x200029b9
20002d80:	40056038 	.word	0x40056038

20002d84 <alarm_pool_add_alarm_at_force_in_context>:
20002d84:	b570      	push	{r4, r5, r6, lr}
20002d86:	b082      	sub	sp, #8
20002d88:	9200      	str	r2, [sp, #0]
20002d8a:	9301      	str	r3, [sp, #4]
20002d8c:	0001      	movs	r1, r0
20002d8e:	6902      	ldr	r2, [r0, #16]
20002d90:	f3ef 8410 	mrs	r4, PRIMASK
20002d94:	b672      	cpsid	i
20002d96:	6813      	ldr	r3, [r2, #0]
20002d98:	2b00      	cmp	r3, #0
20002d9a:	d0fc      	beq.n	20002d96 <alarm_pool_add_alarm_at_force_in_context+0x12>
20002d9c:	f3bf 8f5f 	dmb	sy
20002da0:	2302      	movs	r3, #2
20002da2:	5ec8      	ldrsh	r0, [r1, r3]
20002da4:	690d      	ldr	r5, [r1, #16]
20002da6:	2800      	cmp	r0, #0
20002da8:	db3f      	blt.n	20002e2a <alarm_pool_add_alarm_at_force_in_context+0xa6>
20002daa:	694a      	ldr	r2, [r1, #20]
20002dac:	0043      	lsls	r3, r0, #1
20002dae:	0016      	movs	r6, r2
20002db0:	181b      	adds	r3, r3, r0
20002db2:	00db      	lsls	r3, r3, #3
20002db4:	18d2      	adds	r2, r2, r3
20002db6:	5af3      	ldrh	r3, [r6, r3]
20002db8:	804b      	strh	r3, [r1, #2]
20002dba:	f3bf 8f5f 	dmb	sy
20002dbe:	2300      	movs	r3, #0
20002dc0:	602b      	str	r3, [r5, #0]
20002dc2:	f384 8810 	msr	PRIMASK, r4
20002dc6:	9b06      	ldr	r3, [sp, #24]
20002dc8:	6113      	str	r3, [r2, #16]
20002dca:	9b07      	ldr	r3, [sp, #28]
20002dcc:	6153      	str	r3, [r2, #20]
20002dce:	9b00      	ldr	r3, [sp, #0]
20002dd0:	9c01      	ldr	r4, [sp, #4]
20002dd2:	6093      	str	r3, [r2, #8]
20002dd4:	60d4      	str	r4, [r2, #12]
20002dd6:	8853      	ldrh	r3, [r2, #2]
20002dd8:	3301      	adds	r3, #1
20002dda:	045b      	lsls	r3, r3, #17
20002ddc:	0c5b      	lsrs	r3, r3, #17
20002dde:	1c1d      	adds	r5, r3, #0
20002de0:	2b00      	cmp	r3, #0
20002de2:	d020      	beq.n	20002e26 <alarm_pool_add_alarm_at_force_in_context+0xa2>
20002de4:	b2ac      	uxth	r4, r5
20002de6:	0403      	lsls	r3, r0, #16
20002de8:	8055      	strh	r5, [r2, #2]
20002dea:	4323      	orrs	r3, r4
20002dec:	690d      	ldr	r5, [r1, #16]
20002dee:	f3ef 8c10 	mrs	ip, PRIMASK
20002df2:	b672      	cpsid	i
20002df4:	682c      	ldr	r4, [r5, #0]
20002df6:	2c00      	cmp	r4, #0
20002df8:	d0fc      	beq.n	20002df4 <alarm_pool_add_alarm_at_force_in_context+0x70>
20002dfa:	f3bf 8f5f 	dmb	sy
20002dfe:	888c      	ldrh	r4, [r1, #4]
20002e00:	8014      	strh	r4, [r2, #0]
20002e02:	8088      	strh	r0, [r1, #4]
20002e04:	690a      	ldr	r2, [r1, #16]
20002e06:	f3bf 8f5f 	dmb	sy
20002e0a:	2000      	movs	r0, #0
20002e0c:	6010      	str	r0, [r2, #0]
20002e0e:	f38c 8810 	msr	PRIMASK, ip
20002e12:	780a      	ldrb	r2, [r1, #0]
20002e14:	3001      	adds	r0, #1
20002e16:	4090      	lsls	r0, r2
20002e18:	68ca      	ldr	r2, [r1, #12]
20002e1a:	4908      	ldr	r1, [pc, #32]	@ (20002e3c <alarm_pool_add_alarm_at_force_in_context+0xb8>)
20002e1c:	1852      	adds	r2, r2, r1
20002e1e:	6010      	str	r0, [r2, #0]
20002e20:	0018      	movs	r0, r3
20002e22:	b002      	add	sp, #8
20002e24:	bd70      	pop	{r4, r5, r6, pc}
20002e26:	2501      	movs	r5, #1
20002e28:	e7dc      	b.n	20002de4 <alarm_pool_add_alarm_at_force_in_context+0x60>
20002e2a:	f3bf 8f5f 	dmb	sy
20002e2e:	2300      	movs	r3, #0
20002e30:	602b      	str	r3, [r5, #0]
20002e32:	f384 8810 	msr	PRIMASK, r4
20002e36:	3b01      	subs	r3, #1
20002e38:	e7f2      	b.n	20002e20 <alarm_pool_add_alarm_at_force_in_context+0x9c>
20002e3a:	46c0      	nop			@ (mov r8, r8)
20002e3c:	0000203c 	.word	0x0000203c

20002e40 <alarm_pool_cancel_alarm>:
20002e40:	b510      	push	{r4, lr}
20002e42:	8943      	ldrh	r3, [r0, #10]
20002e44:	140a      	asrs	r2, r1, #16
20002e46:	4293      	cmp	r3, r2
20002e48:	dd1a      	ble.n	20002e80 <alarm_pool_cancel_alarm+0x40>
20002e4a:	0053      	lsls	r3, r2, #1
20002e4c:	189b      	adds	r3, r3, r2
20002e4e:	6942      	ldr	r2, [r0, #20]
20002e50:	00db      	lsls	r3, r3, #3
20002e52:	18d3      	adds	r3, r2, r3
20002e54:	6904      	ldr	r4, [r0, #16]
20002e56:	f3ef 8c10 	mrs	ip, PRIMASK
20002e5a:	b672      	cpsid	i
20002e5c:	6822      	ldr	r2, [r4, #0]
20002e5e:	2a00      	cmp	r2, #0
20002e60:	d0fc      	beq.n	20002e5c <alarm_pool_cancel_alarm+0x1c>
20002e62:	f3bf 8f5f 	dmb	sy
20002e66:	885a      	ldrh	r2, [r3, #2]
20002e68:	0409      	lsls	r1, r1, #16
20002e6a:	b294      	uxth	r4, r2
20002e6c:	0c09      	lsrs	r1, r1, #16
20002e6e:	428a      	cmp	r2, r1
20002e70:	d008      	beq.n	20002e84 <alarm_pool_cancel_alarm+0x44>
20002e72:	6903      	ldr	r3, [r0, #16]
20002e74:	f3bf 8f5f 	dmb	sy
20002e78:	2200      	movs	r2, #0
20002e7a:	601a      	str	r2, [r3, #0]
20002e7c:	f38c 8810 	msr	PRIMASK, ip
20002e80:	2000      	movs	r0, #0
20002e82:	bd10      	pop	{r4, pc}
20002e84:	4a09      	ldr	r2, [pc, #36]	@ (20002eac <alarm_pool_cancel_alarm+0x6c>)
20002e86:	4322      	orrs	r2, r4
20002e88:	805a      	strh	r2, [r3, #2]
20002e8a:	2301      	movs	r3, #1
20002e8c:	6902      	ldr	r2, [r0, #16]
20002e8e:	7183      	strb	r3, [r0, #6]
20002e90:	f3bf 8f5f 	dmb	sy
20002e94:	2100      	movs	r1, #0
20002e96:	6011      	str	r1, [r2, #0]
20002e98:	f38c 8810 	msr	PRIMASK, ip
20002e9c:	7802      	ldrb	r2, [r0, #0]
20002e9e:	4904      	ldr	r1, [pc, #16]	@ (20002eb0 <alarm_pool_cancel_alarm+0x70>)
20002ea0:	4093      	lsls	r3, r2
20002ea2:	68c2      	ldr	r2, [r0, #12]
20002ea4:	2001      	movs	r0, #1
20002ea6:	1852      	adds	r2, r2, r1
20002ea8:	6013      	str	r3, [r2, #0]
20002eaa:	e7ea      	b.n	20002e82 <alarm_pool_cancel_alarm+0x42>
20002eac:	ffff8000 	.word	0xffff8000
20002eb0:	0000203c 	.word	0x0000203c

20002eb4 <sleep_us>:
20002eb4:	b5f0      	push	{r4, r5, r6, r7, lr}
20002eb6:	46c6      	mov	lr, r8
20002eb8:	b500      	push	{lr}
20002eba:	b082      	sub	sp, #8
20002ebc:	0004      	movs	r4, r0
20002ebe:	000d      	movs	r5, r1
20002ec0:	f000 f91a 	bl	200030f8 <time_us_64>
20002ec4:	1824      	adds	r4, r4, r0
20002ec6:	414d      	adcs	r5, r1
20002ec8:	2d00      	cmp	r5, #0
20002eca:	da02      	bge.n	20002ed2 <sleep_us+0x1e>
20002ecc:	2401      	movs	r4, #1
20002ece:	4d2f      	ldr	r5, [pc, #188]	@ (20002f8c <sleep_us+0xd8>)
20002ed0:	4264      	negs	r4, r4
20002ed2:	2606      	movs	r6, #6
20002ed4:	4276      	negs	r6, r6
20002ed6:	17f7      	asrs	r7, r6, #31
20002ed8:	1936      	adds	r6, r6, r4
20002eda:	416f      	adcs	r7, r5
20002edc:	42af      	cmp	r7, r5
20002ede:	d814      	bhi.n	20002f0a <sleep_us+0x56>
20002ee0:	d011      	beq.n	20002f06 <sleep_us+0x52>
20002ee2:	f000 f909 	bl	200030f8 <time_us_64>
20002ee6:	0032      	movs	r2, r6
20002ee8:	003b      	movs	r3, r7
20002eea:	1a12      	subs	r2, r2, r0
20002eec:	418b      	sbcs	r3, r1
20002eee:	2b00      	cmp	r3, #0
20002ef0:	dc15      	bgt.n	20002f1e <sleep_us+0x6a>
20002ef2:	2b00      	cmp	r3, #0
20002ef4:	d046      	beq.n	20002f84 <sleep_us+0xd0>
20002ef6:	0020      	movs	r0, r4
20002ef8:	0029      	movs	r1, r5
20002efa:	f000 f907 	bl	2000310c <busy_wait_until>
20002efe:	b002      	add	sp, #8
20002f00:	bc80      	pop	{r7}
20002f02:	46b8      	mov	r8, r7
20002f04:	bdf0      	pop	{r4, r5, r6, r7, pc}
20002f06:	42a6      	cmp	r6, r4
20002f08:	d9eb      	bls.n	20002ee2 <sleep_us+0x2e>
20002f0a:	2600      	movs	r6, #0
20002f0c:	2700      	movs	r7, #0
20002f0e:	f000 f8f3 	bl	200030f8 <time_us_64>
20002f12:	0032      	movs	r2, r6
20002f14:	003b      	movs	r3, r7
20002f16:	1a12      	subs	r2, r2, r0
20002f18:	418b      	sbcs	r3, r1
20002f1a:	2b00      	cmp	r3, #0
20002f1c:	dde9      	ble.n	20002ef2 <sleep_us+0x3e>
20002f1e:	f000 f8eb 	bl	200030f8 <time_us_64>
20002f22:	0032      	movs	r2, r6
20002f24:	003b      	movs	r3, r7
20002f26:	1a12      	subs	r2, r2, r0
20002f28:	418b      	sbcs	r3, r1
20002f2a:	2b00      	cmp	r3, #0
20002f2c:	db0a      	blt.n	20002f44 <sleep_us+0x90>
20002f2e:	2300      	movs	r3, #0
20002f30:	9301      	str	r3, [sp, #4]
20002f32:	4b17      	ldr	r3, [pc, #92]	@ (20002f90 <sleep_us+0xdc>)
20002f34:	0032      	movs	r2, r6
20002f36:	9300      	str	r3, [sp, #0]
20002f38:	4816      	ldr	r0, [pc, #88]	@ (20002f94 <sleep_us+0xe0>)
20002f3a:	003b      	movs	r3, r7
20002f3c:	f7ff ff22 	bl	20002d84 <alarm_pool_add_alarm_at_force_in_context>
20002f40:	3001      	adds	r0, #1
20002f42:	d0d8      	beq.n	20002ef6 <sleep_us+0x42>
20002f44:	2300      	movs	r3, #0
20002f46:	0039      	movs	r1, r7
20002f48:	46b0      	mov	r8, r6
20002f4a:	469c      	mov	ip, r3
20002f4c:	4a12      	ldr	r2, [pc, #72]	@ (20002f98 <sleep_us+0xe4>)
20002f4e:	4813      	ldr	r0, [pc, #76]	@ (20002f9c <sleep_us+0xe8>)
20002f50:	6a53      	ldr	r3, [r2, #36]	@ 0x24
20002f52:	4299      	cmp	r1, r3
20002f54:	d804      	bhi.n	20002f60 <sleep_us+0xac>
20002f56:	6a96      	ldr	r6, [r2, #40]	@ 0x28
20002f58:	4546      	cmp	r6, r8
20002f5a:	d2cc      	bcs.n	20002ef6 <sleep_us+0x42>
20002f5c:	4299      	cmp	r1, r3
20002f5e:	d1ca      	bne.n	20002ef6 <sleep_us+0x42>
20002f60:	6806      	ldr	r6, [r0, #0]
20002f62:	f3ef 8710 	mrs	r7, PRIMASK
20002f66:	b672      	cpsid	i
20002f68:	6833      	ldr	r3, [r6, #0]
20002f6a:	2b00      	cmp	r3, #0
20002f6c:	d0fc      	beq.n	20002f68 <sleep_us+0xb4>
20002f6e:	f3bf 8f5f 	dmb	sy
20002f72:	6803      	ldr	r3, [r0, #0]
20002f74:	f3bf 8f5f 	dmb	sy
20002f78:	4666      	mov	r6, ip
20002f7a:	601e      	str	r6, [r3, #0]
20002f7c:	f387 8810 	msr	PRIMASK, r7
20002f80:	bf20      	wfe
20002f82:	e7e5      	b.n	20002f50 <sleep_us+0x9c>
20002f84:	2a00      	cmp	r2, #0
20002f86:	d0b6      	beq.n	20002ef6 <sleep_us+0x42>
20002f88:	e7c9      	b.n	20002f1e <sleep_us+0x6a>
20002f8a:	46c0      	nop			@ (mov r8, r8)
20002f8c:	7fffffff 	.word	0x7fffffff
20002f90:	20002989 	.word	0x20002989
20002f94:	20007ec8 	.word	0x20007ec8
20002f98:	40054000 	.word	0x40054000
20002f9c:	20008ee8 	.word	0x20008ee8

20002fa0 <best_effort_wfe_or_timeout>:
20002fa0:	b5f0      	push	{r4, r5, r6, r7, lr}
20002fa2:	46ce      	mov	lr, r9
20002fa4:	4647      	mov	r7, r8
20002fa6:	b580      	push	{r7, lr}
20002fa8:	0004      	movs	r4, r0
20002faa:	000d      	movs	r5, r1
20002fac:	b085      	sub	sp, #20
20002fae:	f3ef 8605 	mrs	r6, IPSR
20002fb2:	4689      	mov	r9, r1
20002fb4:	2e00      	cmp	r6, #0
20002fb6:	d010      	beq.n	20002fda <best_effort_wfe_or_timeout+0x3a>
20002fb8:	4936      	ldr	r1, [pc, #216]	@ (20003094 <best_effort_wfe_or_timeout+0xf4>)
20002fba:	2000      	movs	r0, #0
20002fbc:	6a4b      	ldr	r3, [r1, #36]	@ 0x24
20002fbe:	42ab      	cmp	r3, r5
20002fc0:	d306      	bcc.n	20002fd0 <best_effort_wfe_or_timeout+0x30>
20002fc2:	6a8a      	ldr	r2, [r1, #40]	@ 0x28
20002fc4:	1b5b      	subs	r3, r3, r5
20002fc6:	1e59      	subs	r1, r3, #1
20002fc8:	418b      	sbcs	r3, r1
20002fca:	42a2      	cmp	r2, r4
20002fcc:	4140      	adcs	r0, r0
20002fce:	4318      	orrs	r0, r3
20002fd0:	b005      	add	sp, #20
20002fd2:	bcc0      	pop	{r6, r7}
20002fd4:	46b9      	mov	r9, r7
20002fd6:	46b0      	mov	r8, r6
20002fd8:	bdf0      	pop	{r4, r5, r6, r7, pc}
20002fda:	4f2f      	ldr	r7, [pc, #188]	@ (20003098 <best_effort_wfe_or_timeout+0xf8>)
20002fdc:	68fb      	ldr	r3, [r7, #12]
20002fde:	783a      	ldrb	r2, [r7, #0]
20002fe0:	4698      	mov	r8, r3
20002fe2:	0018      	movs	r0, r3
20002fe4:	9203      	str	r2, [sp, #12]
20002fe6:	f000 f87f 	bl	200030e8 <timer_time_us_64>
20002fea:	9a03      	ldr	r2, [sp, #12]
20002fec:	1d13      	adds	r3, r2, #4
20002fee:	4642      	mov	r2, r8
20002ff0:	009b      	lsls	r3, r3, #2
20002ff2:	589b      	ldr	r3, [r3, r2]
20002ff4:	0022      	movs	r2, r4
20002ff6:	1a1b      	subs	r3, r3, r0
20002ff8:	469c      	mov	ip, r3
20002ffa:	002b      	movs	r3, r5
20002ffc:	1a12      	subs	r2, r2, r0
20002ffe:	418b      	sbcs	r3, r1
20003000:	429e      	cmp	r6, r3
20003002:	dc10      	bgt.n	20003026 <best_effort_wfe_or_timeout+0x86>
20003004:	d00d      	beq.n	20003022 <best_effort_wfe_or_timeout+0x82>
20003006:	bf20      	wfe
20003008:	4a22      	ldr	r2, [pc, #136]	@ (20003094 <best_effort_wfe_or_timeout+0xf4>)
2000300a:	2000      	movs	r0, #0
2000300c:	6a53      	ldr	r3, [r2, #36]	@ 0x24
2000300e:	454b      	cmp	r3, r9
20003010:	d3de      	bcc.n	20002fd0 <best_effort_wfe_or_timeout+0x30>
20003012:	6a92      	ldr	r2, [r2, #40]	@ 0x28
20003014:	1b5b      	subs	r3, r3, r5
20003016:	1e59      	subs	r1, r3, #1
20003018:	418b      	sbcs	r3, r1
2000301a:	42a2      	cmp	r2, r4
2000301c:	4140      	adcs	r0, r0
2000301e:	4318      	orrs	r0, r3
20003020:	e7d6      	b.n	20002fd0 <best_effort_wfe_or_timeout+0x30>
20003022:	4594      	cmp	ip, r2
20003024:	d9ef      	bls.n	20003006 <best_effort_wfe_or_timeout+0x66>
20003026:	f000 f867 	bl	200030f8 <time_us_64>
2000302a:	0022      	movs	r2, r4
2000302c:	002b      	movs	r3, r5
2000302e:	1a12      	subs	r2, r2, r0
20003030:	418b      	sbcs	r3, r1
20003032:	2b00      	cmp	r3, #0
20003034:	db1b      	blt.n	2000306e <best_effort_wfe_or_timeout+0xce>
20003036:	2300      	movs	r3, #0
20003038:	9301      	str	r3, [sp, #4]
2000303a:	4b18      	ldr	r3, [pc, #96]	@ (2000309c <best_effort_wfe_or_timeout+0xfc>)
2000303c:	0022      	movs	r2, r4
2000303e:	9300      	str	r3, [sp, #0]
20003040:	0038      	movs	r0, r7
20003042:	002b      	movs	r3, r5
20003044:	f7ff fe9e 	bl	20002d84 <alarm_pool_add_alarm_at_force_in_context>
20003048:	2800      	cmp	r0, #0
2000304a:	dd10      	ble.n	2000306e <best_effort_wfe_or_timeout+0xce>
2000304c:	4b11      	ldr	r3, [pc, #68]	@ (20003094 <best_effort_wfe_or_timeout+0xf4>)
2000304e:	6a5a      	ldr	r2, [r3, #36]	@ 0x24
20003050:	454a      	cmp	r2, r9
20003052:	d31c      	bcc.n	2000308e <best_effort_wfe_or_timeout+0xee>
20003054:	6a9b      	ldr	r3, [r3, #40]	@ 0x28
20003056:	42a3      	cmp	r3, r4
20003058:	d317      	bcc.n	2000308a <best_effort_wfe_or_timeout+0xea>
2000305a:	0001      	movs	r1, r0
2000305c:	0038      	movs	r0, r7
2000305e:	f7ff feef 	bl	20002e40 <alarm_pool_cancel_alarm>
20003062:	4a0c      	ldr	r2, [pc, #48]	@ (20003094 <best_effort_wfe_or_timeout+0xf4>)
20003064:	2000      	movs	r0, #0
20003066:	6a53      	ldr	r3, [r2, #36]	@ 0x24
20003068:	454b      	cmp	r3, r9
2000306a:	d3b1      	bcc.n	20002fd0 <best_effort_wfe_or_timeout+0x30>
2000306c:	e7d1      	b.n	20003012 <best_effort_wfe_or_timeout+0x72>
2000306e:	4a09      	ldr	r2, [pc, #36]	@ (20003094 <best_effort_wfe_or_timeout+0xf4>)
20003070:	2000      	movs	r0, #0
20003072:	6a53      	ldr	r3, [r2, #36]	@ 0x24
20003074:	454b      	cmp	r3, r9
20003076:	d3ab      	bcc.n	20002fd0 <best_effort_wfe_or_timeout+0x30>
20003078:	2000      	movs	r0, #0
2000307a:	6a92      	ldr	r2, [r2, #40]	@ 0x28
2000307c:	1b5b      	subs	r3, r3, r5
2000307e:	42a2      	cmp	r2, r4
20003080:	4140      	adcs	r0, r0
20003082:	1e5a      	subs	r2, r3, #1
20003084:	4193      	sbcs	r3, r2
20003086:	4318      	orrs	r0, r3
20003088:	e7a2      	b.n	20002fd0 <best_effort_wfe_or_timeout+0x30>
2000308a:	454a      	cmp	r2, r9
2000308c:	d1e5      	bne.n	2000305a <best_effort_wfe_or_timeout+0xba>
2000308e:	bf20      	wfe
20003090:	e7e3      	b.n	2000305a <best_effort_wfe_or_timeout+0xba>
20003092:	46c0      	nop			@ (mov r8, r8)
20003094:	40054000 	.word	0x40054000
20003098:	20007ec8 	.word	0x20007ec8
2000309c:	20002989 	.word	0x20002989

200030a0 <check_single_timeout_us>:
200030a0:	6803      	ldr	r3, [r0, #0]
200030a2:	4908      	ldr	r1, [pc, #32]	@ (200030c4 <check_single_timeout_us+0x24>)
200030a4:	469c      	mov	ip, r3
200030a6:	6a4a      	ldr	r2, [r1, #36]	@ 0x24
200030a8:	6843      	ldr	r3, [r0, #4]
200030aa:	2000      	movs	r0, #0
200030ac:	4293      	cmp	r3, r2
200030ae:	d807      	bhi.n	200030c0 <check_single_timeout_us+0x20>
200030b0:	1a9b      	subs	r3, r3, r2
200030b2:	1e5a      	subs	r2, r3, #1
200030b4:	4193      	sbcs	r3, r2
200030b6:	4662      	mov	r2, ip
200030b8:	6a89      	ldr	r1, [r1, #40]	@ 0x28
200030ba:	4291      	cmp	r1, r2
200030bc:	4140      	adcs	r0, r0
200030be:	4318      	orrs	r0, r3
200030c0:	4770      	bx	lr
200030c2:	46c0      	nop			@ (mov r8, r8)
200030c4:	40054000 	.word	0x40054000

200030c8 <init_single_timeout_until>:
200030c8:	c00c      	stmia	r0!, {r2, r3}
200030ca:	4801      	ldr	r0, [pc, #4]	@ (200030d0 <init_single_timeout_until+0x8>)
200030cc:	4770      	bx	lr
200030ce:	46c0      	nop			@ (mov r8, r8)
200030d0:	200030a1 	.word	0x200030a1

200030d4 <timer_hardware_alarm_claim>:
200030d4:	b510      	push	{r4, lr}
200030d6:	4a02      	ldr	r2, [pc, #8]	@ (200030e0 <timer_hardware_alarm_claim+0xc>)
200030d8:	4802      	ldr	r0, [pc, #8]	@ (200030e4 <timer_hardware_alarm_claim+0x10>)
200030da:	f7ff f8cf 	bl	2000227c <hw_claim_or_assert>
200030de:	bd10      	pop	{r4, pc}
200030e0:	20007b18 	.word	0x20007b18
200030e4:	200089d4 	.word	0x200089d4

200030e8 <timer_time_us_64>:
200030e8:	0003      	movs	r3, r0
200030ea:	6a41      	ldr	r1, [r0, #36]	@ 0x24
200030ec:	000a      	movs	r2, r1
200030ee:	6a98      	ldr	r0, [r3, #40]	@ 0x28
200030f0:	6a59      	ldr	r1, [r3, #36]	@ 0x24
200030f2:	428a      	cmp	r2, r1
200030f4:	d1fa      	bne.n	200030ec <timer_time_us_64+0x4>
200030f6:	4770      	bx	lr

200030f8 <time_us_64>:
200030f8:	4b03      	ldr	r3, [pc, #12]	@ (20003108 <time_us_64+0x10>)
200030fa:	6a59      	ldr	r1, [r3, #36]	@ 0x24
200030fc:	000a      	movs	r2, r1
200030fe:	6a98      	ldr	r0, [r3, #40]	@ 0x28
20003100:	6a59      	ldr	r1, [r3, #36]	@ 0x24
20003102:	4291      	cmp	r1, r2
20003104:	d1fa      	bne.n	200030fc <time_us_64+0x4>
20003106:	4770      	bx	lr
20003108:	40054000 	.word	0x40054000

2000310c <busy_wait_until>:
2000310c:	4a06      	ldr	r2, [pc, #24]	@ (20003128 <busy_wait_until+0x1c>)
2000310e:	6a53      	ldr	r3, [r2, #36]	@ 0x24
20003110:	4299      	cmp	r1, r3
20003112:	d8fc      	bhi.n	2000310e <busy_wait_until+0x2>
20003114:	d107      	bne.n	20003126 <busy_wait_until+0x1a>
20003116:	4b04      	ldr	r3, [pc, #16]	@ (20003128 <busy_wait_until+0x1c>)
20003118:	e002      	b.n	20003120 <busy_wait_until+0x14>
2000311a:	6a5a      	ldr	r2, [r3, #36]	@ 0x24
2000311c:	4291      	cmp	r1, r2
2000311e:	d102      	bne.n	20003126 <busy_wait_until+0x1a>
20003120:	6a9a      	ldr	r2, [r3, #40]	@ 0x28
20003122:	4290      	cmp	r0, r2
20003124:	d8f9      	bhi.n	2000311a <busy_wait_until+0xe>
20003126:	4770      	bx	lr
20003128:	40054000 	.word	0x40054000

2000312c <clock_configure_int_divider>:
2000312c:	b5f8      	push	{r3, r4, r5, r6, r7, lr}
2000312e:	46de      	mov	lr, fp
20003130:	464e      	mov	r6, r9
20003132:	4645      	mov	r5, r8
20003134:	4657      	mov	r7, sl
20003136:	b5e0      	push	{r5, r6, r7, lr}
20003138:	0005      	movs	r5, r0
2000313a:	468b      	mov	fp, r1
2000313c:	0018      	movs	r0, r3
2000313e:	990a      	ldr	r1, [sp, #40]	@ 0x28
20003140:	4691      	mov	r9, r2
20003142:	f000 fd0d 	bl	20003b60 <__wrap___aeabi_uidiv>
20003146:	9b0a      	ldr	r3, [sp, #40]	@ 0x28
20003148:	006c      	lsls	r4, r5, #1
2000314a:	021e      	lsls	r6, r3, #8
2000314c:	1964      	adds	r4, r4, r5
2000314e:	4b30      	ldr	r3, [pc, #192]	@ (20003210 <clock_configure_int_divider+0xe4>)
20003150:	00a4      	lsls	r4, r4, #2
20003152:	18e4      	adds	r4, r4, r3
20003154:	6863      	ldr	r3, [r4, #4]
20003156:	4680      	mov	r8, r0
20003158:	429e      	cmp	r6, r3
2000315a:	d900      	bls.n	2000315e <clock_configure_int_divider+0x32>
2000315c:	6066      	str	r6, [r4, #4]
2000315e:	1f2f      	subs	r7, r5, #4
20003160:	b2fb      	uxtb	r3, r7
20003162:	469a      	mov	sl, r3
20003164:	2b01      	cmp	r3, #1
20003166:	d92f      	bls.n	200031c8 <clock_configure_int_divider+0x9c>
20003168:	23c0      	movs	r3, #192	@ 0xc0
2000316a:	2280      	movs	r2, #128	@ 0x80
2000316c:	4f29      	ldr	r7, [pc, #164]	@ (20003214 <clock_configure_int_divider+0xe8>)
2000316e:	00ad      	lsls	r5, r5, #2
20003170:	019b      	lsls	r3, r3, #6
20003172:	5979      	ldr	r1, [r7, r5]
20003174:	0112      	lsls	r2, r2, #4
20003176:	18e3      	adds	r3, r4, r3
20003178:	601a      	str	r2, [r3, #0]
2000317a:	2900      	cmp	r1, #0
2000317c:	d11b      	bne.n	200031b6 <clock_configure_int_divider+0x8a>
2000317e:	464b      	mov	r3, r9
20003180:	6822      	ldr	r2, [r4, #0]
20003182:	015b      	lsls	r3, r3, #5
20003184:	4053      	eors	r3, r2
20003186:	22e0      	movs	r2, #224	@ 0xe0
20003188:	4013      	ands	r3, r2
2000318a:	2280      	movs	r2, #128	@ 0x80
2000318c:	0152      	lsls	r2, r2, #5
2000318e:	18a2      	adds	r2, r4, r2
20003190:	6013      	str	r3, [r2, #0]
20003192:	4653      	mov	r3, sl
20003194:	2b01      	cmp	r3, #1
20003196:	d92f      	bls.n	200031f8 <clock_configure_int_divider+0xcc>
20003198:	2380      	movs	r3, #128	@ 0x80
2000319a:	2280      	movs	r2, #128	@ 0x80
2000319c:	019b      	lsls	r3, r3, #6
2000319e:	18e3      	adds	r3, r4, r3
200031a0:	0112      	lsls	r2, r2, #4
200031a2:	601a      	str	r2, [r3, #0]
200031a4:	4643      	mov	r3, r8
200031a6:	6066      	str	r6, [r4, #4]
200031a8:	517b      	str	r3, [r7, r5]
200031aa:	bcf0      	pop	{r4, r5, r6, r7}
200031ac:	46bb      	mov	fp, r7
200031ae:	46b2      	mov	sl, r6
200031b0:	46a9      	mov	r9, r5
200031b2:	46a0      	mov	r8, r4
200031b4:	bdf8      	pop	{r3, r4, r5, r6, r7, pc}
200031b6:	6978      	ldr	r0, [r7, #20]
200031b8:	f000 fcd2 	bl	20003b60 <__wrap___aeabi_uidiv>
200031bc:	3001      	adds	r0, #1
200031be:	0043      	lsls	r3, r0, #1
200031c0:	181b      	adds	r3, r3, r0
200031c2:	3b03      	subs	r3, #3
200031c4:	d2fd      	bcs.n	200031c2 <clock_configure_int_divider+0x96>
200031c6:	e7da      	b.n	2000317e <clock_configure_int_divider+0x52>
200031c8:	465b      	mov	r3, fp
200031ca:	2b01      	cmp	r3, #1
200031cc:	d1cc      	bne.n	20003168 <clock_configure_int_divider+0x3c>
200031ce:	23c0      	movs	r3, #192	@ 0xc0
200031d0:	2203      	movs	r2, #3
200031d2:	019b      	lsls	r3, r3, #6
200031d4:	18e3      	adds	r3, r4, r3
200031d6:	601a      	str	r2, [r3, #0]
200031d8:	3a02      	subs	r2, #2
200031da:	68a3      	ldr	r3, [r4, #8]
200031dc:	421a      	tst	r2, r3
200031de:	d0fc      	beq.n	200031da <clock_configure_int_divider+0xae>
200031e0:	464a      	mov	r2, r9
200031e2:	6823      	ldr	r3, [r4, #0]
200031e4:	0152      	lsls	r2, r2, #5
200031e6:	405a      	eors	r2, r3
200031e8:	23e0      	movs	r3, #224	@ 0xe0
200031ea:	4013      	ands	r3, r2
200031ec:	2280      	movs	r2, #128	@ 0x80
200031ee:	0152      	lsls	r2, r2, #5
200031f0:	18a2      	adds	r2, r4, r2
200031f2:	4f08      	ldr	r7, [pc, #32]	@ (20003214 <clock_configure_int_divider+0xe8>)
200031f4:	6013      	str	r3, [r2, #0]
200031f6:	00ad      	lsls	r5, r5, #2
200031f8:	4658      	mov	r0, fp
200031fa:	2303      	movs	r3, #3
200031fc:	6821      	ldr	r1, [r4, #0]
200031fe:	4041      	eors	r1, r0
20003200:	400b      	ands	r3, r1
20003202:	6013      	str	r3, [r2, #0]
20003204:	2201      	movs	r2, #1
20003206:	4082      	lsls	r2, r0
20003208:	68a3      	ldr	r3, [r4, #8]
2000320a:	421a      	tst	r2, r3
2000320c:	d0fc      	beq.n	20003208 <clock_configure_int_divider+0xdc>
2000320e:	e7c3      	b.n	20003198 <clock_configure_int_divider+0x6c>
20003210:	40008000 	.word	0x40008000
20003214:	200089d8 	.word	0x200089d8

20003218 <clock_configure_undivided>:
20003218:	b5f0      	push	{r4, r5, r6, r7, lr}
2000321a:	46d6      	mov	lr, sl
2000321c:	464f      	mov	r7, r9
2000321e:	4646      	mov	r6, r8
20003220:	0044      	lsls	r4, r0, #1
20003222:	4698      	mov	r8, r3
20003224:	1824      	adds	r4, r4, r0
20003226:	4b32      	ldr	r3, [pc, #200]	@ (200032f0 <clock_configure_undivided+0xd8>)
20003228:	00a4      	lsls	r4, r4, #2
2000322a:	18e4      	adds	r4, r4, r3
2000322c:	6863      	ldr	r3, [r4, #4]
2000322e:	468a      	mov	sl, r1
20003230:	4691      	mov	r9, r2
20003232:	b5c0      	push	{r6, r7, lr}
20003234:	2bff      	cmp	r3, #255	@ 0xff
20003236:	d802      	bhi.n	2000323e <clock_configure_undivided+0x26>
20003238:	2380      	movs	r3, #128	@ 0x80
2000323a:	005b      	lsls	r3, r3, #1
2000323c:	6063      	str	r3, [r4, #4]
2000323e:	1f06      	subs	r6, r0, #4
20003240:	b2f6      	uxtb	r6, r6
20003242:	2e01      	cmp	r6, #1
20003244:	d92f      	bls.n	200032a6 <clock_configure_undivided+0x8e>
20003246:	23c0      	movs	r3, #192	@ 0xc0
20003248:	2280      	movs	r2, #128	@ 0x80
2000324a:	4f2a      	ldr	r7, [pc, #168]	@ (200032f4 <clock_configure_undivided+0xdc>)
2000324c:	0085      	lsls	r5, r0, #2
2000324e:	019b      	lsls	r3, r3, #6
20003250:	5979      	ldr	r1, [r7, r5]
20003252:	0112      	lsls	r2, r2, #4
20003254:	18e3      	adds	r3, r4, r3
20003256:	601a      	str	r2, [r3, #0]
20003258:	2900      	cmp	r1, #0
2000325a:	d11b      	bne.n	20003294 <clock_configure_undivided+0x7c>
2000325c:	464b      	mov	r3, r9
2000325e:	6822      	ldr	r2, [r4, #0]
20003260:	015b      	lsls	r3, r3, #5
20003262:	4053      	eors	r3, r2
20003264:	22e0      	movs	r2, #224	@ 0xe0
20003266:	4013      	ands	r3, r2
20003268:	2280      	movs	r2, #128	@ 0x80
2000326a:	0152      	lsls	r2, r2, #5
2000326c:	18a2      	adds	r2, r4, r2
2000326e:	6013      	str	r3, [r2, #0]
20003270:	2e01      	cmp	r6, #1
20003272:	d930      	bls.n	200032d6 <clock_configure_undivided+0xbe>
20003274:	2380      	movs	r3, #128	@ 0x80
20003276:	2280      	movs	r2, #128	@ 0x80
20003278:	019b      	lsls	r3, r3, #6
2000327a:	18e3      	adds	r3, r4, r3
2000327c:	0112      	lsls	r2, r2, #4
2000327e:	601a      	str	r2, [r3, #0]
20003280:	2380      	movs	r3, #128	@ 0x80
20003282:	005b      	lsls	r3, r3, #1
20003284:	6063      	str	r3, [r4, #4]
20003286:	4643      	mov	r3, r8
20003288:	517b      	str	r3, [r7, r5]
2000328a:	bce0      	pop	{r5, r6, r7}
2000328c:	46ba      	mov	sl, r7
2000328e:	46b1      	mov	r9, r6
20003290:	46a8      	mov	r8, r5
20003292:	bdf0      	pop	{r4, r5, r6, r7, pc}
20003294:	6978      	ldr	r0, [r7, #20]
20003296:	f000 fc63 	bl	20003b60 <__wrap___aeabi_uidiv>
2000329a:	3001      	adds	r0, #1
2000329c:	0043      	lsls	r3, r0, #1
2000329e:	181b      	adds	r3, r3, r0
200032a0:	3b03      	subs	r3, #3
200032a2:	d2fd      	bcs.n	200032a0 <clock_configure_undivided+0x88>
200032a4:	e7da      	b.n	2000325c <clock_configure_undivided+0x44>
200032a6:	4653      	mov	r3, sl
200032a8:	2b01      	cmp	r3, #1
200032aa:	d1cc      	bne.n	20003246 <clock_configure_undivided+0x2e>
200032ac:	23c0      	movs	r3, #192	@ 0xc0
200032ae:	2203      	movs	r2, #3
200032b0:	019b      	lsls	r3, r3, #6
200032b2:	18e3      	adds	r3, r4, r3
200032b4:	601a      	str	r2, [r3, #0]
200032b6:	3a02      	subs	r2, #2
200032b8:	68a3      	ldr	r3, [r4, #8]
200032ba:	421a      	tst	r2, r3
200032bc:	d0fc      	beq.n	200032b8 <clock_configure_undivided+0xa0>
200032be:	464a      	mov	r2, r9
200032c0:	6823      	ldr	r3, [r4, #0]
200032c2:	0152      	lsls	r2, r2, #5
200032c4:	405a      	eors	r2, r3
200032c6:	23e0      	movs	r3, #224	@ 0xe0
200032c8:	4013      	ands	r3, r2
200032ca:	2280      	movs	r2, #128	@ 0x80
200032cc:	0152      	lsls	r2, r2, #5
200032ce:	18a2      	adds	r2, r4, r2
200032d0:	4f08      	ldr	r7, [pc, #32]	@ (200032f4 <clock_configure_undivided+0xdc>)
200032d2:	6013      	str	r3, [r2, #0]
200032d4:	0085      	lsls	r5, r0, #2
200032d6:	4650      	mov	r0, sl
200032d8:	2303      	movs	r3, #3
200032da:	6821      	ldr	r1, [r4, #0]
200032dc:	4041      	eors	r1, r0
200032de:	400b      	ands	r3, r1
200032e0:	6013      	str	r3, [r2, #0]
200032e2:	2201      	movs	r2, #1
200032e4:	4082      	lsls	r2, r0
200032e6:	68a3      	ldr	r3, [r4, #8]
200032e8:	421a      	tst	r2, r3
200032ea:	d0fc      	beq.n	200032e6 <clock_configure_undivided+0xce>
200032ec:	e7c2      	b.n	20003274 <clock_configure_undivided+0x5c>
200032ee:	46c0      	nop			@ (mov r8, r8)
200032f0:	40008000 	.word	0x40008000
200032f4:	200089d8 	.word	0x200089d8

200032f8 <clock_get_hz>:
200032f8:	4b01      	ldr	r3, [pc, #4]	@ (20003300 <clock_get_hz+0x8>)
200032fa:	0080      	lsls	r0, r0, #2
200032fc:	58c0      	ldr	r0, [r0, r3]
200032fe:	4770      	bx	lr
20003300:	200089d8 	.word	0x200089d8

20003304 <set_sys_clock_pll>:
20003304:	b5f0      	push	{r4, r5, r6, r7, lr}
20003306:	46c6      	mov	lr, r8
20003308:	b500      	push	{lr}
2000330a:	4b5b      	ldr	r3, [pc, #364]	@ (20003478 <set_sys_clock_pll+0x174>)
2000330c:	0015      	movs	r5, r2
2000330e:	685a      	ldr	r2, [r3, #4]
20003310:	4684      	mov	ip, r0
20003312:	000f      	movs	r7, r1
20003314:	b082      	sub	sp, #8
20003316:	2aff      	cmp	r2, #255	@ 0xff
20003318:	d802      	bhi.n	20003320 <set_sys_clock_pll+0x1c>
2000331a:	2280      	movs	r2, #128	@ 0x80
2000331c:	0052      	lsls	r2, r2, #1
2000331e:	605a      	str	r2, [r3, #4]
20003320:	2203      	movs	r2, #3
20003322:	4b56      	ldr	r3, [pc, #344]	@ (2000347c <set_sys_clock_pll+0x178>)
20003324:	4854      	ldr	r0, [pc, #336]	@ (20003478 <set_sys_clock_pll+0x174>)
20003326:	601a      	str	r2, [r3, #0]
20003328:	2301      	movs	r3, #1
2000332a:	6882      	ldr	r2, [r0, #8]
2000332c:	4213      	tst	r3, r2
2000332e:	d0fc      	beq.n	2000332a <set_sys_clock_pll+0x26>
20003330:	2220      	movs	r2, #32
20003332:	6801      	ldr	r1, [r0, #0]
20003334:	4051      	eors	r1, r2
20003336:	32c0      	adds	r2, #192	@ 0xc0
20003338:	400a      	ands	r2, r1
2000333a:	4951      	ldr	r1, [pc, #324]	@ (20003480 <set_sys_clock_pll+0x17c>)
2000333c:	600a      	str	r2, [r1, #0]
2000333e:	6802      	ldr	r2, [r0, #0]
20003340:	484d      	ldr	r0, [pc, #308]	@ (20003478 <set_sys_clock_pll+0x174>)
20003342:	405a      	eors	r2, r3
20003344:	2303      	movs	r3, #3
20003346:	4013      	ands	r3, r2
20003348:	600b      	str	r3, [r1, #0]
2000334a:	2302      	movs	r3, #2
2000334c:	6882      	ldr	r2, [r0, #8]
2000334e:	4213      	tst	r3, r2
20003350:	d0fc      	beq.n	2000334c <set_sys_clock_pll+0x48>
20003352:	2280      	movs	r2, #128	@ 0x80
20003354:	2680      	movs	r6, #128	@ 0x80
20003356:	4b4b      	ldr	r3, [pc, #300]	@ (20003484 <set_sys_clock_pll+0x180>)
20003358:	0112      	lsls	r2, r2, #4
2000335a:	601a      	str	r2, [r3, #0]
2000335c:	4c4a      	ldr	r4, [pc, #296]	@ (20003488 <set_sys_clock_pll+0x184>)
2000335e:	4b4b      	ldr	r3, [pc, #300]	@ (2000348c <set_sys_clock_pll+0x188>)
20003360:	0076      	lsls	r6, r6, #1
20003362:	6046      	str	r6, [r0, #4]
20003364:	4662      	mov	r2, ip
20003366:	6163      	str	r3, [r4, #20]
20003368:	2101      	movs	r1, #1
2000336a:	003b      	movs	r3, r7
2000336c:	4848      	ldr	r0, [pc, #288]	@ (20003490 <set_sys_clock_pll+0x18c>)
2000336e:	9500      	str	r5, [sp, #0]
20003370:	46e0      	mov	r8, ip
20003372:	f000 f9e5 	bl	20003740 <pll_init>
20003376:	0029      	movs	r1, r5
20003378:	4640      	mov	r0, r8
2000337a:	4379      	muls	r1, r7
2000337c:	f000 fbf0 	bl	20003b60 <__wrap___aeabi_uidiv>
20003380:	4b44      	ldr	r3, [pc, #272]	@ (20003494 <set_sys_clock_pll+0x190>)
20003382:	0005      	movs	r5, r0
20003384:	685a      	ldr	r2, [r3, #4]
20003386:	2aff      	cmp	r2, #255	@ 0xff
20003388:	d800      	bhi.n	2000338c <set_sys_clock_pll+0x88>
2000338a:	605e      	str	r6, [r3, #4]
2000338c:	2280      	movs	r2, #128	@ 0x80
2000338e:	4b42      	ldr	r3, [pc, #264]	@ (20003498 <set_sys_clock_pll+0x194>)
20003390:	0112      	lsls	r2, r2, #4
20003392:	601a      	str	r2, [r3, #0]
20003394:	6921      	ldr	r1, [r4, #16]
20003396:	2900      	cmp	r1, #0
20003398:	d007      	beq.n	200033aa <set_sys_clock_pll+0xa6>
2000339a:	6960      	ldr	r0, [r4, #20]
2000339c:	f000 fbe0 	bl	20003b60 <__wrap___aeabi_uidiv>
200033a0:	3001      	adds	r0, #1
200033a2:	0043      	lsls	r3, r0, #1
200033a4:	181b      	adds	r3, r3, r0
200033a6:	3b03      	subs	r3, #3
200033a8:	d2fd      	bcs.n	200033a6 <set_sys_clock_pll+0xa2>
200033aa:	23e0      	movs	r3, #224	@ 0xe0
200033ac:	4a39      	ldr	r2, [pc, #228]	@ (20003494 <set_sys_clock_pll+0x190>)
200033ae:	483b      	ldr	r0, [pc, #236]	@ (2000349c <set_sys_clock_pll+0x198>)
200033b0:	6811      	ldr	r1, [r2, #0]
200033b2:	400b      	ands	r3, r1
200033b4:	6003      	str	r3, [r0, #0]
200033b6:	2302      	movs	r3, #2
200033b8:	6811      	ldr	r1, [r2, #0]
200033ba:	4059      	eors	r1, r3
200033bc:	3301      	adds	r3, #1
200033be:	400b      	ands	r3, r1
200033c0:	2104      	movs	r1, #4
200033c2:	6003      	str	r3, [r0, #0]
200033c4:	6893      	ldr	r3, [r2, #8]
200033c6:	4219      	tst	r1, r3
200033c8:	d0fc      	beq.n	200033c4 <set_sys_clock_pll+0xc0>
200033ca:	2180      	movs	r1, #128	@ 0x80
200033cc:	4b34      	ldr	r3, [pc, #208]	@ (200034a0 <set_sys_clock_pll+0x19c>)
200033ce:	0109      	lsls	r1, r1, #4
200033d0:	6019      	str	r1, [r3, #0]
200033d2:	2180      	movs	r1, #128	@ 0x80
200033d4:	4b33      	ldr	r3, [pc, #204]	@ (200034a4 <set_sys_clock_pll+0x1a0>)
200033d6:	0049      	lsls	r1, r1, #1
200033d8:	6051      	str	r1, [r2, #4]
200033da:	6123      	str	r3, [r4, #16]
200033dc:	4b26      	ldr	r3, [pc, #152]	@ (20003478 <set_sys_clock_pll+0x174>)
200033de:	685a      	ldr	r2, [r3, #4]
200033e0:	2aff      	cmp	r2, #255	@ 0xff
200033e2:	d800      	bhi.n	200033e6 <set_sys_clock_pll+0xe2>
200033e4:	6059      	str	r1, [r3, #4]
200033e6:	2203      	movs	r2, #3
200033e8:	2101      	movs	r1, #1
200033ea:	4b24      	ldr	r3, [pc, #144]	@ (2000347c <set_sys_clock_pll+0x178>)
200033ec:	601a      	str	r2, [r3, #0]
200033ee:	4a22      	ldr	r2, [pc, #136]	@ (20003478 <set_sys_clock_pll+0x174>)
200033f0:	6893      	ldr	r3, [r2, #8]
200033f2:	4219      	tst	r1, r3
200033f4:	d0fc      	beq.n	200033f0 <set_sys_clock_pll+0xec>
200033f6:	23e0      	movs	r3, #224	@ 0xe0
200033f8:	6810      	ldr	r0, [r2, #0]
200033fa:	4003      	ands	r3, r0
200033fc:	4820      	ldr	r0, [pc, #128]	@ (20003480 <set_sys_clock_pll+0x17c>)
200033fe:	6003      	str	r3, [r0, #0]
20003400:	6812      	ldr	r2, [r2, #0]
20003402:	2303      	movs	r3, #3
20003404:	404a      	eors	r2, r1
20003406:	2102      	movs	r1, #2
20003408:	4013      	ands	r3, r2
2000340a:	4a1b      	ldr	r2, [pc, #108]	@ (20003478 <set_sys_clock_pll+0x174>)
2000340c:	6003      	str	r3, [r0, #0]
2000340e:	6893      	ldr	r3, [r2, #8]
20003410:	4219      	tst	r1, r3
20003412:	d0fc      	beq.n	2000340e <set_sys_clock_pll+0x10a>
20003414:	2180      	movs	r1, #128	@ 0x80
20003416:	4b1b      	ldr	r3, [pc, #108]	@ (20003484 <set_sys_clock_pll+0x180>)
20003418:	0109      	lsls	r1, r1, #4
2000341a:	6019      	str	r1, [r3, #0]
2000341c:	2180      	movs	r1, #128	@ 0x80
2000341e:	4b22      	ldr	r3, [pc, #136]	@ (200034a8 <set_sys_clock_pll+0x1a4>)
20003420:	0049      	lsls	r1, r1, #1
20003422:	6051      	str	r1, [r2, #4]
20003424:	6165      	str	r5, [r4, #20]
20003426:	685a      	ldr	r2, [r3, #4]
20003428:	2aff      	cmp	r2, #255	@ 0xff
2000342a:	d800      	bhi.n	2000342e <set_sys_clock_pll+0x12a>
2000342c:	6059      	str	r1, [r3, #4]
2000342e:	2280      	movs	r2, #128	@ 0x80
20003430:	4b1e      	ldr	r3, [pc, #120]	@ (200034ac <set_sys_clock_pll+0x1a8>)
20003432:	0112      	lsls	r2, r2, #4
20003434:	601a      	str	r2, [r3, #0]
20003436:	69a1      	ldr	r1, [r4, #24]
20003438:	2900      	cmp	r1, #0
2000343a:	d007      	beq.n	2000344c <set_sys_clock_pll+0x148>
2000343c:	6960      	ldr	r0, [r4, #20]
2000343e:	f000 fb8f 	bl	20003b60 <__wrap___aeabi_uidiv>
20003442:	3001      	adds	r0, #1
20003444:	0043      	lsls	r3, r0, #1
20003446:	181b      	adds	r3, r3, r0
20003448:	3b03      	subs	r3, #3
2000344a:	d2fd      	bcs.n	20003448 <set_sys_clock_pll+0x144>
2000344c:	2340      	movs	r3, #64	@ 0x40
2000344e:	4916      	ldr	r1, [pc, #88]	@ (200034a8 <set_sys_clock_pll+0x1a4>)
20003450:	680a      	ldr	r2, [r1, #0]
20003452:	405a      	eors	r2, r3
20003454:	33a0      	adds	r3, #160	@ 0xa0
20003456:	4013      	ands	r3, r2
20003458:	4a15      	ldr	r2, [pc, #84]	@ (200034b0 <set_sys_clock_pll+0x1ac>)
2000345a:	6013      	str	r3, [r2, #0]
2000345c:	2280      	movs	r2, #128	@ 0x80
2000345e:	4b15      	ldr	r3, [pc, #84]	@ (200034b4 <set_sys_clock_pll+0x1b0>)
20003460:	0112      	lsls	r2, r2, #4
20003462:	601a      	str	r2, [r3, #0]
20003464:	2380      	movs	r3, #128	@ 0x80
20003466:	005b      	lsls	r3, r3, #1
20003468:	604b      	str	r3, [r1, #4]
2000346a:	4b08      	ldr	r3, [pc, #32]	@ (2000348c <set_sys_clock_pll+0x188>)
2000346c:	61a3      	str	r3, [r4, #24]
2000346e:	b002      	add	sp, #8
20003470:	bc80      	pop	{r7}
20003472:	46b8      	mov	r8, r7
20003474:	bdf0      	pop	{r4, r5, r6, r7, pc}
20003476:	46c0      	nop			@ (mov r8, r8)
20003478:	4000803c 	.word	0x4000803c
2000347c:	4000b03c 	.word	0x4000b03c
20003480:	4000903c 	.word	0x4000903c
20003484:	4000a03c 	.word	0x4000a03c
20003488:	200089d8 	.word	0x200089d8
2000348c:	02dc6c00 	.word	0x02dc6c00
20003490:	40028000 	.word	0x40028000
20003494:	40008030 	.word	0x40008030
20003498:	4000b030 	.word	0x4000b030
2000349c:	40009030 	.word	0x40009030
200034a0:	4000a030 	.word	0x4000a030
200034a4:	00b71b00 	.word	0x00b71b00
200034a8:	40008048 	.word	0x40008048
200034ac:	4000b048 	.word	0x4000b048
200034b0:	40009048 	.word	0x40009048
200034b4:	4000a048 	.word	0x4000a048

200034b8 <check_sys_clock_khz>:
200034b8:	b5f0      	push	{r4, r5, r6, r7, lr}
200034ba:	4645      	mov	r5, r8
200034bc:	4680      	mov	r8, r0
200034be:	20a0      	movs	r0, #160	@ 0xa0
200034c0:	4657      	mov	r7, sl
200034c2:	464e      	mov	r6, r9
200034c4:	46de      	mov	lr, fp
200034c6:	001c      	movs	r4, r3
200034c8:	4b98      	ldr	r3, [pc, #608]	@ (2000372c <check_sys_clock_khz+0x274>)
200034ca:	0040      	lsls	r0, r0, #1
200034cc:	4681      	mov	r9, r0
200034ce:	469a      	mov	sl, r3
200034d0:	b5e0      	push	{r5, r6, r7, lr}
200034d2:	b085      	sub	sp, #20
200034d4:	9101      	str	r1, [sp, #4]
200034d6:	9202      	str	r2, [sp, #8]
200034d8:	9403      	str	r4, [sp, #12]
200034da:	4b95      	ldr	r3, [pc, #596]	@ (20003730 <check_sys_clock_khz+0x278>)
200034dc:	459a      	cmp	sl, r3
200034de:	d909      	bls.n	200034f4 <check_sys_clock_khz+0x3c>
200034e0:	2301      	movs	r3, #1
200034e2:	425b      	negs	r3, r3
200034e4:	4499      	add	r9, r3
200034e6:	4b93      	ldr	r3, [pc, #588]	@ (20003734 <check_sys_clock_khz+0x27c>)
200034e8:	449a      	add	sl, r3
200034ea:	464b      	mov	r3, r9
200034ec:	2b0f      	cmp	r3, #15
200034ee:	d1f4      	bne.n	200034da <check_sys_clock_khz+0x22>
200034f0:	2000      	movs	r0, #0
200034f2:	e08e      	b.n	20003612 <check_sys_clock_khz+0x15a>
200034f4:	2507      	movs	r5, #7
200034f6:	4c90      	ldr	r4, [pc, #576]	@ (20003738 <check_sys_clock_khz+0x280>)
200034f8:	4454      	add	r4, sl
200034fa:	002f      	movs	r7, r5
200034fc:	436f      	muls	r7, r5
200034fe:	0020      	movs	r0, r4
20003500:	0039      	movs	r1, r7
20003502:	f000 fb2d 	bl	20003b60 <__wrap___aeabi_uidiv>
20003506:	46ab      	mov	fp, r5
20003508:	1e6e      	subs	r6, r5, #1
2000350a:	4540      	cmp	r0, r8
2000350c:	d053      	beq.n	200035b6 <check_sys_clock_khz+0xfe>
2000350e:	4375      	muls	r5, r6
20003510:	0020      	movs	r0, r4
20003512:	0029      	movs	r1, r5
20003514:	002f      	movs	r7, r5
20003516:	f000 fb23 	bl	20003b60 <__wrap___aeabi_uidiv>
2000351a:	4580      	cmp	r8, r0
2000351c:	d05c      	beq.n	200035d8 <check_sys_clock_khz+0x120>
2000351e:	4643      	mov	r3, r8
20003520:	1e75      	subs	r5, r6, #1
20003522:	46a8      	mov	r8, r5
20003524:	001d      	movs	r5, r3
20003526:	465b      	mov	r3, fp
20003528:	1aff      	subs	r7, r7, r3
2000352a:	0039      	movs	r1, r7
2000352c:	0020      	movs	r0, r4
2000352e:	f000 fb17 	bl	20003b60 <__wrap___aeabi_uidiv>
20003532:	4285      	cmp	r5, r0
20003534:	d05d      	beq.n	200035f2 <check_sys_clock_khz+0x13a>
20003536:	1eb3      	subs	r3, r6, #2
20003538:	4698      	mov	r8, r3
2000353a:	2e02      	cmp	r6, #2
2000353c:	d100      	bne.n	20003540 <check_sys_clock_khz+0x88>
2000353e:	e0ba      	b.n	200036b6 <check_sys_clock_khz+0x1fe>
20003540:	465b      	mov	r3, fp
20003542:	1aff      	subs	r7, r7, r3
20003544:	0039      	movs	r1, r7
20003546:	0020      	movs	r0, r4
20003548:	f000 fb0a 	bl	20003b60 <__wrap___aeabi_uidiv>
2000354c:	4285      	cmp	r5, r0
2000354e:	d067      	beq.n	20003620 <check_sys_clock_khz+0x168>
20003550:	1ef3      	subs	r3, r6, #3
20003552:	4698      	mov	r8, r3
20003554:	2e03      	cmp	r6, #3
20003556:	d069      	beq.n	2000362c <check_sys_clock_khz+0x174>
20003558:	465b      	mov	r3, fp
2000355a:	1aff      	subs	r7, r7, r3
2000355c:	0039      	movs	r1, r7
2000355e:	0020      	movs	r0, r4
20003560:	f000 fafe 	bl	20003b60 <__wrap___aeabi_uidiv>
20003564:	4285      	cmp	r5, r0
20003566:	d100      	bne.n	2000356a <check_sys_clock_khz+0xb2>
20003568:	e076      	b.n	20003658 <check_sys_clock_khz+0x1a0>
2000356a:	1f33      	subs	r3, r6, #4
2000356c:	4698      	mov	r8, r3
2000356e:	2e04      	cmp	r6, #4
20003570:	d100      	bne.n	20003574 <check_sys_clock_khz+0xbc>
20003572:	e078      	b.n	20003666 <check_sys_clock_khz+0x1ae>
20003574:	465b      	mov	r3, fp
20003576:	1aff      	subs	r7, r7, r3
20003578:	0039      	movs	r1, r7
2000357a:	0020      	movs	r0, r4
2000357c:	f000 faf0 	bl	20003b60 <__wrap___aeabi_uidiv>
20003580:	4285      	cmp	r5, r0
20003582:	d100      	bne.n	20003586 <check_sys_clock_khz+0xce>
20003584:	e07e      	b.n	20003684 <check_sys_clock_khz+0x1cc>
20003586:	2e05      	cmp	r6, #5
20003588:	d100      	bne.n	2000358c <check_sys_clock_khz+0xd4>
2000358a:	e080      	b.n	2000368e <check_sys_clock_khz+0x1d6>
2000358c:	465b      	mov	r3, fp
2000358e:	0020      	movs	r0, r4
20003590:	1af9      	subs	r1, r7, r3
20003592:	46a8      	mov	r8, r5
20003594:	f000 fae4 	bl	20003b60 <__wrap___aeabi_uidiv>
20003598:	2506      	movs	r5, #6
2000359a:	4580      	cmp	r8, r0
2000359c:	d1ad      	bne.n	200034fa <check_sys_clock_khz+0x42>
2000359e:	2900      	cmp	r1, #0
200035a0:	d1ab      	bne.n	200034fa <check_sys_clock_khz+0x42>
200035a2:	46ca      	mov	sl, r9
200035a4:	9901      	ldr	r1, [sp, #4]
200035a6:	46d9      	mov	r9, fp
200035a8:	9a02      	ldr	r2, [sp, #8]
200035aa:	9c03      	ldr	r4, [sp, #12]
200035ac:	3d05      	subs	r5, #5
200035ae:	e028      	b.n	20003602 <check_sys_clock_khz+0x14a>
200035b0:	002b      	movs	r3, r5
200035b2:	4645      	mov	r5, r8
200035b4:	4698      	mov	r8, r3
200035b6:	0039      	movs	r1, r7
200035b8:	0020      	movs	r0, r4
200035ba:	f000 fad1 	bl	20003b60 <__wrap___aeabi_uidiv>
200035be:	2900      	cmp	r1, #0
200035c0:	d100      	bne.n	200035c4 <check_sys_clock_khz+0x10c>
200035c2:	e0a4      	b.n	2000370e <check_sys_clock_khz+0x256>
200035c4:	1e6e      	subs	r6, r5, #1
200035c6:	46ab      	mov	fp, r5
200035c8:	4375      	muls	r5, r6
200035ca:	0020      	movs	r0, r4
200035cc:	0029      	movs	r1, r5
200035ce:	002f      	movs	r7, r5
200035d0:	f000 fac6 	bl	20003b60 <__wrap___aeabi_uidiv>
200035d4:	4580      	cmp	r8, r0
200035d6:	d1a2      	bne.n	2000351e <check_sys_clock_khz+0x66>
200035d8:	0039      	movs	r1, r7
200035da:	0020      	movs	r0, r4
200035dc:	f000 fac0 	bl	20003b60 <__wrap___aeabi_uidiv>
200035e0:	2900      	cmp	r1, #0
200035e2:	d19c      	bne.n	2000351e <check_sys_clock_khz+0x66>
200035e4:	46ca      	mov	sl, r9
200035e6:	0035      	movs	r5, r6
200035e8:	46d9      	mov	r9, fp
200035ea:	9901      	ldr	r1, [sp, #4]
200035ec:	9a02      	ldr	r2, [sp, #8]
200035ee:	9c03      	ldr	r4, [sp, #12]
200035f0:	e007      	b.n	20003602 <check_sys_clock_khz+0x14a>
200035f2:	2900      	cmp	r1, #0
200035f4:	d19f      	bne.n	20003536 <check_sys_clock_khz+0x7e>
200035f6:	46ca      	mov	sl, r9
200035f8:	4645      	mov	r5, r8
200035fa:	46d9      	mov	r9, fp
200035fc:	9901      	ldr	r1, [sp, #4]
200035fe:	9a02      	ldr	r2, [sp, #8]
20003600:	9c03      	ldr	r4, [sp, #12]
20003602:	4650      	mov	r0, sl
20003604:	4b4d      	ldr	r3, [pc, #308]	@ (2000373c <check_sys_clock_khz+0x284>)
20003606:	4343      	muls	r3, r0
20003608:	600b      	str	r3, [r1, #0]
2000360a:	464b      	mov	r3, r9
2000360c:	2001      	movs	r0, #1
2000360e:	6013      	str	r3, [r2, #0]
20003610:	6025      	str	r5, [r4, #0]
20003612:	b005      	add	sp, #20
20003614:	bcf0      	pop	{r4, r5, r6, r7}
20003616:	46bb      	mov	fp, r7
20003618:	46b2      	mov	sl, r6
2000361a:	46a9      	mov	r9, r5
2000361c:	46a0      	mov	r8, r4
2000361e:	bdf0      	pop	{r4, r5, r6, r7, pc}
20003620:	2900      	cmp	r1, #0
20003622:	d0e8      	beq.n	200035f6 <check_sys_clock_khz+0x13e>
20003624:	1ef3      	subs	r3, r6, #3
20003626:	4698      	mov	r8, r3
20003628:	2e03      	cmp	r6, #3
2000362a:	d195      	bne.n	20003558 <check_sys_clock_khz+0xa0>
2000362c:	2303      	movs	r3, #3
2000362e:	2109      	movs	r1, #9
20003630:	0020      	movs	r0, r4
20003632:	2709      	movs	r7, #9
20003634:	4698      	mov	r8, r3
20003636:	f000 fa93 	bl	20003b60 <__wrap___aeabi_uidiv>
2000363a:	42a8      	cmp	r0, r5
2000363c:	d0b8      	beq.n	200035b0 <check_sys_clock_khz+0xf8>
2000363e:	2303      	movs	r3, #3
20003640:	2106      	movs	r1, #6
20003642:	0020      	movs	r0, r4
20003644:	469b      	mov	fp, r3
20003646:	2602      	movs	r6, #2
20003648:	3f03      	subs	r7, #3
2000364a:	f000 fa89 	bl	20003b60 <__wrap___aeabi_uidiv>
2000364e:	4285      	cmp	r5, r0
20003650:	d048      	beq.n	200036e4 <check_sys_clock_khz+0x22c>
20003652:	2301      	movs	r3, #1
20003654:	4698      	mov	r8, r3
20003656:	e766      	b.n	20003526 <check_sys_clock_khz+0x6e>
20003658:	2900      	cmp	r1, #0
2000365a:	d0cc      	beq.n	200035f6 <check_sys_clock_khz+0x13e>
2000365c:	1f33      	subs	r3, r6, #4
2000365e:	4698      	mov	r8, r3
20003660:	2e04      	cmp	r6, #4
20003662:	d000      	beq.n	20003666 <check_sys_clock_khz+0x1ae>
20003664:	e786      	b.n	20003574 <check_sys_clock_khz+0xbc>
20003666:	0923      	lsrs	r3, r4, #4
20003668:	429d      	cmp	r5, r3
2000366a:	d056      	beq.n	2000371a <check_sys_clock_khz+0x262>
2000366c:	270c      	movs	r7, #12
2000366e:	0020      	movs	r0, r4
20003670:	0039      	movs	r1, r7
20003672:	46b3      	mov	fp, r6
20003674:	3e01      	subs	r6, #1
20003676:	f000 fa73 	bl	20003b60 <__wrap___aeabi_uidiv>
2000367a:	4285      	cmp	r5, r0
2000367c:	d032      	beq.n	200036e4 <check_sys_clock_khz+0x22c>
2000367e:	2302      	movs	r3, #2
20003680:	4698      	mov	r8, r3
20003682:	e750      	b.n	20003526 <check_sys_clock_khz+0x6e>
20003684:	2900      	cmp	r1, #0
20003686:	d0b6      	beq.n	200035f6 <check_sys_clock_khz+0x13e>
20003688:	2e05      	cmp	r6, #5
2000368a:	d000      	beq.n	2000368e <check_sys_clock_khz+0x1d6>
2000368c:	e77e      	b.n	2000358c <check_sys_clock_khz+0xd4>
2000368e:	2119      	movs	r1, #25
20003690:	0020      	movs	r0, r4
20003692:	2719      	movs	r7, #25
20003694:	f000 fa64 	bl	20003b60 <__wrap___aeabi_uidiv>
20003698:	4285      	cmp	r5, r0
2000369a:	d02d      	beq.n	200036f8 <check_sys_clock_khz+0x240>
2000369c:	2114      	movs	r1, #20
2000369e:	0020      	movs	r0, r4
200036a0:	3f05      	subs	r7, #5
200036a2:	f000 fa5d 	bl	20003b60 <__wrap___aeabi_uidiv>
200036a6:	4285      	cmp	r5, r0
200036a8:	d017      	beq.n	200036da <check_sys_clock_khz+0x222>
200036aa:	2305      	movs	r3, #5
200036ac:	469b      	mov	fp, r3
200036ae:	3b02      	subs	r3, #2
200036b0:	2604      	movs	r6, #4
200036b2:	4698      	mov	r8, r3
200036b4:	e737      	b.n	20003526 <check_sys_clock_khz+0x6e>
200036b6:	46a8      	mov	r8, r5
200036b8:	08a1      	lsrs	r1, r4, #2
200036ba:	428d      	cmp	r5, r1
200036bc:	d014      	beq.n	200036e8 <check_sys_clock_khz+0x230>
200036be:	0861      	lsrs	r1, r4, #1
200036c0:	428d      	cmp	r5, r1
200036c2:	d01c      	beq.n	200036fe <check_sys_clock_khz+0x246>
200036c4:	4544      	cmp	r4, r8
200036c6:	d000      	beq.n	200036ca <check_sys_clock_khz+0x212>
200036c8:	e70a      	b.n	200034e0 <check_sys_clock_khz+0x28>
200036ca:	2301      	movs	r3, #1
200036cc:	46ca      	mov	sl, r9
200036ce:	2501      	movs	r5, #1
200036d0:	4699      	mov	r9, r3
200036d2:	9901      	ldr	r1, [sp, #4]
200036d4:	9a02      	ldr	r2, [sp, #8]
200036d6:	9c03      	ldr	r4, [sp, #12]
200036d8:	e793      	b.n	20003602 <check_sys_clock_khz+0x14a>
200036da:	2305      	movs	r3, #5
200036dc:	46a8      	mov	r8, r5
200036de:	469b      	mov	fp, r3
200036e0:	2604      	movs	r6, #4
200036e2:	e779      	b.n	200035d8 <check_sys_clock_khz+0x120>
200036e4:	46a8      	mov	r8, r5
200036e6:	e777      	b.n	200035d8 <check_sys_clock_khz+0x120>
200036e8:	2302      	movs	r3, #2
200036ea:	46ca      	mov	sl, r9
200036ec:	2502      	movs	r5, #2
200036ee:	4699      	mov	r9, r3
200036f0:	9901      	ldr	r1, [sp, #4]
200036f2:	9a02      	ldr	r2, [sp, #8]
200036f4:	9c03      	ldr	r4, [sp, #12]
200036f6:	e784      	b.n	20003602 <check_sys_clock_khz+0x14a>
200036f8:	46a8      	mov	r8, r5
200036fa:	2505      	movs	r5, #5
200036fc:	e75b      	b.n	200035b6 <check_sys_clock_khz+0xfe>
200036fe:	2302      	movs	r3, #2
20003700:	46ca      	mov	sl, r9
20003702:	2501      	movs	r5, #1
20003704:	4699      	mov	r9, r3
20003706:	9901      	ldr	r1, [sp, #4]
20003708:	9a02      	ldr	r2, [sp, #8]
2000370a:	9c03      	ldr	r4, [sp, #12]
2000370c:	e779      	b.n	20003602 <check_sys_clock_khz+0x14a>
2000370e:	46ca      	mov	sl, r9
20003710:	9901      	ldr	r1, [sp, #4]
20003712:	46a9      	mov	r9, r5
20003714:	9a02      	ldr	r2, [sp, #8]
20003716:	9c03      	ldr	r4, [sp, #12]
20003718:	e773      	b.n	20003602 <check_sys_clock_khz+0x14a>
2000371a:	2304      	movs	r3, #4
2000371c:	46ca      	mov	sl, r9
2000371e:	001d      	movs	r5, r3
20003720:	4699      	mov	r9, r3
20003722:	9901      	ldr	r1, [sp, #4]
20003724:	9a02      	ldr	r2, [sp, #8]
20003726:	9c03      	ldr	r4, [sp, #12]
20003728:	e76b      	b.n	20003602 <check_sys_clock_khz+0x14a>
2000372a:	46c0      	nop			@ (mov r8, r8)
2000372c:	002f2650 	.word	0x002f2650
20003730:	000cf850 	.word	0x000cf850
20003734:	ffffd120 	.word	0xffffd120
20003738:	000b71b0 	.word	0x000b71b0
2000373c:	00b71b00 	.word	0x00b71b00

20003740 <pll_init>:
20003740:	b5f0      	push	{r4, r5, r6, r7, lr}
20003742:	46c6      	mov	lr, r8
20003744:	0004      	movs	r4, r0
20003746:	b500      	push	{lr}
20003748:	4823      	ldr	r0, [pc, #140]	@ (200037d8 <pll_init+0x98>)
2000374a:	0016      	movs	r6, r2
2000374c:	4698      	mov	r8, r3
2000374e:	000d      	movs	r5, r1
20003750:	f000 fa06 	bl	20003b60 <__wrap___aeabi_uidiv>
20003754:	0001      	movs	r1, r0
20003756:	0030      	movs	r0, r6
20003758:	f000 fa02 	bl	20003b60 <__wrap___aeabi_uidiv>
2000375c:	4643      	mov	r3, r8
2000375e:	9a06      	ldr	r2, [sp, #24]
20003760:	041b      	lsls	r3, r3, #16
20003762:	0312      	lsls	r2, r2, #12
20003764:	4313      	orrs	r3, r2
20003766:	469c      	mov	ip, r3
20003768:	6823      	ldr	r3, [r4, #0]
2000376a:	0006      	movs	r6, r0
2000376c:	2b00      	cmp	r3, #0
2000376e:	db22      	blt.n	200037b6 <pll_init+0x76>
20003770:	4b1a      	ldr	r3, [pc, #104]	@ (200037dc <pll_init+0x9c>)
20003772:	481b      	ldr	r0, [pc, #108]	@ (200037e0 <pll_init+0xa0>)
20003774:	18e2      	adds	r2, r4, r3
20003776:	1e53      	subs	r3, r2, #1
20003778:	419a      	sbcs	r2, r3
2000377a:	2380      	movs	r3, #128	@ 0x80
2000377c:	4252      	negs	r2, r2
2000377e:	0b12      	lsrs	r2, r2, #12
20003780:	019b      	lsls	r3, r3, #6
20003782:	0312      	lsls	r2, r2, #12
20003784:	18d2      	adds	r2, r2, r3
20003786:	4b17      	ldr	r3, [pc, #92]	@ (200037e4 <pll_init+0xa4>)
20003788:	601a      	str	r2, [r3, #0]
2000378a:	4b17      	ldr	r3, [pc, #92]	@ (200037e8 <pll_init+0xa8>)
2000378c:	601a      	str	r2, [r3, #0]
2000378e:	0013      	movs	r3, r2
20003790:	6801      	ldr	r1, [r0, #0]
20003792:	438b      	bics	r3, r1
20003794:	d1fb      	bne.n	2000378e <pll_init+0x4e>
20003796:	2221      	movs	r2, #33	@ 0x21
20003798:	4b14      	ldr	r3, [pc, #80]	@ (200037ec <pll_init+0xac>)
2000379a:	6025      	str	r5, [r4, #0]
2000379c:	18e3      	adds	r3, r4, r3
2000379e:	60a6      	str	r6, [r4, #8]
200037a0:	601a      	str	r2, [r3, #0]
200037a2:	6822      	ldr	r2, [r4, #0]
200037a4:	2a00      	cmp	r2, #0
200037a6:	dafc      	bge.n	200037a2 <pll_init+0x62>
200037a8:	4662      	mov	r2, ip
200037aa:	60e2      	str	r2, [r4, #12]
200037ac:	2208      	movs	r2, #8
200037ae:	601a      	str	r2, [r3, #0]
200037b0:	bc80      	pop	{r7}
200037b2:	46b8      	mov	r8, r7
200037b4:	bdf0      	pop	{r4, r5, r6, r7, pc}
200037b6:	233f      	movs	r3, #63	@ 0x3f
200037b8:	6822      	ldr	r2, [r4, #0]
200037ba:	4013      	ands	r3, r2
200037bc:	42ab      	cmp	r3, r5
200037be:	d1d7      	bne.n	20003770 <pll_init+0x30>
200037c0:	68a3      	ldr	r3, [r4, #8]
200037c2:	051b      	lsls	r3, r3, #20
200037c4:	0d1b      	lsrs	r3, r3, #20
200037c6:	4283      	cmp	r3, r0
200037c8:	d1d2      	bne.n	20003770 <pll_init+0x30>
200037ca:	22ee      	movs	r2, #238	@ 0xee
200037cc:	68e3      	ldr	r3, [r4, #12]
200037ce:	02d2      	lsls	r2, r2, #11
200037d0:	4013      	ands	r3, r2
200037d2:	4563      	cmp	r3, ip
200037d4:	d1cc      	bne.n	20003770 <pll_init+0x30>
200037d6:	e7eb      	b.n	200037b0 <pll_init+0x70>
200037d8:	00b71b00 	.word	0x00b71b00
200037dc:	bffd4000 	.word	0xbffd4000
200037e0:	4000c008 	.word	0x4000c008
200037e4:	4000e000 	.word	0x4000e000
200037e8:	4000f000 	.word	0x4000f000
200037ec:	00003004 	.word	0x00003004

200037f0 <tick_start>:
200037f0:	2380      	movs	r3, #128	@ 0x80
200037f2:	4a02      	ldr	r2, [pc, #8]	@ (200037fc <tick_start+0xc>)
200037f4:	009b      	lsls	r3, r3, #2
200037f6:	430b      	orrs	r3, r1
200037f8:	62d3      	str	r3, [r2, #44]	@ 0x2c
200037fa:	4770      	bx	lr
200037fc:	40058000 	.word	0x40058000

20003800 <rom_func_lookup>:
20003800:	2300      	movs	r3, #0
20003802:	b510      	push	{r4, lr}
20003804:	0001      	movs	r1, r0
20003806:	8a98      	ldrh	r0, [r3, #20]
20003808:	8b1b      	ldrh	r3, [r3, #24]
2000380a:	4798      	blx	r3
2000380c:	bd10      	pop	{r4, pc}
2000380e:	46c0      	nop			@ (mov r8, r8)

20003810 <rom_data_lookup>:
20003810:	2316      	movs	r3, #22
20003812:	b510      	push	{r4, lr}
20003814:	0001      	movs	r1, r0
20003816:	8818      	ldrh	r0, [r3, #0]
20003818:	885b      	ldrh	r3, [r3, #2]
2000381a:	4798      	blx	r3
2000381c:	bd10      	pop	{r4, pc}
2000381e:	46c0      	nop			@ (mov r8, r8)

20003820 <rom_funcs_lookup>:
20003820:	b5f8      	push	{r3, r4, r5, r6, r7, lr}
20003822:	4647      	mov	r7, r8
20003824:	46ce      	mov	lr, r9
20003826:	b580      	push	{r7, lr}
20003828:	1e0f      	subs	r7, r1, #0
2000382a:	d018      	beq.n	2000385e <rom_funcs_lookup+0x3e>
2000382c:	2314      	movs	r3, #20
2000382e:	4699      	mov	r9, r3
20003830:	3304      	adds	r3, #4
20003832:	0004      	movs	r4, r0
20003834:	2500      	movs	r5, #0
20003836:	2601      	movs	r6, #1
20003838:	4698      	mov	r8, r3
2000383a:	464b      	mov	r3, r9
2000383c:	8818      	ldrh	r0, [r3, #0]
2000383e:	4643      	mov	r3, r8
20003840:	6821      	ldr	r1, [r4, #0]
20003842:	881b      	ldrh	r3, [r3, #0]
20003844:	4798      	blx	r3
20003846:	c401      	stmia	r4!, {r0}
20003848:	1e43      	subs	r3, r0, #1
2000384a:	4198      	sbcs	r0, r3
2000384c:	3501      	adds	r5, #1
2000384e:	4006      	ands	r6, r0
20003850:	42af      	cmp	r7, r5
20003852:	d1f2      	bne.n	2000383a <rom_funcs_lookup+0x1a>
20003854:	0030      	movs	r0, r6
20003856:	bcc0      	pop	{r6, r7}
20003858:	46b9      	mov	r9, r7
2000385a:	46b0      	mov	r8, r6
2000385c:	bdf8      	pop	{r3, r4, r5, r6, r7, pc}
2000385e:	2601      	movs	r6, #1
20003860:	e7f8      	b.n	20003854 <rom_funcs_lookup+0x34>
20003862:	46c0      	nop			@ (mov r8, r8)

20003864 <xosc_init>:
20003864:	23aa      	movs	r3, #170	@ 0xaa
20003866:	4a06      	ldr	r2, [pc, #24]	@ (20003880 <xosc_init+0x1c>)
20003868:	011b      	lsls	r3, r3, #4
2000386a:	6013      	str	r3, [r2, #0]
2000386c:	3321      	adds	r3, #33	@ 0x21
2000386e:	33ff      	adds	r3, #255	@ 0xff
20003870:	60d3      	str	r3, [r2, #12]
20003872:	4904      	ldr	r1, [pc, #16]	@ (20003884 <xosc_init+0x20>)
20003874:	4b04      	ldr	r3, [pc, #16]	@ (20003888 <xosc_init+0x24>)
20003876:	6019      	str	r1, [r3, #0]
20003878:	6853      	ldr	r3, [r2, #4]
2000387a:	2b00      	cmp	r3, #0
2000387c:	dafc      	bge.n	20003878 <xosc_init+0x14>
2000387e:	4770      	bx	lr
20003880:	40024000 	.word	0x40024000
20003884:	00fab000 	.word	0x00fab000
20003888:	40026000 	.word	0x40026000

2000388c <first_per_core_initializer>:
2000388c:	4770      	bx	lr
2000388e:	46c0      	nop			@ (mov r8, r8)

20003890 <hard_assertion_failure>:
20003890:	b510      	push	{r4, lr}
20003892:	4801      	ldr	r0, [pc, #4]	@ (20003898 <hard_assertion_failure+0x8>)
20003894:	f7fe fcda 	bl	2000224c <panic>
20003898:	20007b3c 	.word	0x20007b3c

2000389c <runtime_run_initializers>:
2000389c:	b570      	push	{r4, r5, r6, lr}
2000389e:	4d07      	ldr	r5, [pc, #28]	@ (200038bc <runtime_run_initializers+0x20>)
200038a0:	4e07      	ldr	r6, [pc, #28]	@ (200038c0 <runtime_run_initializers+0x24>)
200038a2:	42b5      	cmp	r5, r6
200038a4:	d209      	bcs.n	200038ba <runtime_run_initializers+0x1e>
200038a6:	2400      	movs	r4, #0
200038a8:	3e01      	subs	r6, #1
200038aa:	1b76      	subs	r6, r6, r5
200038ac:	08b6      	lsrs	r6, r6, #2
200038ae:	3601      	adds	r6, #1
200038b0:	cd08      	ldmia	r5!, {r3}
200038b2:	3401      	adds	r4, #1
200038b4:	4798      	blx	r3
200038b6:	42b4      	cmp	r4, r6
200038b8:	d1fa      	bne.n	200038b0 <runtime_run_initializers+0x14>
200038ba:	bd70      	pop	{r4, r5, r6, pc}
200038bc:	20007f38 	.word	0x20007f38
200038c0:	20007f74 	.word	0x20007f74

200038c4 <runtime_run_per_core_initializers>:
200038c4:	b570      	push	{r4, r5, r6, lr}
200038c6:	4d07      	ldr	r5, [pc, #28]	@ (200038e4 <runtime_run_per_core_initializers+0x20>)
200038c8:	4e07      	ldr	r6, [pc, #28]	@ (200038e8 <runtime_run_per_core_initializers+0x24>)
200038ca:	42b5      	cmp	r5, r6
200038cc:	d209      	bcs.n	200038e2 <runtime_run_per_core_initializers+0x1e>
200038ce:	2400      	movs	r4, #0
200038d0:	3e01      	subs	r6, #1
200038d2:	1b76      	subs	r6, r6, r5
200038d4:	08b6      	lsrs	r6, r6, #2
200038d6:	3601      	adds	r6, #1
200038d8:	cd08      	ldmia	r5!, {r3}
200038da:	3401      	adds	r4, #1
200038dc:	4798      	blx	r3
200038de:	42b4      	cmp	r4, r6
200038e0:	d1fa      	bne.n	200038d8 <runtime_run_per_core_initializers+0x14>
200038e2:	bd70      	pop	{r4, r5, r6, pc}
200038e4:	20007f6c 	.word	0x20007f6c
200038e8:	20007f74 	.word	0x20007f74

200038ec <runtime_init_early_resets>:
200038ec:	4b05      	ldr	r3, [pc, #20]	@ (20003904 <runtime_init_early_resets+0x18>)
200038ee:	4a06      	ldr	r2, [pc, #24]	@ (20003908 <runtime_init_early_resets+0x1c>)
200038f0:	4906      	ldr	r1, [pc, #24]	@ (2000390c <runtime_init_early_resets+0x20>)
200038f2:	601a      	str	r2, [r3, #0]
200038f4:	4a06      	ldr	r2, [pc, #24]	@ (20003910 <runtime_init_early_resets+0x24>)
200038f6:	4b07      	ldr	r3, [pc, #28]	@ (20003914 <runtime_init_early_resets+0x28>)
200038f8:	601a      	str	r2, [r3, #0]
200038fa:	0010      	movs	r0, r2
200038fc:	680b      	ldr	r3, [r1, #0]
200038fe:	4398      	bics	r0, r3
20003900:	d1fb      	bne.n	200038fa <runtime_init_early_resets+0xe>
20003902:	4770      	bx	lr
20003904:	4000e000 	.word	0x4000e000
20003908:	fefbcdbf 	.word	0xfefbcdbf
2000390c:	4000c008 	.word	0x4000c008
20003910:	003c7ffe 	.word	0x003c7ffe
20003914:	4000f000 	.word	0x4000f000

20003918 <runtime_init_usb_power_down>:
20003918:	4b04      	ldr	r3, [pc, #16]	@ (2000392c <runtime_init_usb_power_down+0x14>)
2000391a:	6cdb      	ldr	r3, [r3, #76]	@ 0x4c
2000391c:	2b00      	cmp	r3, #0
2000391e:	d103      	bne.n	20003928 <runtime_init_usb_power_down+0x10>
20003920:	2280      	movs	r2, #128	@ 0x80
20003922:	4b03      	ldr	r3, [pc, #12]	@ (20003930 <runtime_init_usb_power_down+0x18>)
20003924:	02d2      	lsls	r2, r2, #11
20003926:	601a      	str	r2, [r3, #0]
20003928:	4770      	bx	lr
2000392a:	46c0      	nop			@ (mov r8, r8)
2000392c:	50110000 	.word	0x50110000
20003930:	5011204c 	.word	0x5011204c

20003934 <runtime_init_post_clock_resets>:
20003934:	4a04      	ldr	r2, [pc, #16]	@ (20003948 <runtime_init_post_clock_resets+0x14>)
20003936:	4b05      	ldr	r3, [pc, #20]	@ (2000394c <runtime_init_post_clock_resets+0x18>)
20003938:	601a      	str	r2, [r3, #0]
2000393a:	4a05      	ldr	r2, [pc, #20]	@ (20003950 <runtime_init_post_clock_resets+0x1c>)
2000393c:	6813      	ldr	r3, [r2, #0]
2000393e:	01db      	lsls	r3, r3, #7
20003940:	3380      	adds	r3, #128	@ 0x80
20003942:	d1fb      	bne.n	2000393c <runtime_init_post_clock_resets+0x8>
20003944:	4770      	bx	lr
20003946:	46c0      	nop			@ (mov r8, r8)
20003948:	01ffffff 	.word	0x01ffffff
2000394c:	4000f000 	.word	0x4000f000
20003950:	4000c008 	.word	0x4000c008

20003954 <runtime_init_rp2040_gpio_ie_disable>:
20003954:	2240      	movs	r2, #64	@ 0x40
20003956:	4b03      	ldr	r3, [pc, #12]	@ (20003964 <runtime_init_rp2040_gpio_ie_disable+0x10>)
20003958:	679a      	str	r2, [r3, #120]	@ 0x78
2000395a:	675a      	str	r2, [r3, #116]	@ 0x74
2000395c:	671a      	str	r2, [r3, #112]	@ 0x70
2000395e:	66da      	str	r2, [r3, #108]	@ 0x6c
20003960:	4770      	bx	lr
20003962:	46c0      	nop			@ (mov r8, r8)
20003964:	4001f000 	.word	0x4001f000

20003968 <runtime_init_spin_locks_reset>:
20003968:	b510      	push	{r4, lr}
2000396a:	f7fe fd0f 	bl	2000238c <spin_locks_reset>
2000396e:	bd10      	pop	{r4, pc}

20003970 <runtime_init_install_ram_vector_table>:
20003970:	b570      	push	{r4, r5, r6, lr}
20003972:	4928      	ldr	r1, [pc, #160]	@ (20003a14 <runtime_init_install_ram_vector_table+0xa4>)
20003974:	4d28      	ldr	r5, [pc, #160]	@ (20003a18 <runtime_init_install_ram_vector_table+0xa8>)
20003976:	4e29      	ldr	r6, [pc, #164]	@ (20003a1c <runtime_init_install_ram_vector_table+0xac>)
20003978:	1a6d      	subs	r5, r5, r1
2000397a:	10ac      	asrs	r4, r5, #2
2000397c:	0022      	movs	r2, r4
2000397e:	2c30      	cmp	r4, #48	@ 0x30
20003980:	d900      	bls.n	20003984 <runtime_init_install_ram_vector_table+0x14>
20003982:	2230      	movs	r2, #48	@ 0x30
20003984:	0030      	movs	r0, r6
20003986:	0092      	lsls	r2, r2, #2
20003988:	f000 faa4 	bl	20003ed4 <__wrap___aeabi_memcpy>
2000398c:	2dbc      	cmp	r5, #188	@ 0xbc
2000398e:	d83d      	bhi.n	20003a0c <runtime_init_install_ram_vector_table+0x9c>
20003990:	0023      	movs	r3, r4
20003992:	3b2a      	subs	r3, #42	@ 0x2a
20003994:	4a22      	ldr	r2, [pc, #136]	@ (20003a20 <runtime_init_install_ram_vector_table+0xb0>)
20003996:	2b05      	cmp	r3, #5
20003998:	d91d      	bls.n	200039d6 <runtime_init_install_ram_vector_table+0x66>
2000399a:	2030      	movs	r0, #48	@ 0x30
2000399c:	1975      	adds	r5, r6, r5
2000399e:	076d      	lsls	r5, r5, #29
200039a0:	46a4      	mov	ip, r4
200039a2:	1b00      	subs	r0, r0, r4
200039a4:	0feb      	lsrs	r3, r5, #31
200039a6:	2d00      	cmp	r5, #0
200039a8:	da03      	bge.n	200039b2 <runtime_init_install_ram_vector_table+0x42>
200039aa:	1c61      	adds	r1, r4, #1
200039ac:	468c      	mov	ip, r1
200039ae:	00a1      	lsls	r1, r4, #2
200039b0:	5072      	str	r2, [r6, r1]
200039b2:	1ac0      	subs	r0, r0, r3
200039b4:	18e3      	adds	r3, r4, r3
200039b6:	009b      	lsls	r3, r3, #2
200039b8:	0841      	lsrs	r1, r0, #1
200039ba:	18f3      	adds	r3, r6, r3
200039bc:	00c9      	lsls	r1, r1, #3
200039be:	18c9      	adds	r1, r1, r3
200039c0:	601a      	str	r2, [r3, #0]
200039c2:	605a      	str	r2, [r3, #4]
200039c4:	3308      	adds	r3, #8
200039c6:	4299      	cmp	r1, r3
200039c8:	d1fa      	bne.n	200039c0 <runtime_init_install_ram_vector_table+0x50>
200039ca:	2301      	movs	r3, #1
200039cc:	4203      	tst	r3, r0
200039ce:	d01d      	beq.n	20003a0c <runtime_init_install_ram_vector_table+0x9c>
200039d0:	4398      	bics	r0, r3
200039d2:	4460      	add	r0, ip
200039d4:	0004      	movs	r4, r0
200039d6:	00a3      	lsls	r3, r4, #2
200039d8:	50f2      	str	r2, [r6, r3]
200039da:	1c63      	adds	r3, r4, #1
200039dc:	2c2f      	cmp	r4, #47	@ 0x2f
200039de:	d015      	beq.n	20003a0c <runtime_init_install_ram_vector_table+0x9c>
200039e0:	009b      	lsls	r3, r3, #2
200039e2:	50f2      	str	r2, [r6, r3]
200039e4:	1ca3      	adds	r3, r4, #2
200039e6:	2c2e      	cmp	r4, #46	@ 0x2e
200039e8:	d010      	beq.n	20003a0c <runtime_init_install_ram_vector_table+0x9c>
200039ea:	009b      	lsls	r3, r3, #2
200039ec:	50f2      	str	r2, [r6, r3]
200039ee:	1ce3      	adds	r3, r4, #3
200039f0:	2c2d      	cmp	r4, #45	@ 0x2d
200039f2:	d00b      	beq.n	20003a0c <runtime_init_install_ram_vector_table+0x9c>
200039f4:	009b      	lsls	r3, r3, #2
200039f6:	50f2      	str	r2, [r6, r3]
200039f8:	1d23      	adds	r3, r4, #4
200039fa:	2c2c      	cmp	r4, #44	@ 0x2c
200039fc:	d006      	beq.n	20003a0c <runtime_init_install_ram_vector_table+0x9c>
200039fe:	009b      	lsls	r3, r3, #2
20003a00:	50f2      	str	r2, [r6, r3]
20003a02:	1d63      	adds	r3, r4, #5
20003a04:	2c2b      	cmp	r4, #43	@ 0x2b
20003a06:	d001      	beq.n	20003a0c <runtime_init_install_ram_vector_table+0x9c>
20003a08:	009b      	lsls	r3, r3, #2
20003a0a:	50f2      	str	r2, [r6, r3]
20003a0c:	4b05      	ldr	r3, [pc, #20]	@ (20003a24 <runtime_init_install_ram_vector_table+0xb4>)
20003a0e:	609e      	str	r6, [r3, #8]
20003a10:	bd70      	pop	{r4, r5, r6, pc}
20003a12:	46c0      	nop			@ (mov r8, r8)
20003a14:	10000100 	.word	0x10000100
20003a18:	100001c0 	.word	0x100001c0
20003a1c:	20000000 	.word	0x20000000
20003a20:	100001c1 	.word	0x100001c1
20003a24:	e000ed00 	.word	0xe000ed00

20003a28 <runtime_init_clocks>:
20003a28:	2300      	movs	r3, #0
20003a2a:	b510      	push	{r4, lr}
20003a2c:	4c29      	ldr	r4, [pc, #164]	@ (20003ad4 <runtime_init_clocks+0xac>)
20003a2e:	b082      	sub	sp, #8
20003a30:	67a3      	str	r3, [r4, #120]	@ 0x78
20003a32:	f7ff ff17 	bl	20003864 <xosc_init>
20003a36:	2201      	movs	r2, #1
20003a38:	4b27      	ldr	r3, [pc, #156]	@ (20003ad8 <runtime_init_clocks+0xb0>)
20003a3a:	601a      	str	r2, [r3, #0]
20003a3c:	6c63      	ldr	r3, [r4, #68]	@ 0x44
20003a3e:	2b01      	cmp	r3, #1
20003a40:	d1fc      	bne.n	20003a3c <runtime_init_clocks+0x14>
20003a42:	2203      	movs	r2, #3
20003a44:	4b25      	ldr	r3, [pc, #148]	@ (20003adc <runtime_init_clocks+0xb4>)
20003a46:	601a      	str	r2, [r3, #0]
20003a48:	4a22      	ldr	r2, [pc, #136]	@ (20003ad4 <runtime_init_clocks+0xac>)
20003a4a:	6b93      	ldr	r3, [r2, #56]	@ 0x38
20003a4c:	2b01      	cmp	r3, #1
20003a4e:	d1fc      	bne.n	20003a4a <runtime_init_clocks+0x22>
20003a50:	3301      	adds	r3, #1
20003a52:	9300      	str	r3, [sp, #0]
20003a54:	2101      	movs	r1, #1
20003a56:	4a22      	ldr	r2, [pc, #136]	@ (20003ae0 <runtime_init_clocks+0xb8>)
20003a58:	4822      	ldr	r0, [pc, #136]	@ (20003ae4 <runtime_init_clocks+0xbc>)
20003a5a:	3304      	adds	r3, #4
20003a5c:	f7ff fe70 	bl	20003740 <pll_init>
20003a60:	2305      	movs	r3, #5
20003a62:	2101      	movs	r1, #1
20003a64:	9300      	str	r3, [sp, #0]
20003a66:	4a20      	ldr	r2, [pc, #128]	@ (20003ae8 <runtime_init_clocks+0xc0>)
20003a68:	4820      	ldr	r0, [pc, #128]	@ (20003aec <runtime_init_clocks+0xc4>)
20003a6a:	f7ff fe69 	bl	20003740 <pll_init>
20003a6e:	2200      	movs	r2, #0
20003a70:	2102      	movs	r1, #2
20003a72:	2004      	movs	r0, #4
20003a74:	4b1e      	ldr	r3, [pc, #120]	@ (20003af0 <runtime_init_clocks+0xc8>)
20003a76:	f7ff fbcf 	bl	20003218 <clock_configure_undivided>
20003a7a:	2200      	movs	r2, #0
20003a7c:	2101      	movs	r1, #1
20003a7e:	2005      	movs	r0, #5
20003a80:	4b1c      	ldr	r3, [pc, #112]	@ (20003af4 <runtime_init_clocks+0xcc>)
20003a82:	f7ff fbc9 	bl	20003218 <clock_configure_undivided>
20003a86:	2200      	movs	r2, #0
20003a88:	2100      	movs	r1, #0
20003a8a:	2007      	movs	r0, #7
20003a8c:	4b1a      	ldr	r3, [pc, #104]	@ (20003af8 <runtime_init_clocks+0xd0>)
20003a8e:	f7ff fbc3 	bl	20003218 <clock_configure_undivided>
20003a92:	2200      	movs	r2, #0
20003a94:	2100      	movs	r1, #0
20003a96:	2008      	movs	r0, #8
20003a98:	4b17      	ldr	r3, [pc, #92]	@ (20003af8 <runtime_init_clocks+0xd0>)
20003a9a:	f7ff fbbd 	bl	20003218 <clock_configure_undivided>
20003a9e:	2380      	movs	r3, #128	@ 0x80
20003aa0:	00db      	lsls	r3, r3, #3
20003aa2:	9300      	str	r3, [sp, #0]
20003aa4:	2200      	movs	r2, #0
20003aa6:	2100      	movs	r1, #0
20003aa8:	2009      	movs	r0, #9
20003aaa:	4b13      	ldr	r3, [pc, #76]	@ (20003af8 <runtime_init_clocks+0xd0>)
20003aac:	f7ff fb3e 	bl	2000312c <clock_configure_int_divider>
20003ab0:	2200      	movs	r2, #0
20003ab2:	4b10      	ldr	r3, [pc, #64]	@ (20003af4 <runtime_init_clocks+0xcc>)
20003ab4:	2100      	movs	r1, #0
20003ab6:	2006      	movs	r0, #6
20003ab8:	f7ff fbae 	bl	20003218 <clock_configure_undivided>
20003abc:	2004      	movs	r0, #4
20003abe:	f7ff fc1b 	bl	200032f8 <clock_get_hz>
20003ac2:	490e      	ldr	r1, [pc, #56]	@ (20003afc <runtime_init_clocks+0xd4>)
20003ac4:	f000 f84c 	bl	20003b60 <__wrap___aeabi_uidiv>
20003ac8:	0001      	movs	r1, r0
20003aca:	2000      	movs	r0, #0
20003acc:	f7ff fe90 	bl	200037f0 <tick_start>
20003ad0:	b002      	add	sp, #8
20003ad2:	bd10      	pop	{r4, pc}
20003ad4:	40008000 	.word	0x40008000
20003ad8:	4000b03c 	.word	0x4000b03c
20003adc:	4000b030 	.word	0x4000b030
20003ae0:	59682f00 	.word	0x59682f00
20003ae4:	40028000 	.word	0x40028000
20003ae8:	47868c00 	.word	0x47868c00
20003aec:	4002c000 	.word	0x4002c000
20003af0:	00b71b00 	.word	0x00b71b00
20003af4:	07735940 	.word	0x07735940
20003af8:	02dc6c00 	.word	0x02dc6c00
20003afc:	000f4240 	.word	0x000f4240

20003b00 <__aeabi_bits_init>:
20003b00:	4801      	ldr	r0, [pc, #4]	@ (20003b08 <__aeabi_bits_init+0x8>)
20003b02:	2104      	movs	r1, #4
20003b04:	4b01      	ldr	r3, [pc, #4]	@ (20003b0c <__aeabi_bits_init+0xc>)
20003b06:	4718      	bx	r3
20003b08:	20007ee0 	.word	0x20007ee0
20003b0c:	20003821 	.word	0x20003821

20003b10 <__wrap___aeabi_idiv>:
20003b10:	4a12      	ldr	r2, [pc, #72]	@ (20003b5c <divmod_s32s32_savestate+0x18>)
20003b12:	6f93      	ldr	r3, [r2, #120]	@ 0x78
20003b14:	089b      	lsrs	r3, r3, #2
20003b16:	d215      	bcs.n	20003b44 <divmod_s32s32_savestate>

20003b18 <divmod_s32s32_unsafe>:
20003b18:	6690      	str	r0, [r2, #104]	@ 0x68
20003b1a:	66d1      	str	r1, [r2, #108]	@ 0x6c
20003b1c:	2900      	cmp	r1, #0
20003b1e:	d005      	beq.n	20003b2c <divmod_s32s32_unsafe+0x14>
20003b20:	e7ff      	b.n	20003b22 <divmod_s32s32_unsafe+0xa>
20003b22:	e7ff      	b.n	20003b24 <divmod_s32s32_unsafe+0xc>
20003b24:	e7ff      	b.n	20003b26 <divmod_s32s32_unsafe+0xe>
20003b26:	6f51      	ldr	r1, [r2, #116]	@ 0x74
20003b28:	6f10      	ldr	r0, [r2, #112]	@ 0x70
20003b2a:	4770      	bx	lr
20003b2c:	b504      	push	{r2, lr}
20003b2e:	2180      	movs	r1, #128	@ 0x80
20003b30:	0609      	lsls	r1, r1, #24
20003b32:	17c2      	asrs	r2, r0, #31
20003b34:	4051      	eors	r1, r2
20003b36:	2800      	cmp	r0, #0
20003b38:	d000      	beq.n	20003b3c <divmod_s32s32_unsafe+0x24>
20003b3a:	43c8      	mvns	r0, r1
20003b3c:	f002 fc4e 	bl	200063dc <__aeabi_idiv0>
20003b40:	2100      	movs	r1, #0
20003b42:	bd04      	pop	{r2, pc}

20003b44 <divmod_s32s32_savestate>:
20003b44:	b5f0      	push	{r4, r5, r6, r7, lr}
20003b46:	6e14      	ldr	r4, [r2, #96]	@ 0x60
20003b48:	6e55      	ldr	r5, [r2, #100]	@ 0x64
20003b4a:	6f57      	ldr	r7, [r2, #116]	@ 0x74
20003b4c:	6f16      	ldr	r6, [r2, #112]	@ 0x70
20003b4e:	f7ff ffe3 	bl	20003b18 <divmod_s32s32_unsafe>
20003b52:	6614      	str	r4, [r2, #96]	@ 0x60
20003b54:	6655      	str	r5, [r2, #100]	@ 0x64
20003b56:	6757      	str	r7, [r2, #116]	@ 0x74
20003b58:	6716      	str	r6, [r2, #112]	@ 0x70
20003b5a:	bdf0      	pop	{r4, r5, r6, r7, pc}
20003b5c:	d0000000 	.word	0xd0000000

20003b60 <__wrap___aeabi_uidiv>:
20003b60:	4a11      	ldr	r2, [pc, #68]	@ (20003ba8 <divmod_u32u32_savestate+0x18>)
20003b62:	6f93      	ldr	r3, [r2, #120]	@ 0x78
20003b64:	089b      	lsrs	r3, r3, #2
20003b66:	d213      	bcs.n	20003b90 <divmod_u32u32_savestate>

20003b68 <divmod_u32u32_unsafe>:
20003b68:	6610      	str	r0, [r2, #96]	@ 0x60
20003b6a:	6651      	str	r1, [r2, #100]	@ 0x64
20003b6c:	2900      	cmp	r1, #0
20003b6e:	d005      	beq.n	20003b7c <divmod_u32u32_unsafe+0x14>
20003b70:	e7ff      	b.n	20003b72 <divmod_u32u32_unsafe+0xa>
20003b72:	e7ff      	b.n	20003b74 <divmod_u32u32_unsafe+0xc>
20003b74:	e7ff      	b.n	20003b76 <divmod_u32u32_unsafe+0xe>
20003b76:	6f51      	ldr	r1, [r2, #116]	@ 0x74
20003b78:	6f10      	ldr	r0, [r2, #112]	@ 0x70
20003b7a:	4770      	bx	lr
20003b7c:	b504      	push	{r2, lr}
20003b7e:	2800      	cmp	r0, #0
20003b80:	d001      	beq.n	20003b86 <divmod_u32u32_unsafe+0x1e>
20003b82:	2000      	movs	r0, #0
20003b84:	43c0      	mvns	r0, r0
20003b86:	f002 fc29 	bl	200063dc <__aeabi_idiv0>
20003b8a:	2100      	movs	r1, #0
20003b8c:	bd04      	pop	{r2, pc}
20003b8e:	46c0      	nop			@ (mov r8, r8)

20003b90 <divmod_u32u32_savestate>:
20003b90:	b5f0      	push	{r4, r5, r6, r7, lr}
20003b92:	6e14      	ldr	r4, [r2, #96]	@ 0x60
20003b94:	6e55      	ldr	r5, [r2, #100]	@ 0x64
20003b96:	6f57      	ldr	r7, [r2, #116]	@ 0x74
20003b98:	6f16      	ldr	r6, [r2, #112]	@ 0x70
20003b9a:	f7ff ffe5 	bl	20003b68 <divmod_u32u32_unsafe>
20003b9e:	6614      	str	r4, [r2, #96]	@ 0x60
20003ba0:	6655      	str	r5, [r2, #100]	@ 0x64
20003ba2:	6757      	str	r7, [r2, #116]	@ 0x74
20003ba4:	6716      	str	r6, [r2, #112]	@ 0x70
20003ba6:	bdf0      	pop	{r4, r5, r6, r7, pc}
20003ba8:	d0000000 	.word	0xd0000000

20003bac <__aeabi_double_init>:
20003bac:	2313      	movs	r3, #19
20003bae:	b570      	push	{r4, r5, r6, lr}
20003bb0:	781d      	ldrb	r5, [r3, #0]
20003bb2:	2d01      	cmp	r5, #1
20003bb4:	d019      	beq.n	20003bea <__aeabi_double_init+0x3e>
20003bb6:	dd14      	ble.n	20003be2 <__aeabi_double_init+0x36>
20003bb8:	481f      	ldr	r0, [pc, #124]	@ (20003c38 <__aeabi_double_init+0x8c>)
20003bba:	f7ff fe29 	bl	20003810 <rom_data_lookup>
20003bbe:	0006      	movs	r6, r0
20003bc0:	481e      	ldr	r0, [pc, #120]	@ (20003c3c <__aeabi_double_init+0x90>)
20003bc2:	f7ff fe25 	bl	20003810 <rom_data_lookup>
20003bc6:	4c1e      	ldr	r4, [pc, #120]	@ (20003c40 <__aeabi_double_init+0x94>)
20003bc8:	2280      	movs	r2, #128	@ 0x80
20003bca:	0031      	movs	r1, r6
20003bcc:	0020      	movs	r0, r4
20003bce:	f000 f981 	bl	20003ed4 <__wrap___aeabi_memcpy>
20003bd2:	2d02      	cmp	r5, #2
20003bd4:	d02d      	beq.n	20003c32 <__aeabi_double_init+0x86>
20003bd6:	481b      	ldr	r0, [pc, #108]	@ (20003c44 <__aeabi_double_init+0x98>)
20003bd8:	f7ff fe12 	bl	20003800 <rom_func_lookup>
20003bdc:	4b1a      	ldr	r3, [pc, #104]	@ (20003c48 <__aeabi_double_init+0x9c>)
20003bde:	6018      	str	r0, [r3, #0]
20003be0:	bd70      	pop	{r4, r5, r6, pc}
20003be2:	4b1a      	ldr	r3, [pc, #104]	@ (20003c4c <__aeabi_double_init+0xa0>)
20003be4:	4c16      	ldr	r4, [pc, #88]	@ (20003c40 <__aeabi_double_init+0x94>)
20003be6:	64a3      	str	r3, [r4, #72]	@ 0x48
20003be8:	e7f5      	b.n	20003bd6 <__aeabi_double_init+0x2a>
20003bea:	4b18      	ldr	r3, [pc, #96]	@ (20003c4c <__aeabi_double_init+0xa0>)
20003bec:	4c14      	ldr	r4, [pc, #80]	@ (20003c40 <__aeabi_double_init+0x94>)
20003bee:	6023      	str	r3, [r4, #0]
20003bf0:	6063      	str	r3, [r4, #4]
20003bf2:	60a3      	str	r3, [r4, #8]
20003bf4:	60e3      	str	r3, [r4, #12]
20003bf6:	6123      	str	r3, [r4, #16]
20003bf8:	6163      	str	r3, [r4, #20]
20003bfa:	61a3      	str	r3, [r4, #24]
20003bfc:	61e3      	str	r3, [r4, #28]
20003bfe:	6223      	str	r3, [r4, #32]
20003c00:	6263      	str	r3, [r4, #36]	@ 0x24
20003c02:	62a3      	str	r3, [r4, #40]	@ 0x28
20003c04:	62e3      	str	r3, [r4, #44]	@ 0x2c
20003c06:	6323      	str	r3, [r4, #48]	@ 0x30
20003c08:	6363      	str	r3, [r4, #52]	@ 0x34
20003c0a:	63a3      	str	r3, [r4, #56]	@ 0x38
20003c0c:	63e3      	str	r3, [r4, #60]	@ 0x3c
20003c0e:	6423      	str	r3, [r4, #64]	@ 0x40
20003c10:	6463      	str	r3, [r4, #68]	@ 0x44
20003c12:	64a3      	str	r3, [r4, #72]	@ 0x48
20003c14:	64e3      	str	r3, [r4, #76]	@ 0x4c
20003c16:	6523      	str	r3, [r4, #80]	@ 0x50
20003c18:	6563      	str	r3, [r4, #84]	@ 0x54
20003c1a:	65a3      	str	r3, [r4, #88]	@ 0x58
20003c1c:	65e3      	str	r3, [r4, #92]	@ 0x5c
20003c1e:	6623      	str	r3, [r4, #96]	@ 0x60
20003c20:	6663      	str	r3, [r4, #100]	@ 0x64
20003c22:	66a3      	str	r3, [r4, #104]	@ 0x68
20003c24:	66e3      	str	r3, [r4, #108]	@ 0x6c
20003c26:	6723      	str	r3, [r4, #112]	@ 0x70
20003c28:	6763      	str	r3, [r4, #116]	@ 0x74
20003c2a:	67a3      	str	r3, [r4, #120]	@ 0x78
20003c2c:	67e3      	str	r3, [r4, #124]	@ 0x7c
20003c2e:	64a3      	str	r3, [r4, #72]	@ 0x48
20003c30:	e7d1      	b.n	20003bd6 <__aeabi_double_init+0x2a>
20003c32:	4b06      	ldr	r3, [pc, #24]	@ (20003c4c <__aeabi_double_init+0xa0>)
20003c34:	64a3      	str	r3, [r4, #72]	@ 0x48
20003c36:	e7ce      	b.n	20003bd6 <__aeabi_double_init+0x2a>
20003c38:	00004453 	.word	0x00004453
20003c3c:	00004653 	.word	0x00004653
20003c40:	200084a0 	.word	0x200084a0
20003c44:	0000334c 	.word	0x0000334c
20003c48:	20008ee4 	.word	0x20008ee4
20003c4c:	20003c51 	.word	0x20003c51

20003c50 <double_table_shim_on_use_helper>:
20003c50:	b507      	push	{r0, r1, r2, lr}
20003c52:	4660      	mov	r0, ip
20003c54:	8801      	ldrh	r1, [r0, #0]
20003c56:	0a0a      	lsrs	r2, r1, #8
20003c58:	3002      	adds	r0, #2
20003c5a:	2adf      	cmp	r2, #223	@ 0xdf
20003c5c:	d1fa      	bne.n	20003c54 <double_table_shim_on_use_helper+0x4>
20003c5e:	b2c9      	uxtb	r1, r1
20003c60:	0882      	lsrs	r2, r0, #2
20003c62:	d304      	bcc.n	20003c6e <double_table_shim_on_use_helper+0x1e>
20003c64:	8802      	ldrh	r2, [r0, #0]
20003c66:	8840      	ldrh	r0, [r0, #2]
20003c68:	0400      	lsls	r0, r0, #16
20003c6a:	4310      	orrs	r0, r2
20003c6c:	e000      	b.n	20003c70 <double_table_shim_on_use_helper+0x20>
20003c6e:	6800      	ldr	r0, [r0, #0]
20003c70:	4a01      	ldr	r2, [pc, #4]	@ (20003c78 <double_table_shim_on_use_helper+0x28>)
20003c72:	5050      	str	r0, [r2, r1]
20003c74:	9003      	str	r0, [sp, #12]
20003c76:	bd07      	pop	{r0, r1, r2, pc}
20003c78:	200084a0 	.word	0x200084a0

20003c7c <__wrap___aeabi_lmul>:
20003c7c:	4351      	muls	r1, r2
20003c7e:	4343      	muls	r3, r0
20003c80:	18c9      	adds	r1, r1, r3
20003c82:	468c      	mov	ip, r1
20003c84:	0c11      	lsrs	r1, r2, #16
20003c86:	b283      	uxth	r3, r0
20003c88:	434b      	muls	r3, r1
20003c8a:	b410      	push	{r4}
20003c8c:	0c04      	lsrs	r4, r0, #16
20003c8e:	4361      	muls	r1, r4
20003c90:	b292      	uxth	r2, r2
20003c92:	b280      	uxth	r0, r0
20003c94:	4350      	muls	r0, r2
20003c96:	4362      	muls	r2, r4
20003c98:	041c      	lsls	r4, r3, #16
20003c9a:	0c1b      	lsrs	r3, r3, #16
20003c9c:	1900      	adds	r0, r0, r4
20003c9e:	bc10      	pop	{r4}
20003ca0:	4159      	adcs	r1, r3
20003ca2:	0413      	lsls	r3, r2, #16
20003ca4:	0c12      	lsrs	r2, r2, #16
20003ca6:	18c0      	adds	r0, r0, r3
20003ca8:	4151      	adcs	r1, r2
20003caa:	4461      	add	r1, ip
20003cac:	4770      	bx	lr
	...

20003cb0 <__wrap___aeabi_frsub>:
20003cb0:	4048      	eors	r0, r1
20003cb2:	4041      	eors	r1, r0
20003cb4:	4048      	eors	r0, r1

20003cb6 <__wrap___aeabi_fsub>:
20003cb6:	4b0e      	ldr	r3, [pc, #56]	@ (20003cf0 <__wrap___aeabi_fmul+0x6>)
20003cb8:	685b      	ldr	r3, [r3, #4]
20003cba:	4718      	bx	r3

20003cbc <__wrap___aeabi_fadd>:
20003cbc:	4b0c      	ldr	r3, [pc, #48]	@ (20003cf0 <__wrap___aeabi_fmul+0x6>)
20003cbe:	681b      	ldr	r3, [r3, #0]
20003cc0:	4718      	bx	r3

20003cc2 <__wrap___aeabi_fdiv>:
20003cc2:	4a0c      	ldr	r2, [pc, #48]	@ (20003cf4 <__wrap___aeabi_fmul+0xa>)
20003cc4:	6f93      	ldr	r3, [r2, #120]	@ 0x78
20003cc6:	089b      	lsrs	r3, r3, #2
20003cc8:	d202      	bcs.n	20003cd0 <fdiv_save_state>

20003cca <fdiv_shim_call>:
20003cca:	4b09      	ldr	r3, [pc, #36]	@ (20003cf0 <__wrap___aeabi_fmul+0x6>)
20003ccc:	68db      	ldr	r3, [r3, #12]
20003cce:	4718      	bx	r3

20003cd0 <fdiv_save_state>:
20003cd0:	b5f0      	push	{r4, r5, r6, r7, lr}
20003cd2:	6e14      	ldr	r4, [r2, #96]	@ 0x60
20003cd4:	6e55      	ldr	r5, [r2, #100]	@ 0x64
20003cd6:	6f57      	ldr	r7, [r2, #116]	@ 0x74
20003cd8:	6f16      	ldr	r6, [r2, #112]	@ 0x70
20003cda:	f7ff fff6 	bl	20003cca <fdiv_shim_call>
20003cde:	4a05      	ldr	r2, [pc, #20]	@ (20003cf4 <__wrap___aeabi_fmul+0xa>)
20003ce0:	6614      	str	r4, [r2, #96]	@ 0x60
20003ce2:	6655      	str	r5, [r2, #100]	@ 0x64
20003ce4:	6757      	str	r7, [r2, #116]	@ 0x74
20003ce6:	6716      	str	r6, [r2, #112]	@ 0x70
20003ce8:	bdf0      	pop	{r4, r5, r6, r7, pc}

20003cea <__wrap___aeabi_fmul>:
20003cea:	4b01      	ldr	r3, [pc, #4]	@ (20003cf0 <__wrap___aeabi_fmul+0x6>)
20003cec:	689b      	ldr	r3, [r3, #8]
20003cee:	4718      	bx	r3
20003cf0:	200085a0 	.word	0x200085a0
20003cf4:	d0000000 	.word	0xd0000000

20003cf8 <__wrap___aeabi_cfrcmple>:
20003cf8:	b507      	push	{r0, r1, r2, lr}
20003cfa:	4048      	eors	r0, r1
20003cfc:	4041      	eors	r1, r0
20003cfe:	4048      	eors	r0, r1
20003d00:	e001      	b.n	20003d06 <__aeabi_cfcmple_guts>
20003d02:	46c0      	nop			@ (mov r8, r8)

20003d04 <__wrap___aeabi_cfcmpeq>:
20003d04:	b507      	push	{r0, r1, r2, lr}

20003d06 <__aeabi_cfcmple_guts>:
20003d06:	0042      	lsls	r2, r0, #1
20003d08:	0e12      	lsrs	r2, r2, #24
20003d0a:	d003      	beq.n	20003d14 <__aeabi_cfcmple_guts+0xe>
20003d0c:	2aff      	cmp	r2, #255	@ 0xff
20003d0e:	d103      	bne.n	20003d18 <__aeabi_cfcmple_guts+0x12>
20003d10:	0242      	lsls	r2, r0, #9
20003d12:	d818      	bhi.n	20003d46 <__aeabi_cfcmple_guts+0x40>
20003d14:	0dc0      	lsrs	r0, r0, #23
20003d16:	05c0      	lsls	r0, r0, #23
20003d18:	004a      	lsls	r2, r1, #1
20003d1a:	0e12      	lsrs	r2, r2, #24
20003d1c:	d003      	beq.n	20003d26 <__aeabi_cfcmple_guts+0x20>
20003d1e:	2aff      	cmp	r2, #255	@ 0xff
20003d20:	d103      	bne.n	20003d2a <__aeabi_cfcmple_guts+0x24>
20003d22:	024a      	lsls	r2, r1, #9
20003d24:	d80f      	bhi.n	20003d46 <__aeabi_cfcmple_guts+0x40>
20003d26:	0dc9      	lsrs	r1, r1, #23
20003d28:	05c9      	lsls	r1, r1, #23
20003d2a:	2201      	movs	r2, #1
20003d2c:	4041      	eors	r1, r0
20003d2e:	d405      	bmi.n	20003d3c <__aeabi_cfcmple_guts+0x36>
20003d30:	4041      	eors	r1, r0
20003d32:	d501      	bpl.n	20003d38 <__aeabi_cfcmple_guts+0x32>
20003d34:	4281      	cmp	r1, r0
20003d36:	bd07      	pop	{r0, r1, r2, pc}
20003d38:	4288      	cmp	r0, r1
20003d3a:	bd07      	pop	{r0, r1, r2, pc}
20003d3c:	4301      	orrs	r1, r0
20003d3e:	1849      	adds	r1, r1, r1
20003d40:	d001      	beq.n	20003d46 <__aeabi_cfcmple_guts+0x40>
20003d42:	43c0      	mvns	r0, r0
20003d44:	1800      	adds	r0, r0, r0
20003d46:	bd07      	pop	{r0, r1, r2, pc}

20003d48 <__wrap___aeabi_fcmpeq>:
20003d48:	b500      	push	{lr}
20003d4a:	f7ff ffdb 	bl	20003d04 <__wrap___aeabi_cfcmpeq>
20003d4e:	d001      	beq.n	20003d54 <__wrap___aeabi_fcmpeq+0xc>
20003d50:	2000      	movs	r0, #0
20003d52:	bd00      	pop	{pc}
20003d54:	2001      	movs	r0, #1
20003d56:	bd00      	pop	{pc}

20003d58 <__wrap___aeabi_i2f>:
20003d58:	0fc1      	lsrs	r1, r0, #31
20003d5a:	07c9      	lsls	r1, r1, #31
20003d5c:	d500      	bpl.n	20003d60 <__wrap___aeabi_i2f+0x8>
20003d5e:	4240      	negs	r0, r0
20003d60:	2800      	cmp	r0, #0
20003d62:	d017      	beq.n	20003d94 <__aeabi_i2f_main+0x30>

20003d64 <__aeabi_i2f_main>:
20003d64:	46f4      	mov	ip, lr
20003d66:	b403      	push	{r0, r1}
20003d68:	4b0b      	ldr	r3, [pc, #44]	@ (20003d98 <__aeabi_i2f_main+0x34>)
20003d6a:	681b      	ldr	r3, [r3, #0]
20003d6c:	4798      	blx	r3
20003d6e:	bc06      	pop	{r1, r2}
20003d70:	4081      	lsls	r1, r0
20003d72:	389e      	subs	r0, #158	@ 0x9e
20003d74:	4240      	negs	r0, r0
20003d76:	3180      	adds	r1, #128	@ 0x80
20003d78:	d207      	bcs.n	20003d8a <__aeabi_i2f_main+0x26>
20003d7a:	060b      	lsls	r3, r1, #24
20003d7c:	d007      	beq.n	20003d8e <__aeabi_i2f_main+0x2a>
20003d7e:	0049      	lsls	r1, r1, #1
20003d80:	0a49      	lsrs	r1, r1, #9
20003d82:	05c0      	lsls	r0, r0, #23
20003d84:	4310      	orrs	r0, r2
20003d86:	4308      	orrs	r0, r1
20003d88:	4760      	bx	ip
20003d8a:	3001      	adds	r0, #1
20003d8c:	e7f8      	b.n	20003d80 <__aeabi_i2f_main+0x1c>
20003d8e:	0a49      	lsrs	r1, r1, #9
20003d90:	0289      	lsls	r1, r1, #10
20003d92:	e7f5      	b.n	20003d80 <__aeabi_i2f_main+0x1c>
20003d94:	4770      	bx	lr
20003d96:	0000      	.short	0x0000
20003d98:	20008ee4 	.word	0x20008ee4

20003d9c <__wrap___aeabi_f2iz>:
20003d9c:	0041      	lsls	r1, r0, #1
20003d9e:	0e0a      	lsrs	r2, r1, #24
20003da0:	2380      	movs	r3, #128	@ 0x80
20003da2:	061b      	lsls	r3, r3, #24
20003da4:	2a7e      	cmp	r2, #126	@ 0x7e
20003da6:	dd0b      	ble.n	20003dc0 <__wrap___aeabi_f2iz+0x24>
20003da8:	3a9e      	subs	r2, #158	@ 0x9e
20003daa:	da0b      	bge.n	20003dc4 <__wrap___aeabi_f2iz+0x28>
20003dac:	17c1      	asrs	r1, r0, #31
20003dae:	0240      	lsls	r0, r0, #9
20003db0:	0840      	lsrs	r0, r0, #1
20003db2:	4318      	orrs	r0, r3
20003db4:	4252      	negs	r2, r2
20003db6:	40d0      	lsrs	r0, r2
20003db8:	0049      	lsls	r1, r1, #1
20003dba:	3101      	adds	r1, #1
20003dbc:	4348      	muls	r0, r1
20003dbe:	4770      	bx	lr
20003dc0:	2000      	movs	r0, #0
20003dc2:	4770      	bx	lr
20003dc4:	0fc0      	lsrs	r0, r0, #31
20003dc6:	18c0      	adds	r0, r0, r3
20003dc8:	3801      	subs	r0, #1
20003dca:	4770      	bx	lr
20003dcc:	42c0      	cmn	r0, r0
20003dce:	d30d      	bcc.n	20003dec <float2int>
20003dd0:	b500      	push	{lr}
20003dd2:	0040      	lsls	r0, r0, #1
20003dd4:	0840      	lsrs	r0, r0, #1
20003dd6:	2100      	movs	r1, #0
20003dd8:	f000 f812 	bl	20003e00 <__wrap___aeabi_f2uiz>
20003ddc:	2800      	cmp	r0, #0
20003dde:	d401      	bmi.n	20003de4 <__wrap___aeabi_f2iz+0x48>
20003de0:	4240      	negs	r0, r0
20003de2:	bd00      	pop	{pc}
20003de4:	2080      	movs	r0, #128	@ 0x80
20003de6:	0600      	lsls	r0, r0, #24
20003de8:	bd00      	pop	{pc}
	...

20003dec <float2int>:
20003dec:	4b03      	ldr	r3, [pc, #12]	@ (20003dfc <float2int+0x10>)
20003dee:	69db      	ldr	r3, [r3, #28]
20003df0:	46fc      	mov	ip, pc
20003df2:	4718      	bx	r3
20003df4:	3ea1df1c 	.word	0x3ea1df1c
20003df8:	00002000 	.word	0x00002000
20003dfc:	200085a0 	.word	0x200085a0

20003e00 <__wrap___aeabi_f2uiz>:
20003e00:	4b01      	ldr	r3, [pc, #4]	@ (20003e08 <__wrap___aeabi_f2uiz+0x8>)
20003e02:	6a5b      	ldr	r3, [r3, #36]	@ 0x24
20003e04:	4718      	bx	r3
20003e06:	0000      	.short	0x0000
20003e08:	200085a0 	.word	0x200085a0

20003e0c <__aeabi_float_init>:
20003e0c:	2313      	movs	r3, #19
20003e0e:	b510      	push	{r4, lr}
20003e10:	781c      	ldrb	r4, [r3, #0]
20003e12:	4813      	ldr	r0, [pc, #76]	@ (20003e60 <__aeabi_float_init+0x54>)
20003e14:	f7ff fcfc 	bl	20003810 <rom_data_lookup>
20003e18:	2c01      	cmp	r4, #1
20003e1a:	d00b      	beq.n	20003e34 <__aeabi_float_init+0x28>
20003e1c:	dd04      	ble.n	20003e28 <__aeabi_float_init+0x1c>
20003e1e:	0001      	movs	r1, r0
20003e20:	2280      	movs	r2, #128	@ 0x80
20003e22:	4810      	ldr	r0, [pc, #64]	@ (20003e64 <__aeabi_float_init+0x58>)
20003e24:	f000 f856 	bl	20003ed4 <__wrap___aeabi_memcpy>
20003e28:	480f      	ldr	r0, [pc, #60]	@ (20003e68 <__aeabi_float_init+0x5c>)
20003e2a:	f7ff fce9 	bl	20003800 <rom_func_lookup>
20003e2e:	4b0f      	ldr	r3, [pc, #60]	@ (20003e6c <__aeabi_float_init+0x60>)
20003e30:	6018      	str	r0, [r3, #0]
20003e32:	bd10      	pop	{r4, pc}
20003e34:	4c0b      	ldr	r4, [pc, #44]	@ (20003e64 <__aeabi_float_init+0x58>)
20003e36:	0001      	movs	r1, r0
20003e38:	2254      	movs	r2, #84	@ 0x54
20003e3a:	0020      	movs	r0, r4
20003e3c:	f000 f84a 	bl	20003ed4 <__wrap___aeabi_memcpy>
20003e40:	4b0b      	ldr	r3, [pc, #44]	@ (20003e70 <__aeabi_float_init+0x64>)
20003e42:	6563      	str	r3, [r4, #84]	@ 0x54
20003e44:	65a3      	str	r3, [r4, #88]	@ 0x58
20003e46:	65e3      	str	r3, [r4, #92]	@ 0x5c
20003e48:	6623      	str	r3, [r4, #96]	@ 0x60
20003e4a:	6663      	str	r3, [r4, #100]	@ 0x64
20003e4c:	66a3      	str	r3, [r4, #104]	@ 0x68
20003e4e:	66e3      	str	r3, [r4, #108]	@ 0x6c
20003e50:	6723      	str	r3, [r4, #112]	@ 0x70
20003e52:	6763      	str	r3, [r4, #116]	@ 0x74
20003e54:	67a3      	str	r3, [r4, #120]	@ 0x78
20003e56:	67e3      	str	r3, [r4, #124]	@ 0x7c
20003e58:	6223      	str	r3, [r4, #32]
20003e5a:	61e3      	str	r3, [r4, #28]
20003e5c:	e7e4      	b.n	20003e28 <__aeabi_float_init+0x1c>
20003e5e:	46c0      	nop			@ (mov r8, r8)
20003e60:	00004653 	.word	0x00004653
20003e64:	200085a0 	.word	0x200085a0
20003e68:	0000334c 	.word	0x0000334c
20003e6c:	20008ee4 	.word	0x20008ee4
20003e70:	20003e75 	.word	0x20003e75

20003e74 <float_table_shim_on_use_helper>:
20003e74:	b507      	push	{r0, r1, r2, lr}
20003e76:	4660      	mov	r0, ip
20003e78:	8801      	ldrh	r1, [r0, #0]
20003e7a:	0a0a      	lsrs	r2, r1, #8
20003e7c:	3002      	adds	r0, #2
20003e7e:	2adf      	cmp	r2, #223	@ 0xdf
20003e80:	d1fa      	bne.n	20003e78 <float_table_shim_on_use_helper+0x4>
20003e82:	b2c9      	uxtb	r1, r1
20003e84:	0882      	lsrs	r2, r0, #2
20003e86:	d304      	bcc.n	20003e92 <float_table_shim_on_use_helper+0x1e>
20003e88:	8802      	ldrh	r2, [r0, #0]
20003e8a:	8840      	ldrh	r0, [r0, #2]
20003e8c:	0400      	lsls	r0, r0, #16
20003e8e:	4310      	orrs	r0, r2
20003e90:	e000      	b.n	20003e94 <float_table_shim_on_use_helper+0x20>
20003e92:	6800      	ldr	r0, [r0, #0]
20003e94:	4a01      	ldr	r2, [pc, #4]	@ (20003e9c <float_table_shim_on_use_helper+0x28>)
20003e96:	5050      	str	r0, [r2, r1]
20003e98:	9003      	str	r0, [sp, #12]
20003e9a:	bd07      	pop	{r0, r1, r2, pc}
20003e9c:	200085a0 	.word	0x200085a0

20003ea0 <float2int_shim>:
20003ea0:	2100      	movs	r1, #0

20003ea2 <float2fix_shim>:
20003ea2:	15c2      	asrs	r2, r0, #23
20003ea4:	3280      	adds	r2, #128	@ 0x80
20003ea6:	3280      	adds	r2, #128	@ 0x80
20003ea8:	d001      	beq.n	20003eae <float2fix_shim+0xc>
20003eaa:	4a02      	ldr	r2, [pc, #8]	@ (20003eb4 <float2fix_shim+0x12>)
20003eac:	4710      	bx	r2
20003eae:	2000      	movs	r0, #0
20003eb0:	4770      	bx	lr
20003eb2:	0000      	.short	0x0000
20003eb4:	00002acd 	.word	0x00002acd

20003eb8 <__aeabi_mem_init>:
20003eb8:	4801      	ldr	r0, [pc, #4]	@ (20003ec0 <__aeabi_mem_init+0x8>)
20003eba:	2104      	movs	r1, #4
20003ebc:	4b01      	ldr	r3, [pc, #4]	@ (20003ec4 <__aeabi_mem_init+0xc>)
20003ebe:	4718      	bx	r3
20003ec0:	20007ef0 	.word	0x20007ef0
20003ec4:	20003821 	.word	0x20003821

20003ec8 <__wrap_memset>:
20003ec8:	4b01      	ldr	r3, [pc, #4]	@ (20003ed0 <__wrap_memset+0x8>)
20003eca:	681b      	ldr	r3, [r3, #0]
20003ecc:	4718      	bx	r3
20003ece:	0000      	.short	0x0000
20003ed0:	20007ef0 	.word	0x20007ef0

20003ed4 <__wrap___aeabi_memcpy>:
20003ed4:	4b01      	ldr	r3, [pc, #4]	@ (20003edc <__wrap___aeabi_memcpy+0x8>)
20003ed6:	685b      	ldr	r3, [r3, #4]
20003ed8:	4718      	bx	r3
20003eda:	0000      	.short	0x0000
20003edc:	20007ef0 	.word	0x20007ef0

20003ee0 <_out_char>:
20003ee0:	b510      	push	{r4, lr}
20003ee2:	2800      	cmp	r0, #0
20003ee4:	d100      	bne.n	20003ee8 <_out_char+0x8>
20003ee6:	bd10      	pop	{r4, pc}
20003ee8:	f000 f900 	bl	200040ec <__wrap_putchar>
20003eec:	e7fb      	b.n	20003ee6 <_out_char+0x6>
20003eee:	46c0      	nop			@ (mov r8, r8)

20003ef0 <weak_raw_vprintf>:
20003ef0:	b510      	push	{r4, lr}
20003ef2:	4a09      	ldr	r2, [pc, #36]	@ (20003f18 <weak_raw_vprintf+0x28>)
20003ef4:	0003      	movs	r3, r0
20003ef6:	6814      	ldr	r4, [r2, #0]
20003ef8:	b084      	sub	sp, #16
20003efa:	2c00      	cmp	r4, #0
20003efc:	d008      	beq.n	20003f10 <weak_raw_vprintf+0x20>
20003efe:	2201      	movs	r2, #1
20003f00:	9100      	str	r1, [sp, #0]
20003f02:	4806      	ldr	r0, [pc, #24]	@ (20003f1c <weak_raw_vprintf+0x2c>)
20003f04:	4252      	negs	r2, r2
20003f06:	a903      	add	r1, sp, #12
20003f08:	47a0      	blx	r4
20003f0a:	2001      	movs	r0, #1
20003f0c:	b004      	add	sp, #16
20003f0e:	bd10      	pop	{r4, pc}
20003f10:	f000 f936 	bl	20004180 <__wrap_puts>
20003f14:	2000      	movs	r0, #0
20003f16:	e7f9      	b.n	20003f0c <weak_raw_vprintf+0x1c>
20003f18:	20008eac 	.word	0x20008eac
20003f1c:	20003ee1 	.word	0x20003ee1

20003f20 <_exit>:
20003f20:	be00      	bkpt	0x0000
20003f22:	e7fd      	b.n	20003f20 <_exit>

20003f24 <exit>:
20003f24:	b510      	push	{r4, lr}
20003f26:	f7ff fffb 	bl	20003f20 <_exit>
20003f2a:	46c0      	nop			@ (mov r8, r8)

20003f2c <runtime_init>:
20003f2c:	b570      	push	{r4, r5, r6, lr}
20003f2e:	f7ff fcb5 	bl	2000389c <runtime_run_initializers>
20003f32:	4d07      	ldr	r5, [pc, #28]	@ (20003f50 <runtime_init+0x24>)
20003f34:	4e07      	ldr	r6, [pc, #28]	@ (20003f54 <runtime_init+0x28>)
20003f36:	42b5      	cmp	r5, r6
20003f38:	d209      	bcs.n	20003f4e <runtime_init+0x22>
20003f3a:	2400      	movs	r4, #0
20003f3c:	3e01      	subs	r6, #1
20003f3e:	1b76      	subs	r6, r6, r5
20003f40:	08b6      	lsrs	r6, r6, #2
20003f42:	3601      	adds	r6, #1
20003f44:	cd08      	ldmia	r5!, {r3}
20003f46:	3401      	adds	r4, #1
20003f48:	4798      	blx	r3
20003f4a:	42b4      	cmp	r4, r6
20003f4c:	d1fa      	bne.n	20003f44 <runtime_init+0x18>
20003f4e:	bd70      	pop	{r4, r5, r6, pc}
20003f50:	20007f74 	.word	0x20007f74
20003f54:	20007f80 	.word	0x20007f80

20003f58 <stdio_out_chars_no_crlf>:
20003f58:	0003      	movs	r3, r0
20003f5a:	b510      	push	{r4, lr}
20003f5c:	0008      	movs	r0, r1
20003f5e:	0011      	movs	r1, r2
20003f60:	681b      	ldr	r3, [r3, #0]
20003f62:	4798      	blx	r3
20003f64:	bd10      	pop	{r4, pc}
20003f66:	46c0      	nop			@ (mov r8, r8)

20003f68 <stdio_out_chars_crlf>:
20003f68:	b5f8      	push	{r3, r4, r5, r6, r7, lr}
20003f6a:	7d43      	ldrb	r3, [r0, #21]
20003f6c:	0007      	movs	r7, r0
20003f6e:	000d      	movs	r5, r1
20003f70:	0016      	movs	r6, r2
20003f72:	2b00      	cmp	r3, #0
20003f74:	d038      	beq.n	20003fe8 <stdio_out_chars_crlf+0x80>
20003f76:	2a00      	cmp	r2, #0
20003f78:	dd1a      	ble.n	20003fb0 <stdio_out_chars_crlf+0x48>
20003f7a:	780b      	ldrb	r3, [r1, #0]
20003f7c:	2b0a      	cmp	r3, #10
20003f7e:	d018      	beq.n	20003fb2 <stdio_out_chars_crlf+0x4a>
20003f80:	2000      	movs	r0, #0
20003f82:	2e01      	cmp	r6, #1
20003f84:	d009      	beq.n	20003f9a <stdio_out_chars_crlf+0x32>
20003f86:	2401      	movs	r4, #1
20003f88:	0021      	movs	r1, r4
20003f8a:	5c6b      	ldrb	r3, [r5, r1]
20003f8c:	3401      	adds	r4, #1
20003f8e:	2b0a      	cmp	r3, #10
20003f90:	d01a      	beq.n	20003fc8 <stdio_out_chars_crlf+0x60>
20003f92:	42b4      	cmp	r4, r6
20003f94:	d1f8      	bne.n	20003f88 <stdio_out_chars_crlf+0x20>
20003f96:	4286      	cmp	r6, r0
20003f98:	dd03      	ble.n	20003fa2 <stdio_out_chars_crlf+0x3a>
20003f9a:	1a31      	subs	r1, r6, r0
20003f9c:	683b      	ldr	r3, [r7, #0]
20003f9e:	1828      	adds	r0, r5, r0
20003fa0:	4798      	blx	r3
20003fa2:	19ad      	adds	r5, r5, r6
20003fa4:	3d01      	subs	r5, #1
20003fa6:	782b      	ldrb	r3, [r5, #0]
20003fa8:	3b0d      	subs	r3, #13
20003faa:	425a      	negs	r2, r3
20003fac:	4153      	adcs	r3, r2
20003fae:	753b      	strb	r3, [r7, #20]
20003fb0:	bdf8      	pop	{r3, r4, r5, r6, r7, pc}
20003fb2:	7d03      	ldrb	r3, [r0, #20]
20003fb4:	2b00      	cmp	r3, #0
20003fb6:	d1e3      	bne.n	20003f80 <stdio_out_chars_crlf+0x18>
20003fb8:	2102      	movs	r1, #2
20003fba:	480e      	ldr	r0, [pc, #56]	@ (20003ff4 <stdio_out_chars_crlf+0x8c>)
20003fbc:	683b      	ldr	r3, [r7, #0]
20003fbe:	4798      	blx	r3
20003fc0:	2e01      	cmp	r6, #1
20003fc2:	d0ee      	beq.n	20003fa2 <stdio_out_chars_crlf+0x3a>
20003fc4:	2001      	movs	r0, #1
20003fc6:	e7de      	b.n	20003f86 <stdio_out_chars_crlf+0x1e>
20003fc8:	1e6b      	subs	r3, r5, #1
20003fca:	5c5b      	ldrb	r3, [r3, r1]
20003fcc:	2b0d      	cmp	r3, #13
20003fce:	d0e0      	beq.n	20003f92 <stdio_out_chars_crlf+0x2a>
20003fd0:	4288      	cmp	r0, r1
20003fd2:	da03      	bge.n	20003fdc <stdio_out_chars_crlf+0x74>
20003fd4:	1a09      	subs	r1, r1, r0
20003fd6:	683b      	ldr	r3, [r7, #0]
20003fd8:	1828      	adds	r0, r5, r0
20003fda:	4798      	blx	r3
20003fdc:	4805      	ldr	r0, [pc, #20]	@ (20003ff4 <stdio_out_chars_crlf+0x8c>)
20003fde:	2102      	movs	r1, #2
20003fe0:	683b      	ldr	r3, [r7, #0]
20003fe2:	4798      	blx	r3
20003fe4:	0020      	movs	r0, r4
20003fe6:	e7d4      	b.n	20003f92 <stdio_out_chars_crlf+0x2a>
20003fe8:	6803      	ldr	r3, [r0, #0]
20003fea:	0011      	movs	r1, r2
20003fec:	0028      	movs	r0, r5
20003fee:	4798      	blx	r3
20003ff0:	e7de      	b.n	20003fb0 <stdio_out_chars_crlf+0x48>
20003ff2:	46c0      	nop			@ (mov r8, r8)
20003ff4:	20007d80 	.word	0x20007d80

20003ff8 <stdio_put_string>:
20003ff8:	b5f0      	push	{r4, r5, r6, r7, lr}
20003ffa:	4646      	mov	r6, r8
20003ffc:	46d6      	mov	lr, sl
20003ffe:	464f      	mov	r7, r9
20004000:	b5c0      	push	{r6, r7, lr}
20004002:	b082      	sub	sp, #8
20004004:	4690      	mov	r8, r2
20004006:	001c      	movs	r4, r3
20004008:	0006      	movs	r6, r0
2000400a:	000d      	movs	r5, r1
2000400c:	f7ff f874 	bl	200030f8 <time_us_64>
20004010:	2300      	movs	r3, #0
20004012:	4a2f      	ldr	r2, [pc, #188]	@ (200040d0 <stdio_put_string+0xd8>)
20004014:	1812      	adds	r2, r2, r0
20004016:	414b      	adcs	r3, r1
20004018:	2b00      	cmp	r3, #0
2000401a:	da02      	bge.n	20004022 <stdio_put_string+0x2a>
2000401c:	2201      	movs	r2, #1
2000401e:	4b2d      	ldr	r3, [pc, #180]	@ (200040d4 <stdio_put_string+0xdc>)
20004020:	4252      	negs	r2, r2
20004022:	492d      	ldr	r1, [pc, #180]	@ (200040d8 <stdio_put_string+0xe0>)
20004024:	0008      	movs	r0, r1
20004026:	468a      	mov	sl, r1
20004028:	f002 fe16 	bl	20006c58 <mutex_try_enter_block_until>
2000402c:	4681      	mov	r9, r0
2000402e:	1c6b      	adds	r3, r5, #1
20004030:	d103      	bne.n	2000403a <stdio_put_string+0x42>
20004032:	0030      	movs	r0, r6
20004034:	f002 f9d4 	bl	200063e0 <strlen>
20004038:	0005      	movs	r5, r0
2000403a:	2c00      	cmp	r4, #0
2000403c:	d027      	beq.n	2000408e <stdio_put_string+0x96>
2000403e:	4f27      	ldr	r7, [pc, #156]	@ (200040dc <stdio_put_string+0xe4>)
20004040:	4b27      	ldr	r3, [pc, #156]	@ (200040e0 <stdio_put_string+0xe8>)
20004042:	681c      	ldr	r4, [r3, #0]
20004044:	2c00      	cmp	r4, #0
20004046:	d018      	beq.n	2000407a <stdio_put_string+0x82>
20004048:	4643      	mov	r3, r8
2000404a:	2b00      	cmp	r3, #0
2000404c:	d121      	bne.n	20004092 <stdio_put_string+0x9a>
2000404e:	4b25      	ldr	r3, [pc, #148]	@ (200040e4 <stdio_put_string+0xec>)
20004050:	4698      	mov	r8, r3
20004052:	e002      	b.n	2000405a <stdio_put_string+0x62>
20004054:	6924      	ldr	r4, [r4, #16]
20004056:	2c00      	cmp	r4, #0
20004058:	d00f      	beq.n	2000407a <stdio_put_string+0x82>
2000405a:	6823      	ldr	r3, [r4, #0]
2000405c:	2b00      	cmp	r3, #0
2000405e:	d0f9      	beq.n	20004054 <stdio_put_string+0x5c>
20004060:	4643      	mov	r3, r8
20004062:	681b      	ldr	r3, [r3, #0]
20004064:	2b00      	cmp	r3, #0
20004066:	d001      	beq.n	2000406c <stdio_put_string+0x74>
20004068:	429c      	cmp	r4, r3
2000406a:	d1f3      	bne.n	20004054 <stdio_put_string+0x5c>
2000406c:	0020      	movs	r0, r4
2000406e:	002a      	movs	r2, r5
20004070:	0031      	movs	r1, r6
20004072:	47b8      	blx	r7
20004074:	6924      	ldr	r4, [r4, #16]
20004076:	2c00      	cmp	r4, #0
20004078:	d1ef      	bne.n	2000405a <stdio_put_string+0x62>
2000407a:	464b      	mov	r3, r9
2000407c:	2b00      	cmp	r3, #0
2000407e:	d123      	bne.n	200040c8 <stdio_put_string+0xd0>
20004080:	0028      	movs	r0, r5
20004082:	b002      	add	sp, #8
20004084:	bce0      	pop	{r5, r6, r7}
20004086:	46ba      	mov	sl, r7
20004088:	46b1      	mov	r9, r6
2000408a:	46a8      	mov	r8, r5
2000408c:	bdf0      	pop	{r4, r5, r6, r7, pc}
2000408e:	4f16      	ldr	r7, [pc, #88]	@ (200040e8 <stdio_put_string+0xf0>)
20004090:	e7d6      	b.n	20004040 <stdio_put_string+0x48>
20004092:	4b14      	ldr	r3, [pc, #80]	@ (200040e4 <stdio_put_string+0xec>)
20004094:	4698      	mov	r8, r3
20004096:	e002      	b.n	2000409e <stdio_put_string+0xa6>
20004098:	6924      	ldr	r4, [r4, #16]
2000409a:	2c00      	cmp	r4, #0
2000409c:	d0ed      	beq.n	2000407a <stdio_put_string+0x82>
2000409e:	6823      	ldr	r3, [r4, #0]
200040a0:	2b00      	cmp	r3, #0
200040a2:	d0f9      	beq.n	20004098 <stdio_put_string+0xa0>
200040a4:	4643      	mov	r3, r8
200040a6:	681b      	ldr	r3, [r3, #0]
200040a8:	2b00      	cmp	r3, #0
200040aa:	d001      	beq.n	200040b0 <stdio_put_string+0xb8>
200040ac:	42a3      	cmp	r3, r4
200040ae:	d1f3      	bne.n	20004098 <stdio_put_string+0xa0>
200040b0:	002a      	movs	r2, r5
200040b2:	0031      	movs	r1, r6
200040b4:	0020      	movs	r0, r4
200040b6:	47b8      	blx	r7
200040b8:	466b      	mov	r3, sp
200040ba:	220a      	movs	r2, #10
200040bc:	0020      	movs	r0, r4
200040be:	71da      	strb	r2, [r3, #7]
200040c0:	1dd9      	adds	r1, r3, #7
200040c2:	3a09      	subs	r2, #9
200040c4:	47b8      	blx	r7
200040c6:	e7e7      	b.n	20004098 <stdio_put_string+0xa0>
200040c8:	4650      	mov	r0, sl
200040ca:	f002 fe57 	bl	20006d7c <mutex_exit>
200040ce:	e7d7      	b.n	20004080 <stdio_put_string+0x88>
200040d0:	000f4240 	.word	0x000f4240
200040d4:	7fffffff 	.word	0x7fffffff
200040d8:	20007f30 	.word	0x20007f30
200040dc:	20003f69 	.word	0x20003f69
200040e0:	20008a40 	.word	0x20008a40
200040e4:	20008a48 	.word	0x20008a48
200040e8:	20003f59 	.word	0x20003f59

200040ec <__wrap_putchar>:
200040ec:	b5f0      	push	{r4, r5, r6, r7, lr}
200040ee:	46ce      	mov	lr, r9
200040f0:	4647      	mov	r7, r8
200040f2:	b580      	push	{r7, lr}
200040f4:	b083      	sub	sp, #12
200040f6:	466b      	mov	r3, sp
200040f8:	0006      	movs	r6, r0
200040fa:	1ddd      	adds	r5, r3, #7
200040fc:	7028      	strb	r0, [r5, #0]
200040fe:	f7fe fffb 	bl	200030f8 <time_us_64>
20004102:	2300      	movs	r3, #0
20004104:	4a19      	ldr	r2, [pc, #100]	@ (2000416c <__wrap_putchar+0x80>)
20004106:	1812      	adds	r2, r2, r0
20004108:	414b      	adcs	r3, r1
2000410a:	2b00      	cmp	r3, #0
2000410c:	da02      	bge.n	20004114 <__wrap_putchar+0x28>
2000410e:	2201      	movs	r2, #1
20004110:	4b17      	ldr	r3, [pc, #92]	@ (20004170 <__wrap_putchar+0x84>)
20004112:	4252      	negs	r2, r2
20004114:	4917      	ldr	r1, [pc, #92]	@ (20004174 <__wrap_putchar+0x88>)
20004116:	0008      	movs	r0, r1
20004118:	4689      	mov	r9, r1
2000411a:	f002 fd9d 	bl	20006c58 <mutex_try_enter_block_until>
2000411e:	4b16      	ldr	r3, [pc, #88]	@ (20004178 <__wrap_putchar+0x8c>)
20004120:	4680      	mov	r8, r0
20004122:	681c      	ldr	r4, [r3, #0]
20004124:	2c00      	cmp	r4, #0
20004126:	d014      	beq.n	20004152 <__wrap_putchar+0x66>
20004128:	4f14      	ldr	r7, [pc, #80]	@ (2000417c <__wrap_putchar+0x90>)
2000412a:	e002      	b.n	20004132 <__wrap_putchar+0x46>
2000412c:	6924      	ldr	r4, [r4, #16]
2000412e:	2c00      	cmp	r4, #0
20004130:	d00f      	beq.n	20004152 <__wrap_putchar+0x66>
20004132:	6823      	ldr	r3, [r4, #0]
20004134:	2b00      	cmp	r3, #0
20004136:	d0f9      	beq.n	2000412c <__wrap_putchar+0x40>
20004138:	683b      	ldr	r3, [r7, #0]
2000413a:	2b00      	cmp	r3, #0
2000413c:	d001      	beq.n	20004142 <__wrap_putchar+0x56>
2000413e:	429c      	cmp	r4, r3
20004140:	d1f4      	bne.n	2000412c <__wrap_putchar+0x40>
20004142:	0020      	movs	r0, r4
20004144:	2201      	movs	r2, #1
20004146:	0029      	movs	r1, r5
20004148:	f7ff ff0e 	bl	20003f68 <stdio_out_chars_crlf>
2000414c:	6924      	ldr	r4, [r4, #16]
2000414e:	2c00      	cmp	r4, #0
20004150:	d1ef      	bne.n	20004132 <__wrap_putchar+0x46>
20004152:	4643      	mov	r3, r8
20004154:	2b00      	cmp	r3, #0
20004156:	d105      	bne.n	20004164 <__wrap_putchar+0x78>
20004158:	0030      	movs	r0, r6
2000415a:	b003      	add	sp, #12
2000415c:	bcc0      	pop	{r6, r7}
2000415e:	46b9      	mov	r9, r7
20004160:	46b0      	mov	r8, r6
20004162:	bdf0      	pop	{r4, r5, r6, r7, pc}
20004164:	4648      	mov	r0, r9
20004166:	f002 fe09 	bl	20006d7c <mutex_exit>
2000416a:	e7f5      	b.n	20004158 <__wrap_putchar+0x6c>
2000416c:	000f4240 	.word	0x000f4240
20004170:	7fffffff 	.word	0x7fffffff
20004174:	20007f30 	.word	0x20007f30
20004178:	20008a40 	.word	0x20008a40
2000417c:	20008a48 	.word	0x20008a48

20004180 <__wrap_puts>:
20004180:	b570      	push	{r4, r5, r6, lr}
20004182:	0004      	movs	r4, r0
20004184:	f002 f92c 	bl	200063e0 <strlen>
20004188:	2301      	movs	r3, #1
2000418a:	0001      	movs	r1, r0
2000418c:	0005      	movs	r5, r0
2000418e:	2201      	movs	r2, #1
20004190:	0020      	movs	r0, r4
20004192:	f7ff ff31 	bl	20003ff8 <stdio_put_string>
20004196:	4b08      	ldr	r3, [pc, #32]	@ (200041b8 <__wrap_puts+0x38>)
20004198:	681c      	ldr	r4, [r3, #0]
2000419a:	2c00      	cmp	r4, #0
2000419c:	d006      	beq.n	200041ac <__wrap_puts+0x2c>
2000419e:	6863      	ldr	r3, [r4, #4]
200041a0:	2b00      	cmp	r3, #0
200041a2:	d005      	beq.n	200041b0 <__wrap_puts+0x30>
200041a4:	4798      	blx	r3
200041a6:	6924      	ldr	r4, [r4, #16]
200041a8:	2c00      	cmp	r4, #0
200041aa:	d1f8      	bne.n	2000419e <__wrap_puts+0x1e>
200041ac:	0028      	movs	r0, r5
200041ae:	bd70      	pop	{r4, r5, r6, pc}
200041b0:	6924      	ldr	r4, [r4, #16]
200041b2:	2c00      	cmp	r4, #0
200041b4:	d1f3      	bne.n	2000419e <__wrap_puts+0x1e>
200041b6:	e7f9      	b.n	200041ac <__wrap_puts+0x2c>
200041b8:	20008a40 	.word	0x20008a40

200041bc <_retrieve_unique_id_on_boot>:
200041bc:	b510      	push	{r4, lr}
200041be:	4802      	ldr	r0, [pc, #8]	@ (200041c8 <_retrieve_unique_id_on_boot+0xc>)
200041c0:	f000 f80c 	bl	200041dc <flash_get_unique_id>
200041c4:	bd10      	pop	{r4, pc}
200041c6:	46c0      	nop			@ (mov r8, r8)
200041c8:	20008edc 	.word	0x20008edc

200041cc <pico_get_unique_board_id>:
200041cc:	b510      	push	{r4, lr}
200041ce:	2208      	movs	r2, #8
200041d0:	4901      	ldr	r1, [pc, #4]	@ (200041d8 <pico_get_unique_board_id+0xc>)
200041d2:	f7ff fe7f 	bl	20003ed4 <__wrap___aeabi_memcpy>
200041d6:	bd10      	pop	{r4, pc}
200041d8:	20008edc 	.word	0x20008edc

200041dc <flash_get_unique_id>:
200041dc:	b510      	push	{r4, lr}
200041de:	b088      	sub	sp, #32
200041e0:	0004      	movs	r4, r0
200041e2:	220d      	movs	r2, #13
200041e4:	2100      	movs	r1, #0
200041e6:	4668      	mov	r0, sp
200041e8:	f7ff fe6e 	bl	20003ec8 <__wrap_memset>
200041ec:	220d      	movs	r2, #13
200041ee:	2100      	movs	r1, #0
200041f0:	a804      	add	r0, sp, #16
200041f2:	f7ff fe69 	bl	20003ec8 <__wrap_memset>
200041f6:	234b      	movs	r3, #75	@ 0x4b
200041f8:	466a      	mov	r2, sp
200041fa:	4668      	mov	r0, sp
200041fc:	7013      	strb	r3, [r2, #0]
200041fe:	a904      	add	r1, sp, #16
20004200:	220d      	movs	r2, #13
20004202:	f002 fe29 	bl	20006e58 <flash_do_cmd>
20004206:	2115      	movs	r1, #21
20004208:	2208      	movs	r2, #8
2000420a:	0020      	movs	r0, r4
2000420c:	4469      	add	r1, sp
2000420e:	f7ff fe61 	bl	20003ed4 <__wrap___aeabi_memcpy>
20004212:	b008      	add	sp, #32
20004214:	bd10      	pop	{r4, pc}
20004216:	46c0      	nop			@ (mov r8, r8)

20004218 <core1_trampoline>:
20004218:	bd03      	pop	{r0, r1, pc}
2000421a:	46c0      	nop			@ (mov r8, r8)

2000421c <core1_wrapper>:
2000421c:	b510      	push	{r4, lr}
2000421e:	0004      	movs	r4, r0
20004220:	f7ff fb50 	bl	200038c4 <runtime_run_per_core_initializers>
20004224:	47a0      	blx	r4
20004226:	bd10      	pop	{r4, pc}

20004228 <multicore_launch_core1_raw>:
20004228:	b5f0      	push	{r4, r5, r6, r7, lr}
2000422a:	46c6      	mov	lr, r8
2000422c:	b500      	push	{lr}
2000422e:	0004      	movs	r4, r0
20004230:	b086      	sub	sp, #24
20004232:	200f      	movs	r0, #15
20004234:	000d      	movs	r5, r1
20004236:	0017      	movs	r7, r2
20004238:	f7fe f8ec 	bl	20002414 <irq_is_enabled>
2000423c:	2100      	movs	r1, #0
2000423e:	4680      	mov	r8, r0
20004240:	200f      	movs	r0, #15
20004242:	f7fe f8d5 	bl	200023f0 <irq_set_enabled>
20004246:	2300      	movs	r3, #0
20004248:	9300      	str	r3, [sp, #0]
2000424a:	9301      	str	r3, [sp, #4]
2000424c:	3301      	adds	r3, #1
2000424e:	9302      	str	r3, [sp, #8]
20004250:	23d0      	movs	r3, #208	@ 0xd0
20004252:	9504      	str	r5, [sp, #16]
20004254:	9405      	str	r4, [sp, #20]
20004256:	466e      	mov	r6, sp
20004258:	2400      	movs	r4, #0
2000425a:	2500      	movs	r5, #0
2000425c:	2101      	movs	r1, #1
2000425e:	2002      	movs	r0, #2
20004260:	9703      	str	r7, [sp, #12]
20004262:	061b      	lsls	r3, r3, #24
20004264:	2c00      	cmp	r4, #0
20004266:	d013      	beq.n	20004290 <multicore_launch_core1_raw+0x68>
20004268:	6d1a      	ldr	r2, [r3, #80]	@ 0x50
2000426a:	4210      	tst	r0, r2
2000426c:	d0fc      	beq.n	20004268 <multicore_launch_core1_raw+0x40>
2000426e:	655c      	str	r4, [r3, #84]	@ 0x54
20004270:	bf40      	sev
20004272:	6d1a      	ldr	r2, [r3, #80]	@ 0x50
20004274:	4211      	tst	r1, r2
20004276:	d103      	bne.n	20004280 <multicore_launch_core1_raw+0x58>
20004278:	bf20      	wfe
2000427a:	6d1a      	ldr	r2, [r3, #80]	@ 0x50
2000427c:	4211      	tst	r1, r2
2000427e:	d0fb      	beq.n	20004278 <multicore_launch_core1_raw+0x50>
20004280:	6d9a      	ldr	r2, [r3, #88]	@ 0x58
20004282:	42a2      	cmp	r2, r4
20004284:	d009      	beq.n	2000429a <multicore_launch_core1_raw+0x72>
20004286:	2500      	movs	r5, #0
20004288:	00aa      	lsls	r2, r5, #2
2000428a:	58b4      	ldr	r4, [r6, r2]
2000428c:	e7ea      	b.n	20004264 <multicore_launch_core1_raw+0x3c>
2000428e:	6d9a      	ldr	r2, [r3, #88]	@ 0x58
20004290:	6d1a      	ldr	r2, [r3, #80]	@ 0x50
20004292:	4211      	tst	r1, r2
20004294:	d1fb      	bne.n	2000428e <multicore_launch_core1_raw+0x66>
20004296:	bf40      	sev
20004298:	e7e6      	b.n	20004268 <multicore_launch_core1_raw+0x40>
2000429a:	3501      	adds	r5, #1
2000429c:	2d06      	cmp	r5, #6
2000429e:	d1f3      	bne.n	20004288 <multicore_launch_core1_raw+0x60>
200042a0:	4641      	mov	r1, r8
200042a2:	200f      	movs	r0, #15
200042a4:	f7fe f8a4 	bl	200023f0 <irq_set_enabled>
200042a8:	b006      	add	sp, #24
200042aa:	bc80      	pop	{r7}
200042ac:	46b8      	mov	r8, r7
200042ae:	bdf0      	pop	{r4, r5, r6, r7, pc}

200042b0 <multicore_launch_core1>:
200042b0:	4b0e      	ldr	r3, [pc, #56]	@ (200042ec <multicore_launch_core1+0x3c>)
200042b2:	4a0f      	ldr	r2, [pc, #60]	@ (200042f0 <multicore_launch_core1+0x40>)
200042b4:	b510      	push	{r4, lr}
200042b6:	0004      	movs	r4, r0
200042b8:	4293      	cmp	r3, r2
200042ba:	d311      	bcc.n	200042e0 <multicore_launch_core1+0x30>
200042bc:	4a0d      	ldr	r2, [pc, #52]	@ (200042f4 <multicore_launch_core1+0x44>)
200042be:	1899      	adds	r1, r3, r2
200042c0:	001a      	movs	r2, r3
200042c2:	480d      	ldr	r0, [pc, #52]	@ (200042f8 <multicore_launch_core1+0x48>)
200042c4:	6880      	ldr	r0, [r0, #8]
200042c6:	4684      	mov	ip, r0
200042c8:	480a      	ldr	r0, [pc, #40]	@ (200042f4 <multicore_launch_core1+0x44>)
200042ca:	5014      	str	r4, [r2, r0]
200042cc:	3004      	adds	r0, #4
200042ce:	5013      	str	r3, [r2, r0]
200042d0:	4b0a      	ldr	r3, [pc, #40]	@ (200042fc <multicore_launch_core1+0x4c>)
200042d2:	480b      	ldr	r0, [pc, #44]	@ (20004300 <multicore_launch_core1+0x50>)
200042d4:	5013      	str	r3, [r2, r0]
200042d6:	4662      	mov	r2, ip
200042d8:	480a      	ldr	r0, [pc, #40]	@ (20004304 <multicore_launch_core1+0x54>)
200042da:	f7ff ffa5 	bl	20004228 <multicore_launch_core1_raw>
200042de:	bd10      	pop	{r4, pc}
200042e0:	2301      	movs	r3, #1
200042e2:	425b      	negs	r3, r3
200042e4:	001a      	movs	r2, r3
200042e6:	4908      	ldr	r1, [pc, #32]	@ (20004308 <multicore_launch_core1+0x58>)
200042e8:	e7eb      	b.n	200042c2 <multicore_launch_core1+0x12>
200042ea:	46c0      	nop			@ (mov r8, r8)
200042ec:	20040800 	.word	0x20040800
200042f0:	20040000 	.word	0x20040000
200042f4:	000007f4 	.word	0x000007f4
200042f8:	e000ed00 	.word	0xe000ed00
200042fc:	2000421d 	.word	0x2000421d
20004300:	000007fc 	.word	0x000007fc
20004304:	20004219 	.word	0x20004219
20004308:	000007f3 	.word	0x000007f3

2000430c <dcd_init>:
2000430c:	b5f8      	push	{r3, r4, r5, r6, r7, lr}
2000430e:	f000 f947 	bl	200045a0 <rp2040_usb_init>
20004312:	230c      	movs	r3, #12
20004314:	4d19      	ldr	r5, [pc, #100]	@ (2000437c <dcd_init+0x70>)
20004316:	22ff      	movs	r2, #255	@ 0xff
20004318:	67ab      	str	r3, [r5, #120]	@ 0x78
2000431a:	2005      	movs	r0, #5
2000431c:	4918      	ldr	r1, [pc, #96]	@ (20004380 <dcd_init+0x74>)
2000431e:	f7fe f8af 	bl	20002480 <irq_add_shared_handler>
20004322:	4c18      	ldr	r4, [pc, #96]	@ (20004384 <dcd_init+0x78>)
20004324:	2240      	movs	r2, #64	@ 0x40
20004326:	2100      	movs	r1, #0
20004328:	0020      	movs	r0, r4
2000432a:	f7ff fdcd 	bl	20003ec8 <__wrap_memset>
2000432e:	2740      	movs	r7, #64	@ 0x40
20004330:	2300      	movs	r3, #0
20004332:	2601      	movs	r6, #1
20004334:	2121      	movs	r1, #33	@ 0x21
20004336:	4a14      	ldr	r2, [pc, #80]	@ (20004388 <dcd_init+0x7c>)
20004338:	7066      	strb	r6, [r4, #1]
2000433a:	8327      	strh	r7, [r4, #24]
2000433c:	60a2      	str	r2, [r4, #8]
2000433e:	6013      	str	r3, [r2, #0]
20004340:	5463      	strb	r3, [r4, r1]
20004342:	315f      	adds	r1, #95	@ 0x5f
20004344:	8461      	strh	r1, [r4, #34]	@ 0x22
20004346:	3945      	subs	r1, #69	@ 0x45
20004348:	5463      	strb	r3, [r4, r1]
2000434a:	4a10      	ldr	r2, [pc, #64]	@ (2000438c <dcd_init+0x80>)
2000434c:	4910      	ldr	r1, [pc, #64]	@ (20004390 <dcd_init+0x84>)
2000434e:	6063      	str	r3, [r4, #4]
20004350:	60e2      	str	r2, [r4, #12]
20004352:	8727      	strh	r7, [r4, #56]	@ 0x38
20004354:	62a1      	str	r1, [r4, #40]	@ 0x28
20004356:	600b      	str	r3, [r1, #0]
20004358:	6263      	str	r3, [r4, #36]	@ 0x24
2000435a:	62e2      	str	r2, [r4, #44]	@ 0x2c
2000435c:	f002 fe0e 	bl	20006f7c <reset_non_control_endpoints>
20004360:	2380      	movs	r3, #128	@ 0x80
20004362:	059b      	lsls	r3, r3, #22
20004364:	642e      	str	r6, [r5, #64]	@ 0x40
20004366:	64eb      	str	r3, [r5, #76]	@ 0x4c
20004368:	2390      	movs	r3, #144	@ 0x90
2000436a:	4a0a      	ldr	r2, [pc, #40]	@ (20004394 <dcd_init+0x88>)
2000436c:	2001      	movs	r0, #1
2000436e:	50ea      	str	r2, [r5, r3]
20004370:	2280      	movs	r2, #128	@ 0x80
20004372:	4b09      	ldr	r3, [pc, #36]	@ (20004398 <dcd_init+0x8c>)
20004374:	0252      	lsls	r2, r2, #9
20004376:	64da      	str	r2, [r3, #76]	@ 0x4c
20004378:	bdf8      	pop	{r3, r4, r5, r6, r7, pc}
2000437a:	46c0      	nop			@ (mov r8, r8)
2000437c:	50110000 	.word	0x50110000
20004380:	2000706d 	.word	0x2000706d
20004384:	20008aac 	.word	0x20008aac
20004388:	50100084 	.word	0x50100084
2000438c:	50100100 	.word	0x50100100
20004390:	50100080 	.word	0x50100080
20004394:	0001d010 	.word	0x0001d010
20004398:	50112000 	.word	0x50112000

2000439c <dcd_int_enable>:
2000439c:	b510      	push	{r4, lr}
2000439e:	2101      	movs	r1, #1
200043a0:	2005      	movs	r0, #5
200043a2:	f7fe f825 	bl	200023f0 <irq_set_enabled>
200043a6:	bd10      	pop	{r4, pc}

200043a8 <dcd_set_address>:
200043a8:	b510      	push	{r4, lr}
200043aa:	2200      	movs	r2, #0
200043ac:	2100      	movs	r1, #0
200043ae:	4802      	ldr	r0, [pc, #8]	@ (200043b8 <dcd_set_address+0x10>)
200043b0:	f000 f916 	bl	200045e0 <hw_endpoint_xfer_start>
200043b4:	bd10      	pop	{r4, pc}
200043b6:	46c0      	nop			@ (mov r8, r8)
200043b8:	20008acc 	.word	0x20008acc

200043bc <dcd_sof_enable>:
200043bc:	4b04      	ldr	r3, [pc, #16]	@ (200043d0 <dcd_sof_enable+0x14>)
200043be:	7019      	strb	r1, [r3, #0]
200043c0:	2900      	cmp	r1, #0
200043c2:	d004      	beq.n	200043ce <dcd_sof_enable+0x12>
200043c4:	2180      	movs	r1, #128	@ 0x80
200043c6:	2390      	movs	r3, #144	@ 0x90
200043c8:	4a02      	ldr	r2, [pc, #8]	@ (200043d4 <dcd_sof_enable+0x18>)
200043ca:	0289      	lsls	r1, r1, #10
200043cc:	50d1      	str	r1, [r2, r3]
200043ce:	4770      	bx	lr
200043d0:	20008eef 	.word	0x20008eef
200043d4:	50112000 	.word	0x50112000

200043d8 <dcd_edpt0_status_complete>:
200043d8:	780b      	ldrb	r3, [r1, #0]
200043da:	065b      	lsls	r3, r3, #25
200043dc:	d000      	beq.n	200043e0 <dcd_edpt0_status_complete+0x8>
200043de:	4770      	bx	lr
200043e0:	784b      	ldrb	r3, [r1, #1]
200043e2:	2b05      	cmp	r3, #5
200043e4:	d1fb      	bne.n	200043de <dcd_edpt0_status_complete+0x6>
200043e6:	788a      	ldrb	r2, [r1, #2]
200043e8:	4b01      	ldr	r3, [pc, #4]	@ (200043f0 <dcd_edpt0_status_complete+0x18>)
200043ea:	601a      	str	r2, [r3, #0]
200043ec:	e7f7      	b.n	200043de <dcd_edpt0_status_complete+0x6>
200043ee:	46c0      	nop			@ (mov r8, r8)
200043f0:	50110000 	.word	0x50110000

200043f4 <dcd_edpt_open>:
200043f4:	b5f8      	push	{r3, r4, r5, r6, r7, lr}
200043f6:	46ce      	mov	lr, r9
200043f8:	4647      	mov	r7, r8
200043fa:	78c8      	ldrb	r0, [r1, #3]
200043fc:	b580      	push	{r7, lr}
200043fe:	0780      	lsls	r0, r0, #30
20004400:	0f83      	lsrs	r3, r0, #30
20004402:	0018      	movs	r0, r3
20004404:	2b01      	cmp	r3, #1
20004406:	d061      	beq.n	200044cc <dcd_edpt_open+0xd8>
20004408:	788b      	ldrb	r3, [r1, #2]
2000440a:	790a      	ldrb	r2, [r1, #4]
2000440c:	469c      	mov	ip, r3
2000440e:	794b      	ldrb	r3, [r1, #5]
20004410:	217f      	movs	r1, #127	@ 0x7f
20004412:	021b      	lsls	r3, r3, #8
20004414:	4313      	orrs	r3, r2
20004416:	055b      	lsls	r3, r3, #21
20004418:	0d5e      	lsrs	r6, r3, #21
2000441a:	4663      	mov	r3, ip
2000441c:	4019      	ands	r1, r3
2000441e:	09dc      	lsrs	r4, r3, #7
20004420:	004b      	lsls	r3, r1, #1
20004422:	191a      	adds	r2, r3, r4
20004424:	001f      	movs	r7, r3
20004426:	4663      	mov	r3, ip
20004428:	4d2f      	ldr	r5, [pc, #188]	@ (200044e8 <dcd_edpt_open+0xf4>)
2000442a:	0152      	lsls	r2, r2, #5
2000442c:	18aa      	adds	r2, r5, r2
2000442e:	7093      	strb	r3, [r2, #2]
20004430:	2301      	movs	r3, #1
20004432:	4063      	eors	r3, r4
20004434:	7053      	strb	r3, [r2, #1]
20004436:	2300      	movs	r3, #0
20004438:	8316      	strh	r6, [r2, #24]
2000443a:	70d3      	strb	r3, [r2, #3]
2000443c:	76d0      	strb	r0, [r2, #27]
2000443e:	46b1      	mov	r9, r6
20004440:	00ca      	lsls	r2, r1, #3
20004442:	2c01      	cmp	r4, #1
20004444:	d031      	beq.n	200044aa <dcd_edpt_open+0xb6>
20004446:	4e29      	ldr	r6, [pc, #164]	@ (200044ec <dcd_edpt_open+0xf8>)
20004448:	1992      	adds	r2, r2, r6
2000444a:	018e      	lsls	r6, r1, #6
2000444c:	46b4      	mov	ip, r6
2000444e:	44ac      	add	ip, r5
20004450:	4666      	mov	r6, ip
20004452:	60b2      	str	r2, [r6, #8]
20004454:	6013      	str	r3, [r2, #0]
20004456:	2900      	cmp	r1, #0
20004458:	d031      	beq.n	200044be <dcd_edpt_open+0xca>
2000445a:	4b25      	ldr	r3, [pc, #148]	@ (200044f0 <dcd_edpt_open+0xfc>)
2000445c:	00c9      	lsls	r1, r1, #3
2000445e:	18c9      	adds	r1, r1, r3
20004460:	6071      	str	r1, [r6, #4]
20004462:	464b      	mov	r3, r9
20004464:	333f      	adds	r3, #63	@ 0x3f
20004466:	099b      	lsrs	r3, r3, #6
20004468:	2802      	cmp	r0, #2
2000446a:	d036      	beq.n	200044da <dcd_edpt_open+0xe6>
2000446c:	019b      	lsls	r3, r3, #6
2000446e:	4821      	ldr	r0, [pc, #132]	@ (200044f4 <dcd_edpt_open+0x100>)
20004470:	1939      	adds	r1, r7, r4
20004472:	6802      	ldr	r2, [r0, #0]
20004474:	0149      	lsls	r1, r1, #5
20004476:	1869      	adds	r1, r5, r1
20004478:	000e      	movs	r6, r1
2000447a:	60ca      	str	r2, [r1, #12]
2000447c:	491e      	ldr	r1, [pc, #120]	@ (200044f8 <dcd_edpt_open+0x104>)
2000447e:	18d3      	adds	r3, r2, r3
20004480:	6003      	str	r3, [r0, #0]
20004482:	428b      	cmp	r3, r1
20004484:	d82b      	bhi.n	200044de <dcd_edpt_open+0xea>
20004486:	193b      	adds	r3, r7, r4
20004488:	015b      	lsls	r3, r3, #5
2000448a:	18ed      	adds	r5, r5, r3
2000448c:	7eeb      	ldrb	r3, [r5, #27]
2000448e:	491b      	ldr	r1, [pc, #108]	@ (200044fc <dcd_edpt_open+0x108>)
20004490:	069b      	lsls	r3, r3, #26
20004492:	404a      	eors	r2, r1
20004494:	4313      	orrs	r3, r2
20004496:	2280      	movs	r2, #128	@ 0x80
20004498:	0612      	lsls	r2, r2, #24
2000449a:	4313      	orrs	r3, r2
2000449c:	686a      	ldr	r2, [r5, #4]
2000449e:	6013      	str	r3, [r2, #0]
200044a0:	2001      	movs	r0, #1
200044a2:	bcc0      	pop	{r6, r7}
200044a4:	46b9      	mov	r9, r7
200044a6:	46b0      	mov	r8, r6
200044a8:	bdf8      	pop	{r3, r4, r5, r6, r7, pc}
200044aa:	4e15      	ldr	r6, [pc, #84]	@ (20004500 <dcd_edpt_open+0x10c>)
200044ac:	1992      	adds	r2, r2, r6
200044ae:	018e      	lsls	r6, r1, #6
200044b0:	46b4      	mov	ip, r6
200044b2:	44ac      	add	ip, r5
200044b4:	4666      	mov	r6, ip
200044b6:	62b2      	str	r2, [r6, #40]	@ 0x28
200044b8:	6013      	str	r3, [r2, #0]
200044ba:	2900      	cmp	r1, #0
200044bc:	d108      	bne.n	200044d0 <dcd_edpt_open+0xdc>
200044be:	2300      	movs	r3, #0
200044c0:	0164      	lsls	r4, r4, #5
200044c2:	192c      	adds	r4, r5, r4
200044c4:	6063      	str	r3, [r4, #4]
200044c6:	4b0f      	ldr	r3, [pc, #60]	@ (20004504 <dcd_edpt_open+0x110>)
200044c8:	60e3      	str	r3, [r4, #12]
200044ca:	e7e9      	b.n	200044a0 <dcd_edpt_open+0xac>
200044cc:	2000      	movs	r0, #0
200044ce:	e7e8      	b.n	200044a2 <dcd_edpt_open+0xae>
200044d0:	4b0a      	ldr	r3, [pc, #40]	@ (200044fc <dcd_edpt_open+0x108>)
200044d2:	00c9      	lsls	r1, r1, #3
200044d4:	18c9      	adds	r1, r1, r3
200044d6:	6271      	str	r1, [r6, #36]	@ 0x24
200044d8:	e7c3      	b.n	20004462 <dcd_edpt_open+0x6e>
200044da:	01db      	lsls	r3, r3, #7
200044dc:	e7c7      	b.n	2000446e <dcd_edpt_open+0x7a>
200044de:	f7ff f9d7 	bl	20003890 <hard_assertion_failure>
200044e2:	68f2      	ldr	r2, [r6, #12]
200044e4:	e7cf      	b.n	20004486 <dcd_edpt_open+0x92>
200044e6:	46c0      	nop			@ (mov r8, r8)
200044e8:	20008aac 	.word	0x20008aac
200044ec:	50100084 	.word	0x50100084
200044f0:	50100004 	.word	0x50100004
200044f4:	20008eb0 	.word	0x20008eb0
200044f8:	50100fff 	.word	0x50100fff
200044fc:	50100000 	.word	0x50100000
20004500:	50100080 	.word	0x50100080
20004504:	50100100 	.word	0x50100100

20004508 <dcd_edpt_close_all>:
20004508:	b510      	push	{r4, lr}
2000450a:	f002 fd37 	bl	20006f7c <reset_non_control_endpoints>
2000450e:	bd10      	pop	{r4, pc}

20004510 <dcd_edpt_xfer>:
20004510:	207f      	movs	r0, #127	@ 0x7f
20004512:	b510      	push	{r4, lr}
20004514:	4008      	ands	r0, r1
20004516:	0040      	lsls	r0, r0, #1
20004518:	09c9      	lsrs	r1, r1, #7
2000451a:	1840      	adds	r0, r0, r1
2000451c:	0011      	movs	r1, r2
2000451e:	4a04      	ldr	r2, [pc, #16]	@ (20004530 <dcd_edpt_xfer+0x20>)
20004520:	0140      	lsls	r0, r0, #5
20004522:	1880      	adds	r0, r0, r2
20004524:	001a      	movs	r2, r3
20004526:	f000 f85b 	bl	200045e0 <hw_endpoint_xfer_start>
2000452a:	2001      	movs	r0, #1
2000452c:	bd10      	pop	{r4, pc}
2000452e:	46c0      	nop			@ (mov r8, r8)
20004530:	20008aac 	.word	0x20008aac

20004534 <dcd_edpt_stall>:
20004534:	237f      	movs	r3, #127	@ 0x7f
20004536:	0018      	movs	r0, r3
20004538:	b500      	push	{lr}
2000453a:	4008      	ands	r0, r1
2000453c:	b083      	sub	sp, #12
2000453e:	420b      	tst	r3, r1
20004540:	d104      	bne.n	2000454c <dcd_edpt_stall+0x18>
20004542:	424b      	negs	r3, r1
20004544:	414b      	adcs	r3, r1
20004546:	4a08      	ldr	r2, [pc, #32]	@ (20004568 <dcd_edpt_stall+0x34>)
20004548:	3301      	adds	r3, #1
2000454a:	6693      	str	r3, [r2, #104]	@ 0x68
2000454c:	2280      	movs	r2, #128	@ 0x80
2000454e:	09c9      	lsrs	r1, r1, #7
20004550:	0040      	lsls	r0, r0, #1
20004552:	4b06      	ldr	r3, [pc, #24]	@ (2000456c <dcd_edpt_stall+0x38>)
20004554:	1840      	adds	r0, r0, r1
20004556:	0140      	lsls	r0, r0, #5
20004558:	2100      	movs	r1, #0
2000455a:	18c0      	adds	r0, r0, r3
2000455c:	0112      	lsls	r2, r2, #4
2000455e:	f003 f91b 	bl	20007798 <_hw_endpoint_buffer_control_update32>
20004562:	b003      	add	sp, #12
20004564:	bd00      	pop	{pc}
20004566:	46c0      	nop			@ (mov r8, r8)
20004568:	50112000 	.word	0x50112000
2000456c:	20008aac 	.word	0x20008aac

20004570 <dcd_edpt_clear_stall>:
20004570:	227f      	movs	r2, #127	@ 0x7f
20004572:	0013      	movs	r3, r2
20004574:	b510      	push	{r4, lr}
20004576:	400b      	ands	r3, r1
20004578:	420a      	tst	r2, r1
2000457a:	d100      	bne.n	2000457e <dcd_edpt_clear_stall+0xe>
2000457c:	bd10      	pop	{r4, pc}
2000457e:	09c9      	lsrs	r1, r1, #7
20004580:	005b      	lsls	r3, r3, #1
20004582:	185b      	adds	r3, r3, r1
20004584:	4804      	ldr	r0, [pc, #16]	@ (20004598 <dcd_edpt_clear_stall+0x28>)
20004586:	015b      	lsls	r3, r3, #5
20004588:	18c0      	adds	r0, r0, r3
2000458a:	2300      	movs	r3, #0
2000458c:	2200      	movs	r2, #0
2000458e:	4903      	ldr	r1, [pc, #12]	@ (2000459c <dcd_edpt_clear_stall+0x2c>)
20004590:	70c3      	strb	r3, [r0, #3]
20004592:	f003 f901 	bl	20007798 <_hw_endpoint_buffer_control_update32>
20004596:	e7f1      	b.n	2000457c <dcd_edpt_clear_stall+0xc>
20004598:	20008aac 	.word	0x20008aac
2000459c:	fffff7ff 	.word	0xfffff7ff

200045a0 <rp2040_usb_init>:
200045a0:	2280      	movs	r2, #128	@ 0x80
200045a2:	4b0a      	ldr	r3, [pc, #40]	@ (200045cc <rp2040_usb_init+0x2c>)
200045a4:	0452      	lsls	r2, r2, #17
200045a6:	b510      	push	{r4, lr}
200045a8:	601a      	str	r2, [r3, #0]
200045aa:	4b09      	ldr	r3, [pc, #36]	@ (200045d0 <rp2040_usb_init+0x30>)
200045ac:	4909      	ldr	r1, [pc, #36]	@ (200045d4 <rp2040_usb_init+0x34>)
200045ae:	601a      	str	r2, [r3, #0]
200045b0:	0010      	movs	r0, r2
200045b2:	680b      	ldr	r3, [r1, #0]
200045b4:	4398      	bics	r0, r3
200045b6:	d1fb      	bne.n	200045b0 <rp2040_usb_init+0x10>
200045b8:	2280      	movs	r2, #128	@ 0x80
200045ba:	2100      	movs	r1, #0
200045bc:	0152      	lsls	r2, r2, #5
200045be:	4806      	ldr	r0, [pc, #24]	@ (200045d8 <rp2040_usb_init+0x38>)
200045c0:	f7ff fc82 	bl	20003ec8 <__wrap_memset>
200045c4:	2209      	movs	r2, #9
200045c6:	4b05      	ldr	r3, [pc, #20]	@ (200045dc <rp2040_usb_init+0x3c>)
200045c8:	675a      	str	r2, [r3, #116]	@ 0x74
200045ca:	bd10      	pop	{r4, pc}
200045cc:	4000e000 	.word	0x4000e000
200045d0:	4000f000 	.word	0x4000f000
200045d4:	4000c008 	.word	0x4000c008
200045d8:	50100000 	.word	0x50100000
200045dc:	50110000 	.word	0x50110000

200045e0 <hw_endpoint_xfer_start>:
200045e0:	2300      	movs	r3, #0
200045e2:	b510      	push	{r4, lr}
200045e4:	82c3      	strh	r3, [r0, #22]
200045e6:	3301      	adds	r3, #1
200045e8:	8282      	strh	r2, [r0, #20]
200045ea:	7683      	strb	r3, [r0, #26]
200045ec:	6101      	str	r1, [r0, #16]
200045ee:	0004      	movs	r4, r0
200045f0:	f003 f8a0 	bl	20007734 <e15_is_bulkin_ep>
200045f4:	2800      	cmp	r0, #0
200045f6:	d004      	beq.n	20004602 <hw_endpoint_xfer_start+0x22>
200045f8:	2180      	movs	r1, #128	@ 0x80
200045fa:	2390      	movs	r3, #144	@ 0x90
200045fc:	4a07      	ldr	r2, [pc, #28]	@ (2000461c <hw_endpoint_xfer_start+0x3c>)
200045fe:	0289      	lsls	r1, r1, #10
20004600:	50d1      	str	r1, [r2, r3]
20004602:	0020      	movs	r0, r4
20004604:	f003 f8aa 	bl	2000775c <e15_is_critical_frame_period>
20004608:	2800      	cmp	r0, #0
2000460a:	d002      	beq.n	20004612 <hw_endpoint_xfer_start+0x32>
2000460c:	2301      	movs	r3, #1
2000460e:	7723      	strb	r3, [r4, #28]
20004610:	bd10      	pop	{r4, pc}
20004612:	0020      	movs	r0, r4
20004614:	f003 f8e8 	bl	200077e8 <hw_endpoint_start_next_buffer>
20004618:	e7fa      	b.n	20004610 <hw_endpoint_xfer_start+0x30>
2000461a:	46c0      	nop			@ (mov r8, r8)
2000461c:	50112000 	.word	0x50112000

20004620 <tud_vendor_control_xfer_cb>:
20004620:	2000      	movs	r0, #0
20004622:	4770      	bx	lr

20004624 <tud_event_hook_cb>:
20004624:	4770      	bx	lr
20004626:	46c0      	nop			@ (mov r8, r8)

20004628 <tud_sof_cb>:
20004628:	4770      	bx	lr
2000462a:	46c0      	nop			@ (mov r8, r8)

2000462c <tud_descriptor_bos_cb>:
2000462c:	2000      	movs	r0, #0
2000462e:	4770      	bx	lr

20004630 <tud_descriptor_device_qualifier_cb>:
20004630:	2000      	movs	r0, #0
20004632:	4770      	bx	lr

20004634 <tud_descriptor_other_speed_configuration_cb>:
20004634:	2000      	movs	r0, #0
20004636:	4770      	bx	lr

20004638 <tud_mount_cb>:
20004638:	4770      	bx	lr
2000463a:	46c0      	nop			@ (mov r8, r8)

2000463c <tud_umount_cb>:
2000463c:	4770      	bx	lr
2000463e:	46c0      	nop			@ (mov r8, r8)

20004640 <tud_suspend_cb>:
20004640:	4770      	bx	lr
20004642:	46c0      	nop			@ (mov r8, r8)

20004644 <tud_resume_cb>:
20004644:	4770      	bx	lr
20004646:	46c0      	nop			@ (mov r8, r8)

20004648 <tud_rhport_init>:
20004648:	b5f0      	push	{r4, r5, r6, r7, lr}
2000464a:	46d6      	mov	lr, sl
2000464c:	464f      	mov	r7, r9
2000464e:	4646      	mov	r6, r8
20004650:	b5c0      	push	{r6, r7, lr}
20004652:	4b2c      	ldr	r3, [pc, #176]	@ (20004704 <tud_rhport_init+0xbc>)
20004654:	4681      	mov	r9, r0
20004656:	4698      	mov	r8, r3
20004658:	781b      	ldrb	r3, [r3, #0]
2000465a:	468a      	mov	sl, r1
2000465c:	2bff      	cmp	r3, #255	@ 0xff
2000465e:	d14b      	bne.n	200046f8 <tud_rhport_init+0xb0>
20004660:	2900      	cmp	r1, #0
20004662:	d03b      	beq.n	200046dc <tud_rhport_init+0x94>
20004664:	2100      	movs	r1, #0
20004666:	2254      	movs	r2, #84	@ 0x54
20004668:	4827      	ldr	r0, [pc, #156]	@ (20004708 <tud_rhport_init+0xc0>)
2000466a:	f7ff fc2d 	bl	20003ec8 <__wrap_memset>
2000466e:	2200      	movs	r2, #0
20004670:	4c26      	ldr	r4, [pc, #152]	@ (2000470c <tud_rhport_init+0xc4>)
20004672:	4b27      	ldr	r3, [pc, #156]	@ (20004710 <tud_rhport_init+0xc8>)
20004674:	0020      	movs	r0, r4
20004676:	701a      	strb	r2, [r3, #0]
20004678:	f7fe f96a 	bl	20002950 <mutex_init>
2000467c:	4b25      	ldr	r3, [pc, #148]	@ (20004714 <tud_rhport_init+0xcc>)
2000467e:	601c      	str	r4, [r3, #0]
20004680:	4c25      	ldr	r4, [pc, #148]	@ (20004718 <tud_rhport_init+0xd0>)
20004682:	0020      	movs	r0, r4
20004684:	3c14      	subs	r4, #20
20004686:	f7fe f971 	bl	2000296c <critical_section_init>
2000468a:	0020      	movs	r0, r4
2000468c:	f001 fba6 	bl	20005ddc <tu_fifo_clear>
20004690:	4b22      	ldr	r3, [pc, #136]	@ (2000471c <tud_rhport_init+0xd4>)
20004692:	4d23      	ldr	r5, [pc, #140]	@ (20004720 <tud_rhport_init+0xd8>)
20004694:	601c      	str	r4, [r3, #0]
20004696:	4b23      	ldr	r3, [pc, #140]	@ (20004724 <tud_rhport_init+0xdc>)
20004698:	2b00      	cmp	r3, #0
2000469a:	d004      	beq.n	200046a6 <tud_rhport_init+0x5e>
2000469c:	0028      	movs	r0, r5
2000469e:	e000      	b.n	200046a2 <tud_rhport_init+0x5a>
200046a0:	bf00      	nop
200046a2:	4b21      	ldr	r3, [pc, #132]	@ (20004728 <tud_rhport_init+0xe0>)
200046a4:	6018      	str	r0, [r3, #0]
200046a6:	2400      	movs	r4, #0
200046a8:	782b      	ldrb	r3, [r5, #0]
200046aa:	4f20      	ldr	r7, [pc, #128]	@ (2000472c <tud_rhport_init+0xe4>)
200046ac:	4e1e      	ldr	r6, [pc, #120]	@ (20004728 <tud_rhport_init+0xe0>)
200046ae:	e00d      	b.n	200046cc <tud_rhport_init+0x84>
200046b0:	6833      	ldr	r3, [r6, #0]
200046b2:	0162      	lsls	r2, r4, #5
200046b4:	189b      	adds	r3, r3, r2
200046b6:	2b00      	cmp	r3, #0
200046b8:	d010      	beq.n	200046dc <tud_rhport_init+0x94>
200046ba:	685b      	ldr	r3, [r3, #4]
200046bc:	2b00      	cmp	r3, #0
200046be:	d00d      	beq.n	200046dc <tud_rhport_init+0x94>
200046c0:	4798      	blx	r3
200046c2:	3401      	adds	r4, #1
200046c4:	782b      	ldrb	r3, [r5, #0]
200046c6:	b2e4      	uxtb	r4, r4
200046c8:	42a3      	cmp	r3, r4
200046ca:	d309      	bcc.n	200046e0 <tud_rhport_init+0x98>
200046cc:	42a3      	cmp	r3, r4
200046ce:	d8ef      	bhi.n	200046b0 <tud_rhport_init+0x68>
200046d0:	1ae3      	subs	r3, r4, r3
200046d2:	015b      	lsls	r3, r3, #5
200046d4:	19db      	adds	r3, r3, r7
200046d6:	685b      	ldr	r3, [r3, #4]
200046d8:	2b00      	cmp	r3, #0
200046da:	d1f1      	bne.n	200046c0 <tud_rhport_init+0x78>
200046dc:	2000      	movs	r0, #0
200046de:	e00c      	b.n	200046fa <tud_rhport_init+0xb2>
200046e0:	4642      	mov	r2, r8
200046e2:	464b      	mov	r3, r9
200046e4:	4651      	mov	r1, sl
200046e6:	4648      	mov	r0, r9
200046e8:	7013      	strb	r3, [r2, #0]
200046ea:	f7ff fe0f 	bl	2000430c <dcd_init>
200046ee:	2800      	cmp	r0, #0
200046f0:	d0f4      	beq.n	200046dc <tud_rhport_init+0x94>
200046f2:	4648      	mov	r0, r9
200046f4:	f7ff fe52 	bl	2000439c <dcd_int_enable>
200046f8:	2001      	movs	r0, #1
200046fa:	bce0      	pop	{r5, r6, r7}
200046fc:	46ba      	mov	sl, r7
200046fe:	46b1      	mov	r9, r6
20004700:	46a8      	mov	r8, r5
20004702:	bdf0      	pop	{r4, r5, r6, r7, pc}
20004704:	20007f1c 	.word	0x20007f1c
20004708:	200087b4 	.word	0x200087b4
2000470c:	200087ac 	.word	0x200087ac
20004710:	20008ef0 	.word	0x20008ef0
20004714:	20008808 	.word	0x20008808
20004718:	20007f14 	.word	0x20007f14
2000471c:	2000880c 	.word	0x2000880c
20004720:	20008eee 	.word	0x20008eee
20004724:	00000000 	.word	0x00000000
20004728:	200086d0 	.word	0x200086d0
2000472c:	20007e2c 	.word	0x20007e2c

20004730 <tud_task_ext>:
20004730:	b5f0      	push	{r4, r5, r6, r7, lr}
20004732:	46de      	mov	lr, fp
20004734:	4657      	mov	r7, sl
20004736:	464e      	mov	r6, r9
20004738:	4645      	mov	r5, r8
2000473a:	b5e0      	push	{r5, r6, r7, lr}
2000473c:	4bc8      	ldr	r3, [pc, #800]	@ (20004a60 <tud_task_ext+0x330>)
2000473e:	b091      	sub	sp, #68	@ 0x44
20004740:	9303      	str	r3, [sp, #12]
20004742:	781b      	ldrb	r3, [r3, #0]
20004744:	2bff      	cmp	r3, #255	@ 0xff
20004746:	d100      	bne.n	2000474a <tud_task_ext+0x1a>
20004748:	e142      	b.n	200049d0 <tud_task_ext+0x2a0>
2000474a:	4bc6      	ldr	r3, [pc, #792]	@ (20004a64 <tud_task_ext+0x334>)
2000474c:	4ec6      	ldr	r6, [pc, #792]	@ (20004a68 <tud_task_ext+0x338>)
2000474e:	001f      	movs	r7, r3
20004750:	4bc6      	ldr	r3, [pc, #792]	@ (20004a6c <tud_task_ext+0x33c>)
20004752:	ac0d      	add	r4, sp, #52	@ 0x34
20004754:	9302      	str	r3, [sp, #8]
20004756:	4bc6      	ldr	r3, [pc, #792]	@ (20004a70 <tud_task_ext+0x340>)
20004758:	9301      	str	r3, [sp, #4]
2000475a:	6835      	ldr	r5, [r6, #0]
2000475c:	696a      	ldr	r2, [r5, #20]
2000475e:	f3ef 8110 	mrs	r1, PRIMASK
20004762:	b672      	cpsid	i
20004764:	6813      	ldr	r3, [r2, #0]
20004766:	2b00      	cmp	r3, #0
20004768:	d0fc      	beq.n	20004764 <tud_task_ext+0x34>
2000476a:	f3bf 8f5f 	dmb	sy
2000476e:	61a9      	str	r1, [r5, #24]
20004770:	0028      	movs	r0, r5
20004772:	0021      	movs	r1, r4
20004774:	f001 f968 	bl	20005a48 <tu_fifo_read>
20004778:	696a      	ldr	r2, [r5, #20]
2000477a:	69ab      	ldr	r3, [r5, #24]
2000477c:	f3bf 8f5f 	dmb	sy
20004780:	2100      	movs	r1, #0
20004782:	6011      	str	r1, [r2, #0]
20004784:	f383 8810 	msr	PRIMASK, r3
20004788:	2800      	cmp	r0, #0
2000478a:	d100      	bne.n	2000478e <tud_task_ext+0x5e>
2000478c:	e120      	b.n	200049d0 <tud_task_ext+0x2a0>
2000478e:	7863      	ldrb	r3, [r4, #1]
20004790:	2b08      	cmp	r3, #8
20004792:	d8e2      	bhi.n	2000475a <tud_task_ext+0x2a>
20004794:	009b      	lsls	r3, r3, #2
20004796:	58fb      	ldr	r3, [r7, r3]
20004798:	469f      	mov	pc, r3
2000479a:	6863      	ldr	r3, [r4, #4]
2000479c:	2b00      	cmp	r3, #0
2000479e:	d0dc      	beq.n	2000475a <tud_task_ext+0x2a>
200047a0:	68a0      	ldr	r0, [r4, #8]
200047a2:	4798      	blx	r3
200047a4:	e7d9      	b.n	2000475a <tud_task_ext+0x2a>
200047a6:	227f      	movs	r2, #127	@ 0x7f
200047a8:	7921      	ldrb	r1, [r4, #4]
200047aa:	4db0      	ldr	r5, [pc, #704]	@ (20004a6c <tud_task_ext+0x33c>)
200047ac:	400a      	ands	r2, r1
200047ae:	0053      	lsls	r3, r2, #1
200047b0:	18eb      	adds	r3, r5, r3
200047b2:	4698      	mov	r8, r3
200047b4:	09c8      	lsrs	r0, r1, #7
200047b6:	4480      	add	r8, r0
200047b8:	4640      	mov	r0, r8
200047ba:	2301      	movs	r3, #1
200047bc:	3030      	adds	r0, #48	@ 0x30
200047be:	7905      	ldrb	r5, [r0, #4]
200047c0:	439d      	bics	r5, r3
200047c2:	7105      	strb	r5, [r0, #4]
200047c4:	7905      	ldrb	r5, [r0, #4]
200047c6:	3303      	adds	r3, #3
200047c8:	439d      	bics	r5, r3
200047ca:	7105      	strb	r5, [r0, #4]
200047cc:	2a00      	cmp	r2, #0
200047ce:	d100      	bne.n	200047d2 <tud_task_ext+0xa2>
200047d0:	e105      	b.n	200049de <tud_task_ext+0x2ae>
200047d2:	4643      	mov	r3, r8
200047d4:	4aa7      	ldr	r2, [pc, #668]	@ (20004a74 <tud_task_ext+0x344>)
200047d6:	7d1b      	ldrb	r3, [r3, #20]
200047d8:	7812      	ldrb	r2, [r2, #0]
200047da:	4293      	cmp	r3, r2
200047dc:	d300      	bcc.n	200047e0 <tud_task_ext+0xb0>
200047de:	e0f5      	b.n	200049cc <tud_task_ext+0x29c>
200047e0:	4aa5      	ldr	r2, [pc, #660]	@ (20004a78 <tud_task_ext+0x348>)
200047e2:	015b      	lsls	r3, r3, #5
200047e4:	6815      	ldr	r5, [r2, #0]
200047e6:	18ed      	adds	r5, r5, r3
200047e8:	2d00      	cmp	r5, #0
200047ea:	d100      	bne.n	200047ee <tud_task_ext+0xbe>
200047ec:	e0f0      	b.n	200049d0 <tud_task_ext+0x2a0>
200047ee:	68a3      	ldr	r3, [r4, #8]
200047f0:	7962      	ldrb	r2, [r4, #5]
200047f2:	7820      	ldrb	r0, [r4, #0]
200047f4:	69ad      	ldr	r5, [r5, #24]
200047f6:	47a8      	blx	r5
200047f8:	e7af      	b.n	2000475a <tud_task_ext+0x2a>
200047fa:	4ba0      	ldr	r3, [pc, #640]	@ (20004a7c <tud_task_ext+0x34c>)
200047fc:	781a      	ldrb	r2, [r3, #0]
200047fe:	2a00      	cmp	r2, #0
20004800:	d100      	bne.n	20004804 <tud_task_ext+0xd4>
20004802:	e0e5      	b.n	200049d0 <tud_task_ext+0x2a0>
20004804:	781a      	ldrb	r2, [r3, #0]
20004806:	3a01      	subs	r2, #1
20004808:	701a      	strb	r2, [r3, #0]
2000480a:	781b      	ldrb	r3, [r3, #0]
2000480c:	2b00      	cmp	r3, #0
2000480e:	d1a4      	bne.n	2000475a <tud_task_ext+0x2a>
20004810:	2201      	movs	r2, #1
20004812:	4d96      	ldr	r5, [pc, #600]	@ (20004a6c <tud_task_ext+0x33c>)
20004814:	2101      	movs	r1, #1
20004816:	782b      	ldrb	r3, [r5, #0]
20004818:	2004      	movs	r0, #4
2000481a:	4313      	orrs	r3, r2
2000481c:	702b      	strb	r3, [r5, #0]
2000481e:	2334      	movs	r3, #52	@ 0x34
20004820:	5cea      	ldrb	r2, [r5, r3]
20004822:	438a      	bics	r2, r1
20004824:	54ea      	strb	r2, [r5, r3]
20004826:	5cea      	ldrb	r2, [r5, r3]
20004828:	4382      	bics	r2, r0
2000482a:	54ea      	strb	r2, [r5, r3]
2000482c:	3301      	adds	r3, #1
2000482e:	5cea      	ldrb	r2, [r5, r3]
20004830:	438a      	bics	r2, r1
20004832:	54ea      	strb	r2, [r5, r3]
20004834:	5cea      	ldrb	r2, [r5, r3]
20004836:	4382      	bics	r2, r0
20004838:	54ea      	strb	r2, [r5, r3]
2000483a:	7823      	ldrb	r3, [r4, #0]
2000483c:	2000      	movs	r0, #0
2000483e:	469b      	mov	fp, r3
20004840:	f000 fc3c 	bl	200050bc <usbd_control_set_complete_callback>
20004844:	2260      	movs	r2, #96	@ 0x60
20004846:	7923      	ldrb	r3, [r4, #4]
20004848:	401a      	ands	r2, r3
2000484a:	2a60      	cmp	r2, #96	@ 0x60
2000484c:	d100      	bne.n	20004850 <tud_task_ext+0x120>
2000484e:	e0f1      	b.n	20004a34 <tud_task_ext+0x304>
20004850:	2a40      	cmp	r2, #64	@ 0x40
20004852:	d100      	bne.n	20004856 <tud_task_ext+0x126>
20004854:	e0f7      	b.n	20004a46 <tud_task_ext+0x316>
20004856:	06db      	lsls	r3, r3, #27
20004858:	0edb      	lsrs	r3, r3, #27
2000485a:	2b01      	cmp	r3, #1
2000485c:	d100      	bne.n	20004860 <tud_task_ext+0x130>
2000485e:	e115      	b.n	20004a8c <tud_task_ext+0x35c>
20004860:	2b02      	cmp	r3, #2
20004862:	d100      	bne.n	20004866 <tud_task_ext+0x136>
20004864:	e0ca      	b.n	200049fc <tud_task_ext+0x2cc>
20004866:	2b00      	cmp	r3, #0
20004868:	d000      	beq.n	2000486c <tud_task_ext+0x13c>
2000486a:	e0e3      	b.n	20004a34 <tud_task_ext+0x304>
2000486c:	2a20      	cmp	r2, #32
2000486e:	d100      	bne.n	20004872 <tud_task_ext+0x142>
20004870:	e211      	b.n	20004c96 <tud_task_ext+0x566>
20004872:	2a00      	cmp	r2, #0
20004874:	d000      	beq.n	20004878 <tud_task_ext+0x148>
20004876:	e0dd      	b.n	20004a34 <tud_task_ext+0x304>
20004878:	7963      	ldrb	r3, [r4, #5]
2000487a:	2b09      	cmp	r3, #9
2000487c:	d900      	bls.n	20004880 <tud_task_ext+0x150>
2000487e:	e0d9      	b.n	20004a34 <tud_task_ext+0x304>
20004880:	4a7f      	ldr	r2, [pc, #508]	@ (20004a80 <tud_task_ext+0x350>)
20004882:	009b      	lsls	r3, r3, #2
20004884:	58d3      	ldr	r3, [r2, r3]
20004886:	469f      	mov	pc, r3
20004888:	4d78      	ldr	r5, [pc, #480]	@ (20004a6c <tud_task_ext+0x33c>)
2000488a:	782b      	ldrb	r3, [r5, #0]
2000488c:	07db      	lsls	r3, r3, #31
2000488e:	d400      	bmi.n	20004892 <tud_task_ext+0x162>
20004890:	e763      	b.n	2000475a <tud_task_ext+0x2a>
20004892:	f7ff fed7 	bl	20004644 <tud_resume_cb>
20004896:	e760      	b.n	2000475a <tud_task_ext+0x2a>
20004898:	9b02      	ldr	r3, [sp, #8]
2000489a:	78db      	ldrb	r3, [r3, #3]
2000489c:	07db      	lsls	r3, r3, #31
2000489e:	d400      	bmi.n	200048a2 <tud_task_ext+0x172>
200048a0:	e75b      	b.n	2000475a <tud_task_ext+0x2a>
200048a2:	6860      	ldr	r0, [r4, #4]
200048a4:	f7ff fec0 	bl	20004628 <tud_sof_cb>
200048a8:	e757      	b.n	2000475a <tud_task_ext+0x2a>
200048aa:	4d70      	ldr	r5, [pc, #448]	@ (20004a6c <tud_task_ext+0x33c>)
200048ac:	782b      	ldrb	r3, [r5, #0]
200048ae:	07db      	lsls	r3, r3, #31
200048b0:	d400      	bmi.n	200048b4 <tud_task_ext+0x184>
200048b2:	e752      	b.n	2000475a <tud_task_ext+0x2a>
200048b4:	7828      	ldrb	r0, [r5, #0]
200048b6:	0700      	lsls	r0, r0, #28
200048b8:	0fc0      	lsrs	r0, r0, #31
200048ba:	f7ff fec1 	bl	20004640 <tud_suspend_cb>
200048be:	e74c      	b.n	2000475a <tud_task_ext+0x2a>
200048c0:	7823      	ldrb	r3, [r4, #0]
200048c2:	4a6b      	ldr	r2, [pc, #428]	@ (20004a70 <tud_task_ext+0x340>)
200048c4:	4699      	mov	r9, r3
200048c6:	4693      	mov	fp, r2
200048c8:	4b6a      	ldr	r3, [pc, #424]	@ (20004a74 <tud_task_ext+0x344>)
200048ca:	4a6b      	ldr	r2, [pc, #428]	@ (20004a78 <tud_task_ext+0x348>)
200048cc:	4698      	mov	r8, r3
200048ce:	4692      	mov	sl, r2
200048d0:	003a      	movs	r2, r7
200048d2:	2500      	movs	r5, #0
200048d4:	4647      	mov	r7, r8
200048d6:	781b      	ldrb	r3, [r3, #0]
200048d8:	46b0      	mov	r8, r6
200048da:	464e      	mov	r6, r9
200048dc:	4691      	mov	r9, r2
200048de:	e00e      	b.n	200048fe <tud_task_ext+0x1ce>
200048e0:	4653      	mov	r3, sl
200048e2:	681b      	ldr	r3, [r3, #0]
200048e4:	016a      	lsls	r2, r5, #5
200048e6:	189b      	adds	r3, r3, r2
200048e8:	2b00      	cmp	r3, #0
200048ea:	d100      	bne.n	200048ee <tud_task_ext+0x1be>
200048ec:	e07d      	b.n	200049ea <tud_task_ext+0x2ba>
200048ee:	68db      	ldr	r3, [r3, #12]
200048f0:	0030      	movs	r0, r6
200048f2:	4798      	blx	r3
200048f4:	3501      	adds	r5, #1
200048f6:	783b      	ldrb	r3, [r7, #0]
200048f8:	b2ed      	uxtb	r5, r5
200048fa:	42ab      	cmp	r3, r5
200048fc:	d30c      	bcc.n	20004918 <tud_task_ext+0x1e8>
200048fe:	42ab      	cmp	r3, r5
20004900:	d8ee      	bhi.n	200048e0 <tud_task_ext+0x1b0>
20004902:	1aeb      	subs	r3, r5, r3
20004904:	015b      	lsls	r3, r3, #5
20004906:	445b      	add	r3, fp
20004908:	68db      	ldr	r3, [r3, #12]
2000490a:	0030      	movs	r0, r6
2000490c:	4798      	blx	r3
2000490e:	3501      	adds	r5, #1
20004910:	783b      	ldrb	r3, [r7, #0]
20004912:	b2ed      	uxtb	r5, r5
20004914:	42ab      	cmp	r3, r5
20004916:	d2f2      	bcs.n	200048fe <tud_task_ext+0x1ce>
20004918:	4d54      	ldr	r5, [pc, #336]	@ (20004a6c <tud_task_ext+0x33c>)
2000491a:	2254      	movs	r2, #84	@ 0x54
2000491c:	2100      	movs	r1, #0
2000491e:	0028      	movs	r0, r5
20004920:	f7ff fad2 	bl	20003ec8 <__wrap_memset>
20004924:	2210      	movs	r2, #16
20004926:	21ff      	movs	r1, #255	@ 0xff
20004928:	1d28      	adds	r0, r5, #4
2000492a:	f7ff facd 	bl	20003ec8 <__wrap_memset>
2000492e:	0028      	movs	r0, r5
20004930:	2220      	movs	r2, #32
20004932:	21ff      	movs	r1, #255	@ 0xff
20004934:	3014      	adds	r0, #20
20004936:	4646      	mov	r6, r8
20004938:	464f      	mov	r7, r9
2000493a:	f7ff fac5 	bl	20003ec8 <__wrap_memset>
2000493e:	f000 fbb3 	bl	200050a8 <usbd_control_reset>
20004942:	7923      	ldrb	r3, [r4, #4]
20004944:	70ab      	strb	r3, [r5, #2]
20004946:	e708      	b.n	2000475a <tud_task_ext+0x2a>
20004948:	7823      	ldrb	r3, [r4, #0]
2000494a:	4a4b      	ldr	r2, [pc, #300]	@ (20004a78 <tud_task_ext+0x348>)
2000494c:	4699      	mov	r9, r3
2000494e:	4b49      	ldr	r3, [pc, #292]	@ (20004a74 <tud_task_ext+0x344>)
20004950:	4692      	mov	sl, r2
20004952:	4698      	mov	r8, r3
20004954:	0032      	movs	r2, r6
20004956:	46bb      	mov	fp, r7
20004958:	464e      	mov	r6, r9
2000495a:	2500      	movs	r5, #0
2000495c:	4647      	mov	r7, r8
2000495e:	4691      	mov	r9, r2
20004960:	781b      	ldrb	r3, [r3, #0]
20004962:	e00d      	b.n	20004980 <tud_task_ext+0x250>
20004964:	4653      	mov	r3, sl
20004966:	681b      	ldr	r3, [r3, #0]
20004968:	016a      	lsls	r2, r5, #5
2000496a:	189b      	adds	r3, r3, r2
2000496c:	2b00      	cmp	r3, #0
2000496e:	d040      	beq.n	200049f2 <tud_task_ext+0x2c2>
20004970:	68db      	ldr	r3, [r3, #12]
20004972:	0030      	movs	r0, r6
20004974:	4798      	blx	r3
20004976:	3501      	adds	r5, #1
20004978:	783b      	ldrb	r3, [r7, #0]
2000497a:	b2ed      	uxtb	r5, r5
2000497c:	42ab      	cmp	r3, r5
2000497e:	d30d      	bcc.n	2000499c <tud_task_ext+0x26c>
20004980:	429d      	cmp	r5, r3
20004982:	d3ef      	bcc.n	20004964 <tud_task_ext+0x234>
20004984:	9a01      	ldr	r2, [sp, #4]
20004986:	1aeb      	subs	r3, r5, r3
20004988:	015b      	lsls	r3, r3, #5
2000498a:	18d3      	adds	r3, r2, r3
2000498c:	68db      	ldr	r3, [r3, #12]
2000498e:	0030      	movs	r0, r6
20004990:	4798      	blx	r3
20004992:	3501      	adds	r5, #1
20004994:	783b      	ldrb	r3, [r7, #0]
20004996:	b2ed      	uxtb	r5, r5
20004998:	42ab      	cmp	r3, r5
2000499a:	d2f1      	bcs.n	20004980 <tud_task_ext+0x250>
2000499c:	9d02      	ldr	r5, [sp, #8]
2000499e:	2254      	movs	r2, #84	@ 0x54
200049a0:	2100      	movs	r1, #0
200049a2:	0028      	movs	r0, r5
200049a4:	f7ff fa90 	bl	20003ec8 <__wrap_memset>
200049a8:	2210      	movs	r2, #16
200049aa:	21ff      	movs	r1, #255	@ 0xff
200049ac:	4835      	ldr	r0, [pc, #212]	@ (20004a84 <tud_task_ext+0x354>)
200049ae:	f7ff fa8b 	bl	20003ec8 <__wrap_memset>
200049b2:	0028      	movs	r0, r5
200049b4:	2220      	movs	r2, #32
200049b6:	21ff      	movs	r1, #255	@ 0xff
200049b8:	3014      	adds	r0, #20
200049ba:	464e      	mov	r6, r9
200049bc:	465f      	mov	r7, fp
200049be:	f7ff fa83 	bl	20003ec8 <__wrap_memset>
200049c2:	f000 fb71 	bl	200050a8 <usbd_control_reset>
200049c6:	f7ff fe39 	bl	2000463c <tud_umount_cb>
200049ca:	e6c6      	b.n	2000475a <tud_task_ext+0x2a>
200049cc:	4293      	cmp	r3, r2
200049ce:	d013      	beq.n	200049f8 <tud_task_ext+0x2c8>
200049d0:	b011      	add	sp, #68	@ 0x44
200049d2:	bcf0      	pop	{r4, r5, r6, r7}
200049d4:	46bb      	mov	fp, r7
200049d6:	46b2      	mov	sl, r6
200049d8:	46a9      	mov	r9, r5
200049da:	46a0      	mov	r8, r4
200049dc:	bdf0      	pop	{r4, r5, r6, r7, pc}
200049de:	68a3      	ldr	r3, [r4, #8]
200049e0:	7962      	ldrb	r2, [r4, #5]
200049e2:	7820      	ldrb	r0, [r4, #0]
200049e4:	f000 fb7e 	bl	200050e4 <usbd_control_xfer_cb>
200049e8:	e6b7      	b.n	2000475a <tud_task_ext+0x2a>
200049ea:	4646      	mov	r6, r8
200049ec:	464f      	mov	r7, r9
200049ee:	4d1f      	ldr	r5, [pc, #124]	@ (20004a6c <tud_task_ext+0x33c>)
200049f0:	e7a5      	b.n	2000493e <tud_task_ext+0x20e>
200049f2:	464e      	mov	r6, r9
200049f4:	465f      	mov	r7, fp
200049f6:	e7e4      	b.n	200049c2 <tud_task_ext+0x292>
200049f8:	4d1d      	ldr	r5, [pc, #116]	@ (20004a70 <tud_task_ext+0x340>)
200049fa:	e6f8      	b.n	200047ee <tud_task_ext+0xbe>
200049fc:	2370      	movs	r3, #112	@ 0x70
200049fe:	7a21      	ldrb	r1, [r4, #8]
20004a00:	420b      	tst	r3, r1
20004a02:	d117      	bne.n	20004a34 <tud_task_ext+0x304>
20004a04:	09c8      	lsrs	r0, r1, #7
20004a06:	4682      	mov	sl, r0
20004a08:	330f      	adds	r3, #15
20004a0a:	400b      	ands	r3, r1
20004a0c:	005b      	lsls	r3, r3, #1
20004a0e:	4698      	mov	r8, r3
20004a10:	4818      	ldr	r0, [pc, #96]	@ (20004a74 <tud_task_ext+0x344>)
20004a12:	18eb      	adds	r3, r5, r3
20004a14:	4453      	add	r3, sl
20004a16:	7d1b      	ldrb	r3, [r3, #20]
20004a18:	7800      	ldrb	r0, [r0, #0]
20004a1a:	4283      	cmp	r3, r0
20004a1c:	d264      	bcs.n	20004ae8 <tud_task_ext+0x3b8>
20004a1e:	4816      	ldr	r0, [pc, #88]	@ (20004a78 <tud_task_ext+0x348>)
20004a20:	015b      	lsls	r3, r3, #5
20004a22:	6800      	ldr	r0, [r0, #0]
20004a24:	4681      	mov	r9, r0
20004a26:	4499      	add	r9, r3
20004a28:	2a00      	cmp	r2, #0
20004a2a:	d100      	bne.n	20004a2e <tud_task_ext+0x2fe>
20004a2c:	e155      	b.n	20004cda <tud_task_ext+0x5aa>
20004a2e:	464b      	mov	r3, r9
20004a30:	2b00      	cmp	r3, #0
20004a32:	d161      	bne.n	20004af8 <tud_task_ext+0x3c8>
20004a34:	7820      	ldrb	r0, [r4, #0]
20004a36:	2100      	movs	r1, #0
20004a38:	f7ff fd7c 	bl	20004534 <dcd_edpt_stall>
20004a3c:	2180      	movs	r1, #128	@ 0x80
20004a3e:	7820      	ldrb	r0, [r4, #0]
20004a40:	f7ff fd78 	bl	20004534 <dcd_edpt_stall>
20004a44:	e689      	b.n	2000475a <tud_task_ext+0x2a>
20004a46:	4810      	ldr	r0, [pc, #64]	@ (20004a88 <tud_task_ext+0x358>)
20004a48:	f000 fb38 	bl	200050bc <usbd_control_set_complete_callback>
20004a4c:	2101      	movs	r1, #1
20004a4e:	4658      	mov	r0, fp
20004a50:	aa0e      	add	r2, sp, #56	@ 0x38
20004a52:	f7ff fde5 	bl	20004620 <tud_vendor_control_xfer_cb>
20004a56:	2800      	cmp	r0, #0
20004a58:	d000      	beq.n	20004a5c <tud_task_ext+0x32c>
20004a5a:	e67e      	b.n	2000475a <tud_task_ext+0x2a>
20004a5c:	e7ea      	b.n	20004a34 <tud_task_ext+0x304>
20004a5e:	46c0      	nop			@ (mov r8, r8)
20004a60:	20007f1c 	.word	0x20007f1c
20004a64:	20007d84 	.word	0x20007d84
20004a68:	2000880c 	.word	0x2000880c
20004a6c:	200087b4 	.word	0x200087b4
20004a70:	20007e2c 	.word	0x20007e2c
20004a74:	20008eee 	.word	0x20008eee
20004a78:	200086d0 	.word	0x200086d0
20004a7c:	20008ef0 	.word	0x20008ef0
20004a80:	20007da8 	.word	0x20007da8
20004a84:	200087b8 	.word	0x200087b8
20004a88:	20004621 	.word	0x20004621
20004a8c:	7a23      	ldrb	r3, [r4, #8]
20004a8e:	8922      	ldrh	r2, [r4, #8]
20004a90:	2b0f      	cmp	r3, #15
20004a92:	d8cf      	bhi.n	20004a34 <tud_task_ext+0x304>
20004a94:	23ff      	movs	r3, #255	@ 0xff
20004a96:	4013      	ands	r3, r2
20004a98:	4ad1      	ldr	r2, [pc, #836]	@ (20004de0 <tud_task_ext+0x6b0>)
20004a9a:	18eb      	adds	r3, r5, r3
20004a9c:	791b      	ldrb	r3, [r3, #4]
20004a9e:	7812      	ldrb	r2, [r2, #0]
20004aa0:	4293      	cmp	r3, r2
20004aa2:	d334      	bcc.n	20004b0e <tud_task_ext+0x3de>
20004aa4:	d1c6      	bne.n	20004a34 <tud_task_ext+0x304>
20004aa6:	4dcf      	ldr	r5, [pc, #828]	@ (20004de4 <tud_task_ext+0x6b4>)
20004aa8:	6968      	ldr	r0, [r5, #20]
20004aaa:	f000 fb07 	bl	200050bc <usbd_control_set_complete_callback>
20004aae:	2101      	movs	r1, #1
20004ab0:	4658      	mov	r0, fp
20004ab2:	696b      	ldr	r3, [r5, #20]
20004ab4:	aa0e      	add	r2, sp, #56	@ 0x38
20004ab6:	4798      	blx	r3
20004ab8:	2800      	cmp	r0, #0
20004aba:	d000      	beq.n	20004abe <tud_task_ext+0x38e>
20004abc:	e64d      	b.n	2000475a <tud_task_ext+0x2a>
20004abe:	2260      	movs	r2, #96	@ 0x60
20004ac0:	0015      	movs	r5, r2
20004ac2:	7923      	ldrb	r3, [r4, #4]
20004ac4:	401d      	ands	r5, r3
20004ac6:	421a      	tst	r2, r3
20004ac8:	d1b4      	bne.n	20004a34 <tud_task_ext+0x304>
20004aca:	7963      	ldrb	r3, [r4, #5]
20004acc:	3b0a      	subs	r3, #10
20004ace:	2b01      	cmp	r3, #1
20004ad0:	d8b0      	bhi.n	20004a34 <tud_task_ext+0x304>
20004ad2:	f000 faf3 	bl	200050bc <usbd_control_set_complete_callback>
20004ad6:	7963      	ldrb	r3, [r4, #5]
20004ad8:	2b0a      	cmp	r3, #10
20004ada:	d100      	bne.n	20004ade <tud_task_ext+0x3ae>
20004adc:	e18a      	b.n	20004df4 <tud_task_ext+0x6c4>
20004ade:	4658      	mov	r0, fp
20004ae0:	a90e      	add	r1, sp, #56	@ 0x38
20004ae2:	f000 fa7b 	bl	20004fdc <tud_control_status>
20004ae6:	e638      	b.n	2000475a <tud_task_ext+0x2a>
20004ae8:	4283      	cmp	r3, r0
20004aea:	d000      	beq.n	20004aee <tud_task_ext+0x3be>
20004aec:	e0f0      	b.n	20004cd0 <tud_task_ext+0x5a0>
20004aee:	4bbd      	ldr	r3, [pc, #756]	@ (20004de4 <tud_task_ext+0x6b4>)
20004af0:	4699      	mov	r9, r3
20004af2:	2a00      	cmp	r2, #0
20004af4:	d100      	bne.n	20004af8 <tud_task_ext+0x3c8>
20004af6:	e0f0      	b.n	20004cda <tud_task_ext+0x5aa>
20004af8:	464b      	mov	r3, r9
20004afa:	6958      	ldr	r0, [r3, #20]
20004afc:	f000 fade 	bl	200050bc <usbd_control_set_complete_callback>
20004b00:	464b      	mov	r3, r9
20004b02:	2101      	movs	r1, #1
20004b04:	4658      	mov	r0, fp
20004b06:	695b      	ldr	r3, [r3, #20]
20004b08:	aa0e      	add	r2, sp, #56	@ 0x38
20004b0a:	4798      	blx	r3
20004b0c:	e7a3      	b.n	20004a56 <tud_task_ext+0x326>
20004b0e:	4ab6      	ldr	r2, [pc, #728]	@ (20004de8 <tud_task_ext+0x6b8>)
20004b10:	015b      	lsls	r3, r3, #5
20004b12:	6815      	ldr	r5, [r2, #0]
20004b14:	18ed      	adds	r5, r5, r3
20004b16:	2d00      	cmp	r5, #0
20004b18:	d1c6      	bne.n	20004aa8 <tud_task_ext+0x378>
20004b1a:	e78b      	b.n	20004a34 <tud_task_ext+0x304>
20004b1c:	79a3      	ldrb	r3, [r4, #6]
20004b1e:	4699      	mov	r9, r3
20004b20:	786b      	ldrb	r3, [r5, #1]
20004b22:	4599      	cmp	r9, r3
20004b24:	d0db      	beq.n	20004ade <tud_task_ext+0x3ae>
20004b26:	786b      	ldrb	r3, [r5, #1]
20004b28:	2b00      	cmp	r3, #0
20004b2a:	d000      	beq.n	20004b2e <tud_task_ext+0x3fe>
20004b2c:	e12c      	b.n	20004d88 <tud_task_ext+0x658>
20004b2e:	464b      	mov	r3, r9
20004b30:	706b      	strb	r3, [r5, #1]
20004b32:	2b00      	cmp	r3, #0
20004b34:	d100      	bne.n	20004b38 <tud_task_ext+0x408>
20004b36:	e124      	b.n	20004d82 <tud_task_ext+0x652>
20004b38:	4648      	mov	r0, r9
20004b3a:	3801      	subs	r0, #1
20004b3c:	b2c0      	uxtb	r0, r0
20004b3e:	f7fd fadf 	bl	20002100 <tud_descriptor_configuration_cb>
20004b42:	2800      	cmp	r0, #0
20004b44:	d100      	bne.n	20004b48 <tud_task_ext+0x418>
20004b46:	e174      	b.n	20004e32 <tud_task_ext+0x702>
20004b48:	7843      	ldrb	r3, [r0, #1]
20004b4a:	9307      	str	r3, [sp, #28]
20004b4c:	2b02      	cmp	r3, #2
20004b4e:	d000      	beq.n	20004b52 <tud_task_ext+0x422>
20004b50:	e16f      	b.n	20004e32 <tud_task_ext+0x702>
20004b52:	2201      	movs	r2, #1
20004b54:	79c1      	ldrb	r1, [r0, #7]
20004b56:	46b1      	mov	r9, r6
20004b58:	118b      	asrs	r3, r1, #6
20004b5a:	1149      	asrs	r1, r1, #5
20004b5c:	4013      	ands	r3, r2
20004b5e:	400a      	ands	r2, r1
20004b60:	2130      	movs	r1, #48	@ 0x30
20004b62:	0112      	lsls	r2, r2, #4
20004b64:	015b      	lsls	r3, r3, #5
20004b66:	4313      	orrs	r3, r2
20004b68:	782a      	ldrb	r2, [r5, #0]
20004b6a:	46a8      	mov	r8, r5
20004b6c:	438a      	bics	r2, r1
20004b6e:	4313      	orrs	r3, r2
20004b70:	702b      	strb	r3, [r5, #0]
20004b72:	2309      	movs	r3, #9
20004b74:	469a      	mov	sl, r3
20004b76:	4482      	add	sl, r0
20004b78:	4656      	mov	r6, sl
20004b7a:	46ba      	mov	sl, r7
20004b7c:	78c3      	ldrb	r3, [r0, #3]
20004b7e:	7882      	ldrb	r2, [r0, #2]
20004b80:	021b      	lsls	r3, r3, #8
20004b82:	4313      	orrs	r3, r2
20004b84:	18c3      	adds	r3, r0, r3
20004b86:	9305      	str	r3, [sp, #20]
20004b88:	4b95      	ldr	r3, [pc, #596]	@ (20004de0 <tud_task_ext+0x6b0>)
20004b8a:	9304      	str	r3, [sp, #16]
20004b8c:	4b95      	ldr	r3, [pc, #596]	@ (20004de4 <tud_task_ext+0x6b4>)
20004b8e:	9308      	str	r3, [sp, #32]
20004b90:	4b95      	ldr	r3, [pc, #596]	@ (20004de8 <tud_task_ext+0x6b8>)
20004b92:	9309      	str	r3, [sp, #36]	@ 0x24
20004b94:	4b95      	ldr	r3, [pc, #596]	@ (20004dec <tud_task_ext+0x6bc>)
20004b96:	930a      	str	r3, [sp, #40]	@ 0x28
20004b98:	9b05      	ldr	r3, [sp, #20]
20004b9a:	42b3      	cmp	r3, r6
20004b9c:	d800      	bhi.n	20004ba0 <tud_task_ext+0x470>
20004b9e:	e14b      	b.n	20004e38 <tud_task_ext+0x708>
20004ba0:	7873      	ldrb	r3, [r6, #1]
20004ba2:	2201      	movs	r2, #1
20004ba4:	2b0b      	cmp	r3, #11
20004ba6:	d103      	bne.n	20004bb0 <tud_task_ext+0x480>
20004ba8:	7833      	ldrb	r3, [r6, #0]
20004baa:	78f2      	ldrb	r2, [r6, #3]
20004bac:	18f6      	adds	r6, r6, r3
20004bae:	7873      	ldrb	r3, [r6, #1]
20004bb0:	2b04      	cmp	r3, #4
20004bb2:	d000      	beq.n	20004bb6 <tud_task_ext+0x486>
20004bb4:	e13a      	b.n	20004e2c <tud_task_ext+0x6fc>
20004bb6:	9b05      	ldr	r3, [sp, #20]
20004bb8:	2700      	movs	r7, #0
20004bba:	1b9b      	subs	r3, r3, r6
20004bbc:	b29b      	uxth	r3, r3
20004bbe:	9306      	str	r3, [sp, #24]
20004bc0:	9b04      	ldr	r3, [sp, #16]
20004bc2:	920b      	str	r2, [sp, #44]	@ 0x2c
20004bc4:	781d      	ldrb	r5, [r3, #0]
20004bc6:	e019      	b.n	20004bfc <tud_task_ext+0x4cc>
20004bc8:	9a09      	ldr	r2, [sp, #36]	@ 0x24
20004bca:	017b      	lsls	r3, r7, #5
20004bcc:	6815      	ldr	r5, [r2, #0]
20004bce:	18ed      	adds	r5, r5, r3
20004bd0:	2d00      	cmp	r5, #0
20004bd2:	d100      	bne.n	20004bd6 <tud_task_ext+0x4a6>
20004bd4:	e12a      	b.n	20004e2c <tud_task_ext+0x6fc>
20004bd6:	0031      	movs	r1, r6
20004bd8:	4658      	mov	r0, fp
20004bda:	692b      	ldr	r3, [r5, #16]
20004bdc:	9a06      	ldr	r2, [sp, #24]
20004bde:	4798      	blx	r3
20004be0:	4684      	mov	ip, r0
20004be2:	2808      	cmp	r0, #8
20004be4:	d903      	bls.n	20004bee <tud_task_ext+0x4be>
20004be6:	9a06      	ldr	r2, [sp, #24]
20004be8:	4282      	cmp	r2, r0
20004bea:	d300      	bcc.n	20004bee <tud_task_ext+0x4be>
20004bec:	e10b      	b.n	20004e06 <tud_task_ext+0x6d6>
20004bee:	9b04      	ldr	r3, [sp, #16]
20004bf0:	3701      	adds	r7, #1
20004bf2:	781d      	ldrb	r5, [r3, #0]
20004bf4:	b2ff      	uxtb	r7, r7
20004bf6:	42bd      	cmp	r5, r7
20004bf8:	d200      	bcs.n	20004bfc <tud_task_ext+0x4cc>
20004bfa:	e117      	b.n	20004e2c <tud_task_ext+0x6fc>
20004bfc:	42bd      	cmp	r5, r7
20004bfe:	d8e3      	bhi.n	20004bc8 <tud_task_ext+0x498>
20004c00:	9b08      	ldr	r3, [sp, #32]
20004c02:	1b7d      	subs	r5, r7, r5
20004c04:	016d      	lsls	r5, r5, #5
20004c06:	195d      	adds	r5, r3, r5
20004c08:	e7e5      	b.n	20004bd6 <tud_task_ext+0x4a6>
20004c0a:	786b      	ldrb	r3, [r5, #1]
20004c0c:	aa0c      	add	r2, sp, #48	@ 0x30
20004c0e:	3202      	adds	r2, #2
20004c10:	7013      	strb	r3, [r2, #0]
20004c12:	4658      	mov	r0, fp
20004c14:	2301      	movs	r3, #1
20004c16:	a90e      	add	r1, sp, #56	@ 0x38
20004c18:	f000 f9f6 	bl	20005008 <tud_control_xfer>
20004c1c:	e59d      	b.n	2000475a <tud_task_ext+0x2a>
20004c1e:	88e0      	ldrh	r0, [r4, #6]
20004c20:	0a03      	lsrs	r3, r0, #8
20004c22:	b2c0      	uxtb	r0, r0
20004c24:	2b0f      	cmp	r3, #15
20004c26:	d900      	bls.n	20004c2a <tud_task_ext+0x4fa>
20004c28:	e704      	b.n	20004a34 <tud_task_ext+0x304>
20004c2a:	4971      	ldr	r1, [pc, #452]	@ (20004df0 <tud_task_ext+0x6c0>)
20004c2c:	009a      	lsls	r2, r3, #2
20004c2e:	588a      	ldr	r2, [r1, r2]
20004c30:	4697      	mov	pc, r2
20004c32:	a80e      	add	r0, sp, #56	@ 0x38
20004c34:	f000 fa48 	bl	200050c8 <usbd_control_set_request>
20004c38:	4658      	mov	r0, fp
20004c3a:	79a1      	ldrb	r1, [r4, #6]
20004c3c:	f7ff fbb4 	bl	200043a8 <dcd_set_address>
20004c40:	2202      	movs	r2, #2
20004c42:	782b      	ldrb	r3, [r5, #0]
20004c44:	4313      	orrs	r3, r2
20004c46:	702b      	strb	r3, [r5, #0]
20004c48:	e587      	b.n	2000475a <tud_task_ext+0x2a>
20004c4a:	88e3      	ldrh	r3, [r4, #6]
20004c4c:	2b01      	cmp	r3, #1
20004c4e:	d000      	beq.n	20004c52 <tud_task_ext+0x522>
20004c50:	e6f0      	b.n	20004a34 <tud_task_ext+0x304>
20004c52:	2208      	movs	r2, #8
20004c54:	782b      	ldrb	r3, [r5, #0]
20004c56:	4658      	mov	r0, fp
20004c58:	4393      	bics	r3, r2
20004c5a:	a90e      	add	r1, sp, #56	@ 0x38
20004c5c:	702b      	strb	r3, [r5, #0]
20004c5e:	f000 f9bd 	bl	20004fdc <tud_control_status>
20004c62:	e57a      	b.n	2000475a <tud_task_ext+0x2a>
20004c64:	2002      	movs	r0, #2
20004c66:	7829      	ldrb	r1, [r5, #0]
20004c68:	ab0c      	add	r3, sp, #48	@ 0x30
20004c6a:	1c9a      	adds	r2, r3, #2
20004c6c:	068b      	lsls	r3, r1, #26
20004c6e:	0889      	lsrs	r1, r1, #2
20004c70:	0fdb      	lsrs	r3, r3, #31
20004c72:	4001      	ands	r1, r0
20004c74:	430b      	orrs	r3, r1
20004c76:	8013      	strh	r3, [r2, #0]
20004c78:	4658      	mov	r0, fp
20004c7a:	2302      	movs	r3, #2
20004c7c:	a90e      	add	r1, sp, #56	@ 0x38
20004c7e:	f000 f9c3 	bl	20005008 <tud_control_xfer>
20004c82:	e56a      	b.n	2000475a <tud_task_ext+0x2a>
20004c84:	88e3      	ldrh	r3, [r4, #6]
20004c86:	2b01      	cmp	r3, #1
20004c88:	d000      	beq.n	20004c8c <tud_task_ext+0x55c>
20004c8a:	e6d3      	b.n	20004a34 <tud_task_ext+0x304>
20004c8c:	2208      	movs	r2, #8
20004c8e:	782b      	ldrb	r3, [r5, #0]
20004c90:	4313      	orrs	r3, r2
20004c92:	702b      	strb	r3, [r5, #0]
20004c94:	e723      	b.n	20004ade <tud_task_ext+0x3ae>
20004c96:	7a23      	ldrb	r3, [r4, #8]
20004c98:	8922      	ldrh	r2, [r4, #8]
20004c9a:	2b0f      	cmp	r3, #15
20004c9c:	d900      	bls.n	20004ca0 <tud_task_ext+0x570>
20004c9e:	e6c9      	b.n	20004a34 <tud_task_ext+0x304>
20004ca0:	23ff      	movs	r3, #255	@ 0xff
20004ca2:	4013      	ands	r3, r2
20004ca4:	4a4e      	ldr	r2, [pc, #312]	@ (20004de0 <tud_task_ext+0x6b0>)
20004ca6:	18eb      	adds	r3, r5, r3
20004ca8:	791b      	ldrb	r3, [r3, #4]
20004caa:	7812      	ldrb	r2, [r2, #0]
20004cac:	4293      	cmp	r3, r2
20004cae:	d228      	bcs.n	20004d02 <tud_task_ext+0x5d2>
20004cb0:	4a4d      	ldr	r2, [pc, #308]	@ (20004de8 <tud_task_ext+0x6b8>)
20004cb2:	015b      	lsls	r3, r3, #5
20004cb4:	6815      	ldr	r5, [r2, #0]
20004cb6:	18ed      	adds	r5, r5, r3
20004cb8:	2d00      	cmp	r5, #0
20004cba:	d100      	bne.n	20004cbe <tud_task_ext+0x58e>
20004cbc:	e6ba      	b.n	20004a34 <tud_task_ext+0x304>
20004cbe:	6968      	ldr	r0, [r5, #20]
20004cc0:	f000 f9fc 	bl	200050bc <usbd_control_set_complete_callback>
20004cc4:	2101      	movs	r1, #1
20004cc6:	4658      	mov	r0, fp
20004cc8:	696b      	ldr	r3, [r5, #20]
20004cca:	aa0e      	add	r2, sp, #56	@ 0x38
20004ccc:	4798      	blx	r3
20004cce:	e6c2      	b.n	20004a56 <tud_task_ext+0x326>
20004cd0:	2a00      	cmp	r2, #0
20004cd2:	d000      	beq.n	20004cd6 <tud_task_ext+0x5a6>
20004cd4:	e6ae      	b.n	20004a34 <tud_task_ext+0x304>
20004cd6:	2300      	movs	r3, #0
20004cd8:	4699      	mov	r9, r3
20004cda:	7962      	ldrb	r2, [r4, #5]
20004cdc:	2002      	movs	r0, #2
20004cde:	0013      	movs	r3, r2
20004ce0:	9204      	str	r2, [sp, #16]
20004ce2:	4383      	bics	r3, r0
20004ce4:	2b01      	cmp	r3, #1
20004ce6:	d011      	beq.n	20004d0c <tud_task_ext+0x5dc>
20004ce8:	2a00      	cmp	r2, #0
20004cea:	d000      	beq.n	20004cee <tud_task_ext+0x5be>
20004cec:	e6a2      	b.n	20004a34 <tud_task_ext+0x304>
20004cee:	002b      	movs	r3, r5
20004cf0:	4443      	add	r3, r8
20004cf2:	4453      	add	r3, sl
20004cf4:	3330      	adds	r3, #48	@ 0x30
20004cf6:	791b      	ldrb	r3, [r3, #4]
20004cf8:	aa0c      	add	r2, sp, #48	@ 0x30
20004cfa:	079b      	lsls	r3, r3, #30
20004cfc:	0fdb      	lsrs	r3, r3, #31
20004cfe:	3202      	adds	r2, #2
20004d00:	e7b9      	b.n	20004c76 <tud_task_ext+0x546>
20004d02:	4293      	cmp	r3, r2
20004d04:	d000      	beq.n	20004d08 <tud_task_ext+0x5d8>
20004d06:	e695      	b.n	20004a34 <tud_task_ext+0x304>
20004d08:	4d36      	ldr	r5, [pc, #216]	@ (20004de4 <tud_task_ext+0x6b4>)
20004d0a:	e7d8      	b.n	20004cbe <tud_task_ext+0x58e>
20004d0c:	88e3      	ldrh	r3, [r4, #6]
20004d0e:	2b00      	cmp	r3, #0
20004d10:	d112      	bne.n	20004d38 <tud_task_ext+0x608>
20004d12:	9b03      	ldr	r3, [sp, #12]
20004d14:	7818      	ldrb	r0, [r3, #0]
20004d16:	9b04      	ldr	r3, [sp, #16]
20004d18:	2b01      	cmp	r3, #1
20004d1a:	d023      	beq.n	20004d64 <tud_task_ext+0x634>
20004d1c:	f7ff fc0a 	bl	20004534 <dcd_edpt_stall>
20004d20:	4643      	mov	r3, r8
20004d22:	2102      	movs	r1, #2
20004d24:	18eb      	adds	r3, r5, r3
20004d26:	4453      	add	r3, sl
20004d28:	3330      	adds	r3, #48	@ 0x30
20004d2a:	791a      	ldrb	r2, [r3, #4]
20004d2c:	430a      	orrs	r2, r1
20004d2e:	2101      	movs	r1, #1
20004d30:	711a      	strb	r2, [r3, #4]
20004d32:	791a      	ldrb	r2, [r3, #4]
20004d34:	430a      	orrs	r2, r1
20004d36:	711a      	strb	r2, [r3, #4]
20004d38:	464b      	mov	r3, r9
20004d3a:	2b00      	cmp	r3, #0
20004d3c:	d100      	bne.n	20004d40 <tud_task_ext+0x610>
20004d3e:	e50c      	b.n	2000475a <tud_task_ext+0x2a>
20004d40:	6958      	ldr	r0, [r3, #20]
20004d42:	f000 f9bb 	bl	200050bc <usbd_control_set_complete_callback>
20004d46:	464b      	mov	r3, r9
20004d48:	2101      	movs	r1, #1
20004d4a:	695b      	ldr	r3, [r3, #20]
20004d4c:	aa0e      	add	r2, sp, #56	@ 0x38
20004d4e:	4658      	mov	r0, fp
20004d50:	4798      	blx	r3
20004d52:	2000      	movs	r0, #0
20004d54:	f000 f9b2 	bl	200050bc <usbd_control_set_complete_callback>
20004d58:	2335      	movs	r3, #53	@ 0x35
20004d5a:	5ceb      	ldrb	r3, [r5, r3]
20004d5c:	07db      	lsls	r3, r3, #31
20004d5e:	d500      	bpl.n	20004d62 <tud_task_ext+0x632>
20004d60:	e4fb      	b.n	2000475a <tud_task_ext+0x2a>
20004d62:	e6bc      	b.n	20004ade <tud_task_ext+0x3ae>
20004d64:	f7ff fc04 	bl	20004570 <dcd_edpt_clear_stall>
20004d68:	4643      	mov	r3, r8
20004d6a:	2102      	movs	r1, #2
20004d6c:	18eb      	adds	r3, r5, r3
20004d6e:	4453      	add	r3, sl
20004d70:	3330      	adds	r3, #48	@ 0x30
20004d72:	791a      	ldrb	r2, [r3, #4]
20004d74:	438a      	bics	r2, r1
20004d76:	711a      	strb	r2, [r3, #4]
20004d78:	791a      	ldrb	r2, [r3, #4]
20004d7a:	9904      	ldr	r1, [sp, #16]
20004d7c:	438a      	bics	r2, r1
20004d7e:	711a      	strb	r2, [r3, #4]
20004d80:	e7da      	b.n	20004d38 <tud_task_ext+0x608>
20004d82:	f7ff fc5b 	bl	2000463c <tud_umount_cb>
20004d86:	e6aa      	b.n	20004ade <tud_task_ext+0x3ae>
20004d88:	2100      	movs	r1, #0
20004d8a:	4658      	mov	r0, fp
20004d8c:	f7ff fb16 	bl	200043bc <dcd_sof_enable>
20004d90:	4658      	mov	r0, fp
20004d92:	f7ff fbb9 	bl	20004508 <dcd_edpt_close_all>
20004d96:	2200      	movs	r2, #0
20004d98:	4692      	mov	sl, r2
20004d9a:	4a12      	ldr	r2, [pc, #72]	@ (20004de4 <tud_task_ext+0x6b4>)
20004d9c:	78ab      	ldrb	r3, [r5, #2]
20004d9e:	9205      	str	r2, [sp, #20]
20004da0:	4a11      	ldr	r2, [pc, #68]	@ (20004de8 <tud_task_ext+0x6b8>)
20004da2:	9304      	str	r3, [sp, #16]
20004da4:	9206      	str	r2, [sp, #24]
20004da6:	002a      	movs	r2, r5
20004da8:	4b0d      	ldr	r3, [pc, #52]	@ (20004de0 <tud_task_ext+0x6b0>)
20004daa:	4655      	mov	r5, sl
20004dac:	4698      	mov	r8, r3
20004dae:	4692      	mov	sl, r2
20004db0:	781b      	ldrb	r3, [r3, #0]
20004db2:	e00e      	b.n	20004dd2 <tud_task_ext+0x6a2>
20004db4:	9b06      	ldr	r3, [sp, #24]
20004db6:	016a      	lsls	r2, r5, #5
20004db8:	681b      	ldr	r3, [r3, #0]
20004dba:	189b      	adds	r3, r3, r2
20004dbc:	2b00      	cmp	r3, #0
20004dbe:	d054      	beq.n	20004e6a <tud_task_ext+0x73a>
20004dc0:	68db      	ldr	r3, [r3, #12]
20004dc2:	4658      	mov	r0, fp
20004dc4:	4798      	blx	r3
20004dc6:	4643      	mov	r3, r8
20004dc8:	3501      	adds	r5, #1
20004dca:	781b      	ldrb	r3, [r3, #0]
20004dcc:	b2ed      	uxtb	r5, r5
20004dce:	42ab      	cmp	r3, r5
20004dd0:	d337      	bcc.n	20004e42 <tud_task_ext+0x712>
20004dd2:	42ab      	cmp	r3, r5
20004dd4:	d8ee      	bhi.n	20004db4 <tud_task_ext+0x684>
20004dd6:	9a05      	ldr	r2, [sp, #20]
20004dd8:	1aeb      	subs	r3, r5, r3
20004dda:	015b      	lsls	r3, r3, #5
20004ddc:	18d3      	adds	r3, r2, r3
20004dde:	e7ef      	b.n	20004dc0 <tud_task_ext+0x690>
20004de0:	20008eee 	.word	0x20008eee
20004de4:	20007e2c 	.word	0x20007e2c
20004de8:	200086d0 	.word	0x200086d0
20004dec:	200087c8 	.word	0x200087c8
20004df0:	20007dd0 	.word	0x20007dd0
20004df4:	ab0c      	add	r3, sp, #48	@ 0x30
20004df6:	1c9a      	adds	r2, r3, #2
20004df8:	4658      	mov	r0, fp
20004dfa:	2301      	movs	r3, #1
20004dfc:	a90e      	add	r1, sp, #56	@ 0x38
20004dfe:	7015      	strb	r5, [r2, #0]
20004e00:	f000 f902 	bl	20005008 <tud_control_xfer>
20004e04:	e4a9      	b.n	2000475a <tud_task_ext+0x2a>
20004e06:	9a0b      	ldr	r2, [sp, #44]	@ 0x2c
20004e08:	2a01      	cmp	r2, #1
20004e0a:	d04c      	beq.n	20004ea6 <tud_task_ext+0x776>
20004e0c:	2a00      	cmp	r2, #0
20004e0e:	d03c      	beq.n	20004e8a <tud_task_ext+0x75a>
20004e10:	2300      	movs	r3, #0
20004e12:	78b0      	ldrb	r0, [r6, #2]
20004e14:	e004      	b.n	20004e20 <tud_task_ext+0x6f0>
20004e16:	3301      	adds	r3, #1
20004e18:	b2db      	uxtb	r3, r3
20004e1a:	710f      	strb	r7, [r1, #4]
20004e1c:	4293      	cmp	r3, r2
20004e1e:	d234      	bcs.n	20004e8a <tud_task_ext+0x75a>
20004e20:	18c1      	adds	r1, r0, r3
20004e22:	b2c9      	uxtb	r1, r1
20004e24:	4441      	add	r1, r8
20004e26:	790d      	ldrb	r5, [r1, #4]
20004e28:	2dff      	cmp	r5, #255	@ 0xff
20004e2a:	d0f4      	beq.n	20004e16 <tud_task_ext+0x6e6>
20004e2c:	464e      	mov	r6, r9
20004e2e:	4645      	mov	r5, r8
20004e30:	4657      	mov	r7, sl
20004e32:	2300      	movs	r3, #0
20004e34:	706b      	strb	r3, [r5, #1]
20004e36:	e5fd      	b.n	20004a34 <tud_task_ext+0x304>
20004e38:	464e      	mov	r6, r9
20004e3a:	4657      	mov	r7, sl
20004e3c:	f7ff fbfc 	bl	20004638 <tud_mount_cb>
20004e40:	e64d      	b.n	20004ade <tud_task_ext+0x3ae>
20004e42:	4655      	mov	r5, sl
20004e44:	2254      	movs	r2, #84	@ 0x54
20004e46:	2100      	movs	r1, #0
20004e48:	0028      	movs	r0, r5
20004e4a:	f7ff f83d 	bl	20003ec8 <__wrap_memset>
20004e4e:	2210      	movs	r2, #16
20004e50:	21ff      	movs	r1, #255	@ 0xff
20004e52:	1d28      	adds	r0, r5, #4
20004e54:	f7ff f838 	bl	20003ec8 <__wrap_memset>
20004e58:	0028      	movs	r0, r5
20004e5a:	2220      	movs	r2, #32
20004e5c:	21ff      	movs	r1, #255	@ 0xff
20004e5e:	3014      	adds	r0, #20
20004e60:	f7ff f832 	bl	20003ec8 <__wrap_memset>
20004e64:	9b04      	ldr	r3, [sp, #16]
20004e66:	70ab      	strb	r3, [r5, #2]
20004e68:	e661      	b.n	20004b2e <tud_task_ext+0x3fe>
20004e6a:	4655      	mov	r5, sl
20004e6c:	e7fa      	b.n	20004e64 <tud_task_ext+0x734>
20004e6e:	f7ff fbdd 	bl	2000462c <tud_descriptor_bos_cb>
20004e72:	1e02      	subs	r2, r0, #0
20004e74:	d100      	bne.n	20004e78 <tud_task_ext+0x748>
20004e76:	e5dd      	b.n	20004a34 <tud_task_ext+0x304>
20004e78:	78d3      	ldrb	r3, [r2, #3]
20004e7a:	7891      	ldrb	r1, [r2, #2]
20004e7c:	021b      	lsls	r3, r3, #8
20004e7e:	430b      	orrs	r3, r1
20004e80:	4658      	mov	r0, fp
20004e82:	a90e      	add	r1, sp, #56	@ 0x38
20004e84:	f000 f8c0 	bl	20005008 <tud_control_xfer>
20004e88:	e5e5      	b.n	20004a56 <tud_task_ext+0x326>
20004e8a:	4665      	mov	r5, ip
20004e8c:	003b      	movs	r3, r7
20004e8e:	0031      	movs	r1, r6
20004e90:	002a      	movs	r2, r5
20004e92:	980a      	ldr	r0, [sp, #40]	@ 0x28
20004e94:	f000 fd5c 	bl	20005950 <tu_edpt_bind_driver>
20004e98:	9b04      	ldr	r3, [sp, #16]
20004e9a:	1976      	adds	r6, r6, r5
20004e9c:	781b      	ldrb	r3, [r3, #0]
20004e9e:	42bb      	cmp	r3, r7
20004ea0:	d300      	bcc.n	20004ea4 <tud_task_ext+0x774>
20004ea2:	e679      	b.n	20004b98 <tud_task_ext+0x468>
20004ea4:	e7c2      	b.n	20004e2c <tud_task_ext+0x6fc>
20004ea6:	4b17      	ldr	r3, [pc, #92]	@ (20004f04 <tud_task_ext+0x7d4>)
20004ea8:	6929      	ldr	r1, [r5, #16]
20004eaa:	4299      	cmp	r1, r3
20004eac:	d1b0      	bne.n	20004e10 <tud_task_ext+0x6e0>
20004eae:	9a07      	ldr	r2, [sp, #28]
20004eb0:	e7ae      	b.n	20004e10 <tud_task_ext+0x6e0>
20004eb2:	f7ff fbbd 	bl	20004630 <tud_descriptor_device_qualifier_cb>
20004eb6:	1e02      	subs	r2, r0, #0
20004eb8:	d100      	bne.n	20004ebc <tud_task_ext+0x78c>
20004eba:	e5bb      	b.n	20004a34 <tud_task_ext+0x304>
20004ebc:	4658      	mov	r0, fp
20004ebe:	7813      	ldrb	r3, [r2, #0]
20004ec0:	a90e      	add	r1, sp, #56	@ 0x38
20004ec2:	f000 f8a1 	bl	20005008 <tud_control_xfer>
20004ec6:	e5c6      	b.n	20004a56 <tud_task_ext+0x326>
20004ec8:	8921      	ldrh	r1, [r4, #8]
20004eca:	f7fd f91d 	bl	20002108 <tud_descriptor_string_cb>
20004ece:	1e02      	subs	r2, r0, #0
20004ed0:	d1f4      	bne.n	20004ebc <tud_task_ext+0x78c>
20004ed2:	e5af      	b.n	20004a34 <tud_task_ext+0x304>
20004ed4:	2b02      	cmp	r3, #2
20004ed6:	d00f      	beq.n	20004ef8 <tud_task_ext+0x7c8>
20004ed8:	f7ff fbac 	bl	20004634 <tud_descriptor_other_speed_configuration_cb>
20004edc:	1e02      	subs	r2, r0, #0
20004ede:	d1cb      	bne.n	20004e78 <tud_task_ext+0x748>
20004ee0:	e5a8      	b.n	20004a34 <tud_task_ext+0x304>
20004ee2:	f7fd f909 	bl	200020f8 <tud_descriptor_device_cb>
20004ee6:	1e02      	subs	r2, r0, #0
20004ee8:	d100      	bne.n	20004eec <tud_task_ext+0x7bc>
20004eea:	e5a3      	b.n	20004a34 <tud_task_ext+0x304>
20004eec:	2312      	movs	r3, #18
20004eee:	4658      	mov	r0, fp
20004ef0:	a90e      	add	r1, sp, #56	@ 0x38
20004ef2:	f000 f889 	bl	20005008 <tud_control_xfer>
20004ef6:	e5ae      	b.n	20004a56 <tud_task_ext+0x326>
20004ef8:	f7fd f902 	bl	20002100 <tud_descriptor_configuration_cb>
20004efc:	1e02      	subs	r2, r0, #0
20004efe:	d1bb      	bne.n	20004e78 <tud_task_ext+0x748>
20004f00:	e598      	b.n	20004a34 <tud_task_ext+0x304>
20004f02:	46c0      	nop			@ (mov r8, r8)
20004f04:	200055e5 	.word	0x200055e5

20004f08 <usbd_edpt_open>:
20004f08:	2270      	movs	r2, #112	@ 0x70
20004f0a:	b570      	push	{r4, r5, r6, lr}
20004f0c:	788b      	ldrb	r3, [r1, #2]
20004f0e:	000c      	movs	r4, r1
20004f10:	421a      	tst	r2, r3
20004f12:	d001      	beq.n	20004f18 <usbd_edpt_open+0x10>
20004f14:	2000      	movs	r0, #0
20004f16:	bd70      	pop	{r4, r5, r6, pc}
20004f18:	4b06      	ldr	r3, [pc, #24]	@ (20004f34 <usbd_edpt_open+0x2c>)
20004f1a:	0020      	movs	r0, r4
20004f1c:	781d      	ldrb	r5, [r3, #0]
20004f1e:	4b06      	ldr	r3, [pc, #24]	@ (20004f38 <usbd_edpt_open+0x30>)
20004f20:	7899      	ldrb	r1, [r3, #2]
20004f22:	f000 fcdb 	bl	200058dc <tu_edpt_validate>
20004f26:	2800      	cmp	r0, #0
20004f28:	d0f4      	beq.n	20004f14 <usbd_edpt_open+0xc>
20004f2a:	0021      	movs	r1, r4
20004f2c:	0028      	movs	r0, r5
20004f2e:	f7ff fa61 	bl	200043f4 <dcd_edpt_open>
20004f32:	e7f0      	b.n	20004f16 <usbd_edpt_open+0xe>
20004f34:	20007f1c 	.word	0x20007f1c
20004f38:	200087b4 	.word	0x200087b4

20004f3c <usbd_edpt_claim>:
20004f3c:	207f      	movs	r0, #127	@ 0x7f
20004f3e:	4b07      	ldr	r3, [pc, #28]	@ (20004f5c <usbd_edpt_claim+0x20>)
20004f40:	b510      	push	{r4, lr}
20004f42:	681a      	ldr	r2, [r3, #0]
20004f44:	4008      	ands	r0, r1
20004f46:	09cb      	lsrs	r3, r1, #7
20004f48:	3334      	adds	r3, #52	@ 0x34
20004f4a:	0040      	lsls	r0, r0, #1
20004f4c:	18c0      	adds	r0, r0, r3
20004f4e:	4b04      	ldr	r3, [pc, #16]	@ (20004f60 <usbd_edpt_claim+0x24>)
20004f50:	0011      	movs	r1, r2
20004f52:	18c0      	adds	r0, r0, r3
20004f54:	f000 fc7e 	bl	20005854 <tu_edpt_claim>
20004f58:	bd10      	pop	{r4, pc}
20004f5a:	46c0      	nop			@ (mov r8, r8)
20004f5c:	20008808 	.word	0x20008808
20004f60:	200087b4 	.word	0x200087b4

20004f64 <usbd_edpt_release>:
20004f64:	207f      	movs	r0, #127	@ 0x7f
20004f66:	4b07      	ldr	r3, [pc, #28]	@ (20004f84 <usbd_edpt_release+0x20>)
20004f68:	b510      	push	{r4, lr}
20004f6a:	681a      	ldr	r2, [r3, #0]
20004f6c:	4008      	ands	r0, r1
20004f6e:	09cb      	lsrs	r3, r1, #7
20004f70:	3334      	adds	r3, #52	@ 0x34
20004f72:	0040      	lsls	r0, r0, #1
20004f74:	18c0      	adds	r0, r0, r3
20004f76:	4b04      	ldr	r3, [pc, #16]	@ (20004f88 <usbd_edpt_release+0x24>)
20004f78:	0011      	movs	r1, r2
20004f7a:	18c0      	adds	r0, r0, r3
20004f7c:	f000 fc92 	bl	200058a4 <tu_edpt_release>
20004f80:	bd10      	pop	{r4, pc}
20004f82:	46c0      	nop			@ (mov r8, r8)
20004f84:	20008808 	.word	0x20008808
20004f88:	200087b4 	.word	0x200087b4

20004f8c <usbd_edpt_xfer>:
20004f8c:	b570      	push	{r4, r5, r6, lr}
20004f8e:	247f      	movs	r4, #127	@ 0x7f
20004f90:	09c8      	lsrs	r0, r1, #7
20004f92:	4684      	mov	ip, r0
20004f94:	400c      	ands	r4, r1
20004f96:	480f      	ldr	r0, [pc, #60]	@ (20004fd4 <usbd_edpt_xfer+0x48>)
20004f98:	0064      	lsls	r4, r4, #1
20004f9a:	1904      	adds	r4, r0, r4
20004f9c:	4464      	add	r4, ip
20004f9e:	3430      	adds	r4, #48	@ 0x30
20004fa0:	7920      	ldrb	r0, [r4, #4]
20004fa2:	07c0      	lsls	r0, r0, #31
20004fa4:	d501      	bpl.n	20004faa <usbd_edpt_xfer+0x1e>
20004fa6:	2000      	movs	r0, #0
20004fa8:	bd70      	pop	{r4, r5, r6, pc}
20004faa:	480b      	ldr	r0, [pc, #44]	@ (20004fd8 <usbd_edpt_xfer+0x4c>)
20004fac:	2501      	movs	r5, #1
20004fae:	7800      	ldrb	r0, [r0, #0]
20004fb0:	4684      	mov	ip, r0
20004fb2:	7920      	ldrb	r0, [r4, #4]
20004fb4:	4328      	orrs	r0, r5
20004fb6:	7120      	strb	r0, [r4, #4]
20004fb8:	4660      	mov	r0, ip
20004fba:	f7ff faa9 	bl	20004510 <dcd_edpt_xfer>
20004fbe:	2800      	cmp	r0, #0
20004fc0:	d1f2      	bne.n	20004fa8 <usbd_edpt_xfer+0x1c>
20004fc2:	2201      	movs	r2, #1
20004fc4:	7923      	ldrb	r3, [r4, #4]
20004fc6:	4393      	bics	r3, r2
20004fc8:	7123      	strb	r3, [r4, #4]
20004fca:	7923      	ldrb	r3, [r4, #4]
20004fcc:	3203      	adds	r2, #3
20004fce:	4393      	bics	r3, r2
20004fd0:	7123      	strb	r3, [r4, #4]
20004fd2:	e7e8      	b.n	20004fa6 <usbd_edpt_xfer+0x1a>
20004fd4:	200087b4 	.word	0x200087b4
20004fd8:	20007f1c 	.word	0x20007f1c

20004fdc <tud_control_status>:
20004fdc:	b570      	push	{r4, r5, r6, lr}
20004fde:	4c09      	ldr	r4, [pc, #36]	@ (20005004 <tud_control_status+0x28>)
20004fe0:	0006      	movs	r6, r0
20004fe2:	2208      	movs	r2, #8
20004fe4:	0020      	movs	r0, r4
20004fe6:	000d      	movs	r5, r1
20004fe8:	f7fe ff74 	bl	20003ed4 <__wrap___aeabi_memcpy>
20004fec:	2300      	movs	r3, #0
20004fee:	2180      	movs	r1, #128	@ 0x80
20004ff0:	60e3      	str	r3, [r4, #12]
20004ff2:	60a3      	str	r3, [r4, #8]
20004ff4:	782b      	ldrb	r3, [r5, #0]
20004ff6:	0030      	movs	r0, r6
20004ff8:	4399      	bics	r1, r3
20004ffa:	2200      	movs	r2, #0
20004ffc:	2300      	movs	r3, #0
20004ffe:	f7ff ffc5 	bl	20004f8c <usbd_edpt_xfer>
20005002:	bd70      	pop	{r4, r5, r6, pc}
20005004:	20008714 	.word	0x20008714

20005008 <tud_control_xfer>:
20005008:	b5f0      	push	{r4, r5, r6, r7, lr}
2000500a:	46c6      	mov	lr, r8
2000500c:	4c24      	ldr	r4, [pc, #144]	@ (200050a0 <tud_control_xfer+0x98>)
2000500e:	0017      	movs	r7, r2
20005010:	4680      	mov	r8, r0
20005012:	2208      	movs	r2, #8
20005014:	0020      	movs	r0, r4
20005016:	b500      	push	{lr}
20005018:	000d      	movs	r5, r1
2000501a:	001e      	movs	r6, r3
2000501c:	f7fe ff5a 	bl	20003ed4 <__wrap___aeabi_memcpy>
20005020:	2300      	movs	r3, #0
20005022:	60a7      	str	r7, [r4, #8]
20005024:	81e3      	strh	r3, [r4, #14]
20005026:	79eb      	ldrb	r3, [r5, #7]
20005028:	79aa      	ldrb	r2, [r5, #6]
2000502a:	021b      	lsls	r3, r3, #8
2000502c:	4313      	orrs	r3, r2
2000502e:	1c1a      	adds	r2, r3, #0
20005030:	42b3      	cmp	r3, r6
20005032:	d900      	bls.n	20005036 <tud_control_xfer+0x2e>
20005034:	1c32      	adds	r2, r6, #0
20005036:	b296      	uxth	r6, r2
20005038:	81a2      	strh	r2, [r4, #12]
2000503a:	2b00      	cmp	r3, #0
2000503c:	d00c      	beq.n	20005058 <tud_control_xfer+0x50>
2000503e:	2e00      	cmp	r6, #0
20005040:	d015      	beq.n	2000506e <tud_control_xfer+0x66>
20005042:	2f00      	cmp	r7, #0
20005044:	d02a      	beq.n	2000509c <tud_control_xfer+0x94>
20005046:	2e40      	cmp	r6, #64	@ 0x40
20005048:	d81a      	bhi.n	20005080 <tud_control_xfer+0x78>
2000504a:	7823      	ldrb	r3, [r4, #0]
2000504c:	b296      	uxth	r6, r2
2000504e:	2b7f      	cmp	r3, #127	@ 0x7f
20005050:	d81b      	bhi.n	2000508a <tud_control_xfer+0x82>
20005052:	2100      	movs	r1, #0
20005054:	4a13      	ldr	r2, [pc, #76]	@ (200050a4 <tud_control_xfer+0x9c>)
20005056:	e00e      	b.n	20005076 <tud_control_xfer+0x6e>
20005058:	2180      	movs	r1, #128	@ 0x80
2000505a:	782b      	ldrb	r3, [r5, #0]
2000505c:	2200      	movs	r2, #0
2000505e:	4399      	bics	r1, r3
20005060:	4640      	mov	r0, r8
20005062:	2300      	movs	r3, #0
20005064:	f7ff ff92 	bl	20004f8c <usbd_edpt_xfer>
20005068:	bc80      	pop	{r7}
2000506a:	46b8      	mov	r8, r7
2000506c:	bdf0      	pop	{r4, r5, r6, r7, pc}
2000506e:	237f      	movs	r3, #127	@ 0x7f
20005070:	2200      	movs	r2, #0
20005072:	7821      	ldrb	r1, [r4, #0]
20005074:	4399      	bics	r1, r3
20005076:	0033      	movs	r3, r6
20005078:	4640      	mov	r0, r8
2000507a:	f7ff ff87 	bl	20004f8c <usbd_edpt_xfer>
2000507e:	e7f3      	b.n	20005068 <tud_control_xfer+0x60>
20005080:	2240      	movs	r2, #64	@ 0x40
20005082:	7823      	ldrb	r3, [r4, #0]
20005084:	b296      	uxth	r6, r2
20005086:	2b7f      	cmp	r3, #127	@ 0x7f
20005088:	d9e3      	bls.n	20005052 <tud_control_xfer+0x4a>
2000508a:	4c06      	ldr	r4, [pc, #24]	@ (200050a4 <tud_control_xfer+0x9c>)
2000508c:	0032      	movs	r2, r6
2000508e:	0039      	movs	r1, r7
20005090:	0020      	movs	r0, r4
20005092:	f7fe ff1f 	bl	20003ed4 <__wrap___aeabi_memcpy>
20005096:	2180      	movs	r1, #128	@ 0x80
20005098:	0022      	movs	r2, r4
2000509a:	e7ec      	b.n	20005076 <tud_control_xfer+0x6e>
2000509c:	2000      	movs	r0, #0
2000509e:	e7e3      	b.n	20005068 <tud_control_xfer+0x60>
200050a0:	20008714 	.word	0x20008714
200050a4:	200086d4 	.word	0x200086d4

200050a8 <usbd_control_reset>:
200050a8:	b510      	push	{r4, lr}
200050aa:	2214      	movs	r2, #20
200050ac:	2100      	movs	r1, #0
200050ae:	4802      	ldr	r0, [pc, #8]	@ (200050b8 <usbd_control_reset+0x10>)
200050b0:	f7fe ff0a 	bl	20003ec8 <__wrap_memset>
200050b4:	bd10      	pop	{r4, pc}
200050b6:	46c0      	nop			@ (mov r8, r8)
200050b8:	20008714 	.word	0x20008714

200050bc <usbd_control_set_complete_callback>:
200050bc:	4b01      	ldr	r3, [pc, #4]	@ (200050c4 <usbd_control_set_complete_callback+0x8>)
200050be:	6118      	str	r0, [r3, #16]
200050c0:	4770      	bx	lr
200050c2:	46c0      	nop			@ (mov r8, r8)
200050c4:	20008714 	.word	0x20008714

200050c8 <usbd_control_set_request>:
200050c8:	b510      	push	{r4, lr}
200050ca:	4c05      	ldr	r4, [pc, #20]	@ (200050e0 <usbd_control_set_request+0x18>)
200050cc:	0001      	movs	r1, r0
200050ce:	2208      	movs	r2, #8
200050d0:	0020      	movs	r0, r4
200050d2:	f7fe feff 	bl	20003ed4 <__wrap___aeabi_memcpy>
200050d6:	2300      	movs	r3, #0
200050d8:	60a3      	str	r3, [r4, #8]
200050da:	60e3      	str	r3, [r4, #12]
200050dc:	bd10      	pop	{r4, pc}
200050de:	46c0      	nop			@ (mov r8, r8)
200050e0:	20008714 	.word	0x20008714

200050e4 <usbd_control_xfer_cb>:
200050e4:	b570      	push	{r4, r5, r6, lr}
200050e6:	4c37      	ldr	r4, [pc, #220]	@ (200051c4 <usbd_control_xfer_cb+0xe0>)
200050e8:	001d      	movs	r5, r3
200050ea:	7823      	ldrb	r3, [r4, #0]
200050ec:	0006      	movs	r6, r0
200050ee:	09da      	lsrs	r2, r3, #7
200050f0:	09c9      	lsrs	r1, r1, #7
200050f2:	428a      	cmp	r2, r1
200050f4:	d010      	beq.n	20005118 <usbd_control_xfer_cb+0x34>
200050f6:	2000      	movs	r0, #0
200050f8:	2d00      	cmp	r5, #0
200050fa:	d000      	beq.n	200050fe <usbd_control_xfer_cb+0x1a>
200050fc:	bd70      	pop	{r4, r5, r6, pc}
200050fe:	0021      	movs	r1, r4
20005100:	0030      	movs	r0, r6
20005102:	f7ff f969 	bl	200043d8 <dcd_edpt0_status_complete>
20005106:	6923      	ldr	r3, [r4, #16]
20005108:	2b00      	cmp	r3, #0
2000510a:	d003      	beq.n	20005114 <usbd_control_xfer_cb+0x30>
2000510c:	0022      	movs	r2, r4
2000510e:	2103      	movs	r1, #3
20005110:	0030      	movs	r0, r6
20005112:	4798      	blx	r3
20005114:	2001      	movs	r0, #1
20005116:	e7f1      	b.n	200050fc <usbd_control_xfer_cb+0x18>
20005118:	2b7f      	cmp	r3, #127	@ 0x7f
2000511a:	d806      	bhi.n	2000512a <usbd_control_xfer_cb+0x46>
2000511c:	68a0      	ldr	r0, [r4, #8]
2000511e:	2800      	cmp	r0, #0
20005120:	d0ec      	beq.n	200050fc <usbd_control_xfer_cb+0x18>
20005122:	002a      	movs	r2, r5
20005124:	4928      	ldr	r1, [pc, #160]	@ (200051c8 <usbd_control_xfer_cb+0xe4>)
20005126:	f7fe fed5 	bl	20003ed4 <__wrap___aeabi_memcpy>
2000512a:	89e2      	ldrh	r2, [r4, #14]
2000512c:	68a1      	ldr	r1, [r4, #8]
2000512e:	1952      	adds	r2, r2, r5
20005130:	88e3      	ldrh	r3, [r4, #6]
20005132:	b292      	uxth	r2, r2
20005134:	1949      	adds	r1, r1, r5
20005136:	81e2      	strh	r2, [r4, #14]
20005138:	60a1      	str	r1, [r4, #8]
2000513a:	4293      	cmp	r3, r2
2000513c:	d014      	beq.n	20005168 <usbd_control_xfer_cb+0x84>
2000513e:	2d3f      	cmp	r5, #63	@ 0x3f
20005140:	d912      	bls.n	20005168 <usbd_control_xfer_cb+0x84>
20005142:	89a3      	ldrh	r3, [r4, #12]
20005144:	1a98      	subs	r0, r3, r2
20005146:	1c05      	adds	r5, r0, #0
20005148:	b280      	uxth	r0, r0
2000514a:	2840      	cmp	r0, #64	@ 0x40
2000514c:	d828      	bhi.n	200051a0 <usbd_control_xfer_cb+0xbc>
2000514e:	7820      	ldrb	r0, [r4, #0]
20005150:	b2ad      	uxth	r5, r5
20005152:	287f      	cmp	r0, #127	@ 0x7f
20005154:	d826      	bhi.n	200051a4 <usbd_control_xfer_cb+0xc0>
20005156:	2100      	movs	r1, #0
20005158:	429a      	cmp	r2, r3
2000515a:	d030      	beq.n	200051be <usbd_control_xfer_cb+0xda>
2000515c:	4a1a      	ldr	r2, [pc, #104]	@ (200051c8 <usbd_control_xfer_cb+0xe4>)
2000515e:	002b      	movs	r3, r5
20005160:	0030      	movs	r0, r6
20005162:	f7ff ff13 	bl	20004f8c <usbd_edpt_xfer>
20005166:	e7c9      	b.n	200050fc <usbd_control_xfer_cb+0x18>
20005168:	6923      	ldr	r3, [r4, #16]
2000516a:	2b00      	cmp	r3, #0
2000516c:	d005      	beq.n	2000517a <usbd_control_xfer_cb+0x96>
2000516e:	0022      	movs	r2, r4
20005170:	2102      	movs	r1, #2
20005172:	0030      	movs	r0, r6
20005174:	4798      	blx	r3
20005176:	2800      	cmp	r0, #0
20005178:	d008      	beq.n	2000518c <usbd_control_xfer_cb+0xa8>
2000517a:	2180      	movs	r1, #128	@ 0x80
2000517c:	7823      	ldrb	r3, [r4, #0]
2000517e:	2200      	movs	r2, #0
20005180:	4399      	bics	r1, r3
20005182:	0030      	movs	r0, r6
20005184:	2300      	movs	r3, #0
20005186:	f7ff ff01 	bl	20004f8c <usbd_edpt_xfer>
2000518a:	e7b7      	b.n	200050fc <usbd_control_xfer_cb+0x18>
2000518c:	2100      	movs	r1, #0
2000518e:	0030      	movs	r0, r6
20005190:	f7ff f9d0 	bl	20004534 <dcd_edpt_stall>
20005194:	0030      	movs	r0, r6
20005196:	2180      	movs	r1, #128	@ 0x80
20005198:	f7ff f9cc 	bl	20004534 <dcd_edpt_stall>
2000519c:	2001      	movs	r0, #1
2000519e:	e7ad      	b.n	200050fc <usbd_control_xfer_cb+0x18>
200051a0:	2540      	movs	r5, #64	@ 0x40
200051a2:	e7d4      	b.n	2000514e <usbd_control_xfer_cb+0x6a>
200051a4:	429a      	cmp	r2, r3
200051a6:	d007      	beq.n	200051b8 <usbd_control_xfer_cb+0xd4>
200051a8:	4c07      	ldr	r4, [pc, #28]	@ (200051c8 <usbd_control_xfer_cb+0xe4>)
200051aa:	002a      	movs	r2, r5
200051ac:	0020      	movs	r0, r4
200051ae:	f7fe fe91 	bl	20003ed4 <__wrap___aeabi_memcpy>
200051b2:	2180      	movs	r1, #128	@ 0x80
200051b4:	0022      	movs	r2, r4
200051b6:	e7d2      	b.n	2000515e <usbd_control_xfer_cb+0x7a>
200051b8:	2180      	movs	r1, #128	@ 0x80
200051ba:	2200      	movs	r2, #0
200051bc:	e7cf      	b.n	2000515e <usbd_control_xfer_cb+0x7a>
200051be:	2200      	movs	r2, #0
200051c0:	e7cd      	b.n	2000515e <usbd_control_xfer_cb+0x7a>
200051c2:	46c0      	nop			@ (mov r8, r8)
200051c4:	20008714 	.word	0x20008714
200051c8:	200086d4 	.word	0x200086d4

200051cc <write_flush>:
200051cc:	b5f8      	push	{r3, r4, r5, r6, r7, lr}
200051ce:	24c8      	movs	r4, #200	@ 0xc8
200051d0:	4344      	muls	r4, r0
200051d2:	0025      	movs	r5, r4
200051d4:	4e14      	ldr	r6, [pc, #80]	@ (20005228 <write_flush+0x5c>)
200051d6:	3524      	adds	r5, #36	@ 0x24
200051d8:	19ad      	adds	r5, r5, r6
200051da:	0007      	movs	r7, r0
200051dc:	0028      	movs	r0, r5
200051de:	f000 fc07 	bl	200059f0 <tu_fifo_count>
200051e2:	2800      	cmp	r0, #0
200051e4:	d101      	bne.n	200051ea <write_flush+0x1e>
200051e6:	2000      	movs	r0, #0
200051e8:	bdf8      	pop	{r3, r4, r5, r6, r7, pc}
200051ea:	1936      	adds	r6, r6, r4
200051ec:	2000      	movs	r0, #0
200051ee:	7871      	ldrb	r1, [r6, #1]
200051f0:	f7ff fea4 	bl	20004f3c <usbd_edpt_claim>
200051f4:	2800      	cmp	r0, #0
200051f6:	d0f6      	beq.n	200051e6 <write_flush+0x1a>
200051f8:	4b0c      	ldr	r3, [pc, #48]	@ (2000522c <write_flush+0x60>)
200051fa:	01fc      	lsls	r4, r7, #7
200051fc:	18e4      	adds	r4, r4, r3
200051fe:	0021      	movs	r1, r4
20005200:	0028      	movs	r0, r5
20005202:	2240      	movs	r2, #64	@ 0x40
20005204:	f000 fc6e 	bl	20005ae4 <tu_fifo_read_n>
20005208:	7871      	ldrb	r1, [r6, #1]
2000520a:	1e05      	subs	r5, r0, #0
2000520c:	d008      	beq.n	20005220 <write_flush+0x54>
2000520e:	0003      	movs	r3, r0
20005210:	0022      	movs	r2, r4
20005212:	2000      	movs	r0, #0
20005214:	f7ff feba 	bl	20004f8c <usbd_edpt_xfer>
20005218:	2800      	cmp	r0, #0
2000521a:	d0e4      	beq.n	200051e6 <write_flush+0x1a>
2000521c:	0028      	movs	r0, r5
2000521e:	e7e3      	b.n	200051e8 <write_flush+0x1c>
20005220:	2000      	movs	r0, #0
20005222:	f7ff fe9f 	bl	20004f64 <usbd_edpt_release>
20005226:	e7de      	b.n	200051e6 <write_flush+0x1a>
20005228:	20007f80 	.word	0x20007f80
2000522c:	20008728 	.word	0x20008728

20005230 <tud_midi_n_available>:
20005230:	b570      	push	{r4, r5, r6, lr}
20005232:	25c8      	movs	r5, #200	@ 0xc8
20005234:	4345      	muls	r5, r0
20005236:	0028      	movs	r0, r5
20005238:	4c05      	ldr	r4, [pc, #20]	@ (20005250 <tud_midi_n_available+0x20>)
2000523a:	3010      	adds	r0, #16
2000523c:	1900      	adds	r0, r0, r4
2000523e:	f000 fbd7 	bl	200059f0 <tu_fifo_count>
20005242:	1964      	adds	r4, r4, r5
20005244:	7ba3      	ldrb	r3, [r4, #14]
20005246:	7b62      	ldrb	r2, [r4, #13]
20005248:	1a9b      	subs	r3, r3, r2
2000524a:	b2db      	uxtb	r3, r3
2000524c:	1818      	adds	r0, r3, r0
2000524e:	bd70      	pop	{r4, r5, r6, pc}
20005250:	20007f80 	.word	0x20007f80

20005254 <tud_midi_n_stream_read>:
20005254:	b5f0      	push	{r4, r5, r6, r7, lr}
20005256:	4657      	mov	r7, sl
20005258:	4645      	mov	r5, r8
2000525a:	46de      	mov	lr, fp
2000525c:	464e      	mov	r6, r9
2000525e:	b5e0      	push	{r5, r6, r7, lr}
20005260:	b083      	sub	sp, #12
20005262:	4690      	mov	r8, r2
20005264:	1e1f      	subs	r7, r3, #0
20005266:	9001      	str	r0, [sp, #4]
20005268:	d054      	beq.n	20005314 <tud_midi_n_stream_read+0xc0>
2000526a:	23c8      	movs	r3, #200	@ 0xc8
2000526c:	4343      	muls	r3, r0
2000526e:	001a      	movs	r2, r3
20005270:	4e3d      	ldr	r6, [pc, #244]	@ (20005368 <tud_midi_n_stream_read+0x114>)
20005272:	3209      	adds	r2, #9
20005274:	18b2      	adds	r2, r6, r2
20005276:	4692      	mov	sl, r2
20005278:	001a      	movs	r2, r3
2000527a:	3210      	adds	r2, #16
2000527c:	18b2      	adds	r2, r6, r2
2000527e:	18f6      	adds	r6, r6, r3
20005280:	2300      	movs	r3, #0
20005282:	4693      	mov	fp, r2
20005284:	4699      	mov	r9, r3
20005286:	7bb4      	ldrb	r4, [r6, #14]
20005288:	e001      	b.n	2000528e <tud_midi_n_stream_read+0x3a>
2000528a:	2f00      	cmp	r7, #0
2000528c:	d044      	beq.n	20005318 <tud_midi_n_stream_read+0xc4>
2000528e:	2c00      	cmp	r4, #0
20005290:	d01d      	beq.n	200052ce <tud_midi_n_stream_read+0x7a>
20005292:	7b71      	ldrb	r1, [r6, #13]
20005294:	1a64      	subs	r4, r4, r1
20005296:	42bc      	cmp	r4, r7
20005298:	d900      	bls.n	2000529c <tud_midi_n_stream_read+0x48>
2000529a:	003c      	movs	r4, r7
2000529c:	25ff      	movs	r5, #255	@ 0xff
2000529e:	4025      	ands	r5, r4
200052a0:	42bd      	cmp	r5, r7
200052a2:	d837      	bhi.n	20005314 <tud_midi_n_stream_read+0xc0>
200052a4:	3101      	adds	r1, #1
200052a6:	4640      	mov	r0, r8
200052a8:	002a      	movs	r2, r5
200052aa:	4451      	add	r1, sl
200052ac:	f7fe fe12 	bl	20003ed4 <__wrap___aeabi_memcpy>
200052b0:	7b73      	ldrb	r3, [r6, #13]
200052b2:	44a9      	add	r9, r5
200052b4:	191b      	adds	r3, r3, r4
200052b6:	7bb4      	ldrb	r4, [r6, #14]
200052b8:	b2db      	uxtb	r3, r3
200052ba:	7373      	strb	r3, [r6, #13]
200052bc:	44a8      	add	r8, r5
200052be:	1b7f      	subs	r7, r7, r5
200052c0:	42a3      	cmp	r3, r4
200052c2:	d1e2      	bne.n	2000528a <tud_midi_n_stream_read+0x36>
200052c4:	2300      	movs	r3, #0
200052c6:	7373      	strb	r3, [r6, #13]
200052c8:	73b3      	strb	r3, [r6, #14]
200052ca:	2f00      	cmp	r7, #0
200052cc:	d024      	beq.n	20005318 <tud_midi_n_stream_read+0xc4>
200052ce:	78b3      	ldrb	r3, [r6, #2]
200052d0:	2b00      	cmp	r3, #0
200052d2:	d021      	beq.n	20005318 <tud_midi_n_stream_read+0xc4>
200052d4:	2204      	movs	r2, #4
200052d6:	4651      	mov	r1, sl
200052d8:	4658      	mov	r0, fp
200052da:	f000 fc03 	bl	20005ae4 <tu_fifo_read_n>
200052de:	0004      	movs	r4, r0
200052e0:	4658      	mov	r0, fp
200052e2:	f000 fb9b 	bl	20005a1c <tu_fifo_remaining>
200052e6:	283f      	cmp	r0, #63	@ 0x3f
200052e8:	d821      	bhi.n	2000532e <tud_midi_n_stream_read+0xda>
200052ea:	2c04      	cmp	r4, #4
200052ec:	d114      	bne.n	20005318 <tud_midi_n_stream_read+0xc4>
200052ee:	230f      	movs	r3, #15
200052f0:	7a72      	ldrb	r2, [r6, #9]
200052f2:	4013      	ands	r3, r2
200052f4:	2201      	movs	r2, #1
200052f6:	0011      	movs	r1, r2
200052f8:	4099      	lsls	r1, r3
200052fa:	000b      	movs	r3, r1
200052fc:	491b      	ldr	r1, [pc, #108]	@ (2000536c <tud_midi_n_stream_read+0x118>)
200052fe:	420b      	tst	r3, r1
20005300:	d12a      	bne.n	20005358 <tud_midi_n_stream_read+0x104>
20005302:	2103      	movs	r1, #3
20005304:	4219      	tst	r1, r3
20005306:	d105      	bne.n	20005314 <tud_midi_n_stream_read+0xc0>
20005308:	4819      	ldr	r0, [pc, #100]	@ (20005370 <tud_midi_n_stream_read+0x11c>)
2000530a:	4203      	tst	r3, r0
2000530c:	d00c      	beq.n	20005328 <tud_midi_n_stream_read+0xd4>
2000530e:	2401      	movs	r4, #1
20005310:	73b2      	strb	r2, [r6, #14]
20005312:	e7be      	b.n	20005292 <tud_midi_n_stream_read+0x3e>
20005314:	2300      	movs	r3, #0
20005316:	4699      	mov	r9, r3
20005318:	4648      	mov	r0, r9
2000531a:	b003      	add	sp, #12
2000531c:	bcf0      	pop	{r4, r5, r6, r7}
2000531e:	46bb      	mov	fp, r7
20005320:	46b2      	mov	sl, r6
20005322:	46a9      	mov	r9, r5
20005324:	46a0      	mov	r8, r4
20005326:	bdf0      	pop	{r4, r5, r6, r7, pc}
20005328:	2403      	movs	r4, #3
2000532a:	73b1      	strb	r1, [r6, #14]
2000532c:	e7b1      	b.n	20005292 <tud_midi_n_stream_read+0x3e>
2000532e:	2000      	movs	r0, #0
20005330:	78b1      	ldrb	r1, [r6, #2]
20005332:	f7ff fe03 	bl	20004f3c <usbd_edpt_claim>
20005336:	2800      	cmp	r0, #0
20005338:	d0d7      	beq.n	200052ea <tud_midi_n_stream_read+0x96>
2000533a:	4658      	mov	r0, fp
2000533c:	f000 fb6e 	bl	20005a1c <tu_fifo_remaining>
20005340:	78b1      	ldrb	r1, [r6, #2]
20005342:	283f      	cmp	r0, #63	@ 0x3f
20005344:	d90c      	bls.n	20005360 <tud_midi_n_stream_read+0x10c>
20005346:	9b01      	ldr	r3, [sp, #4]
20005348:	4a0a      	ldr	r2, [pc, #40]	@ (20005374 <tud_midi_n_stream_read+0x120>)
2000534a:	01db      	lsls	r3, r3, #7
2000534c:	189a      	adds	r2, r3, r2
2000534e:	2000      	movs	r0, #0
20005350:	2340      	movs	r3, #64	@ 0x40
20005352:	f7ff fe1b 	bl	20004f8c <usbd_edpt_xfer>
20005356:	e7c8      	b.n	200052ea <tud_midi_n_stream_read+0x96>
20005358:	2302      	movs	r3, #2
2000535a:	2402      	movs	r4, #2
2000535c:	73b3      	strb	r3, [r6, #14]
2000535e:	e798      	b.n	20005292 <tud_midi_n_stream_read+0x3e>
20005360:	2000      	movs	r0, #0
20005362:	f7ff fdff 	bl	20004f64 <usbd_edpt_release>
20005366:	e7c0      	b.n	200052ea <tud_midi_n_stream_read+0x96>
20005368:	20007f80 	.word	0x20007f80
2000536c:	00003044 	.word	0x00003044
20005370:	00008020 	.word	0x00008020
20005374:	20008768 	.word	0x20008768

20005378 <tud_midi_n_stream_write>:
20005378:	b5f0      	push	{r4, r5, r6, r7, lr}
2000537a:	46de      	mov	lr, fp
2000537c:	464e      	mov	r6, r9
2000537e:	4645      	mov	r5, r8
20005380:	4657      	mov	r7, sl
20005382:	b5e0      	push	{r5, r6, r7, lr}
20005384:	001e      	movs	r6, r3
20005386:	23c8      	movs	r3, #200	@ 0xc8
20005388:	4343      	muls	r3, r0
2000538a:	468b      	mov	fp, r1
2000538c:	4968      	ldr	r1, [pc, #416]	@ (20005530 <tud_midi_n_stream_write+0x1b8>)
2000538e:	4690      	mov	r8, r2
20005390:	18cc      	adds	r4, r1, r3
20005392:	7862      	ldrb	r2, [r4, #1]
20005394:	b085      	sub	sp, #20
20005396:	9001      	str	r0, [sp, #4]
20005398:	9100      	str	r1, [sp, #0]
2000539a:	2a00      	cmp	r2, #0
2000539c:	d100      	bne.n	200053a0 <tud_midi_n_stream_write+0x28>
2000539e:	e09e      	b.n	200054de <tud_midi_n_stream_write+0x166>
200053a0:	2e00      	cmp	r6, #0
200053a2:	d053      	beq.n	2000544c <tud_midi_n_stream_write+0xd4>
200053a4:	001f      	movs	r7, r3
200053a6:	3724      	adds	r7, #36	@ 0x24
200053a8:	19cf      	adds	r7, r1, r7
200053aa:	46b2      	mov	sl, r6
200053ac:	2500      	movs	r5, #0
200053ae:	003e      	movs	r6, r7
200053b0:	3303      	adds	r3, #3
200053b2:	18ca      	adds	r2, r1, r3
200053b4:	9303      	str	r3, [sp, #12]
200053b6:	9202      	str	r2, [sp, #8]
200053b8:	0030      	movs	r0, r6
200053ba:	f000 fb2f 	bl	20005a1c <tu_fifo_remaining>
200053be:	2803      	cmp	r0, #3
200053c0:	d800      	bhi.n	200053c4 <tud_midi_n_stream_write+0x4c>
200053c2:	e08e      	b.n	200054e2 <tud_midi_n_stream_write+0x16a>
200053c4:	4643      	mov	r3, r8
200053c6:	5d5a      	ldrb	r2, [r3, r5]
200053c8:	79e3      	ldrb	r3, [r4, #7]
200053ca:	3501      	adds	r5, #1
200053cc:	2b00      	cmp	r3, #0
200053ce:	d12a      	bne.n	20005426 <tud_midi_n_stream_write+0xae>
200053d0:	2102      	movs	r1, #2
200053d2:	78e0      	ldrb	r0, [r4, #3]
200053d4:	330f      	adds	r3, #15
200053d6:	71e1      	strb	r1, [r4, #7]
200053d8:	7122      	strb	r2, [r4, #4]
200053da:	4003      	ands	r3, r0
200053dc:	2b04      	cmp	r3, #4
200053de:	d048      	beq.n	20005472 <tud_midi_n_stream_write+0xfa>
200053e0:	239e      	movs	r3, #158	@ 0x9e
200053e2:	2701      	movs	r7, #1
200053e4:	0910      	lsrs	r0, r2, #4
200053e6:	01db      	lsls	r3, r3, #7
200053e8:	40c3      	lsrs	r3, r0
200053ea:	46bc      	mov	ip, r7
200053ec:	401f      	ands	r7, r3
200053ee:	46b9      	mov	r9, r7
200053f0:	4667      	mov	r7, ip
200053f2:	421f      	tst	r7, r3
200053f4:	d136      	bne.n	20005464 <tud_midi_n_stream_write+0xec>
200053f6:	0003      	movs	r3, r0
200053f8:	3b0c      	subs	r3, #12
200053fa:	2b01      	cmp	r3, #1
200053fc:	d968      	bls.n	200054d0 <tud_midi_n_stream_write+0x158>
200053fe:	280f      	cmp	r0, #15
20005400:	d100      	bne.n	20005404 <tud_midi_n_stream_write+0x8c>
20005402:	e074      	b.n	200054ee <tud_midi_n_stream_write+0x176>
20005404:	465b      	mov	r3, fp
20005406:	220f      	movs	r2, #15
20005408:	011b      	lsls	r3, r3, #4
2000540a:	4313      	orrs	r3, r2
2000540c:	70e3      	strb	r3, [r4, #3]
2000540e:	464b      	mov	r3, r9
20005410:	7163      	strb	r3, [r4, #5]
20005412:	71a3      	strb	r3, [r4, #6]
20005414:	23c8      	movs	r3, #200	@ 0xc8
20005416:	9a01      	ldr	r2, [sp, #4]
20005418:	2002      	movs	r0, #2
2000541a:	4353      	muls	r3, r2
2000541c:	9a00      	ldr	r2, [sp, #0]
2000541e:	18d3      	adds	r3, r2, r3
20005420:	2202      	movs	r2, #2
20005422:	721a      	strb	r2, [r3, #8]
20005424:	e03f      	b.n	200054a6 <tud_midi_n_stream_write+0x12e>
20005426:	2b03      	cmp	r3, #3
20005428:	d814      	bhi.n	20005454 <tud_midi_n_stream_write+0xdc>
2000542a:	18e1      	adds	r1, r4, r3
2000542c:	70ca      	strb	r2, [r1, #3]
2000542e:	78e1      	ldrb	r1, [r4, #3]
20005430:	1c58      	adds	r0, r3, #1
20005432:	000f      	movs	r7, r1
20005434:	210f      	movs	r1, #15
20005436:	b2c0      	uxtb	r0, r0
20005438:	71e0      	strb	r0, [r4, #7]
2000543a:	4039      	ands	r1, r7
2000543c:	2904      	cmp	r1, #4
2000543e:	d028      	beq.n	20005492 <tud_midi_n_stream_write+0x11a>
20005440:	7a23      	ldrb	r3, [r4, #8]
20005442:	4283      	cmp	r3, r0
20005444:	d02d      	beq.n	200054a2 <tud_midi_n_stream_write+0x12a>
20005446:	45aa      	cmp	sl, r5
20005448:	d1b6      	bne.n	200053b8 <tud_midi_n_stream_write+0x40>
2000544a:	4656      	mov	r6, sl
2000544c:	9801      	ldr	r0, [sp, #4]
2000544e:	f7ff febd 	bl	200051cc <write_flush>
20005452:	0035      	movs	r5, r6
20005454:	0028      	movs	r0, r5
20005456:	b005      	add	sp, #20
20005458:	bcf0      	pop	{r4, r5, r6, r7}
2000545a:	46bb      	mov	fp, r7
2000545c:	46b2      	mov	sl, r6
2000545e:	46a9      	mov	r9, r5
20005460:	46a0      	mov	r8, r4
20005462:	bdf0      	pop	{r4, r5, r6, r7, pc}
20005464:	465b      	mov	r3, fp
20005466:	011b      	lsls	r3, r3, #4
20005468:	4303      	orrs	r3, r0
2000546a:	70e3      	strb	r3, [r4, #3]
2000546c:	2304      	movs	r3, #4
2000546e:	7223      	strb	r3, [r4, #8]
20005470:	e7e9      	b.n	20005446 <tud_midi_n_stream_write+0xce>
20005472:	2af7      	cmp	r2, #247	@ 0xf7
20005474:	d1fb      	bne.n	2000546e <tud_midi_n_stream_write+0xf6>
20005476:	465b      	mov	r3, fp
20005478:	2205      	movs	r2, #5
2000547a:	011b      	lsls	r3, r3, #4
2000547c:	4313      	orrs	r3, r2
2000547e:	70e3      	strb	r3, [r4, #3]
20005480:	23c8      	movs	r3, #200	@ 0xc8
20005482:	9a01      	ldr	r2, [sp, #4]
20005484:	2002      	movs	r0, #2
20005486:	4353      	muls	r3, r2
20005488:	9a00      	ldr	r2, [sp, #0]
2000548a:	18d3      	adds	r3, r2, r3
2000548c:	2202      	movs	r2, #2
2000548e:	721a      	strb	r2, [r3, #8]
20005490:	e009      	b.n	200054a6 <tud_midi_n_stream_write+0x12e>
20005492:	2af7      	cmp	r2, #247	@ 0xf7
20005494:	d1d4      	bne.n	20005440 <tud_midi_n_stream_write+0xc8>
20005496:	465a      	mov	r2, fp
20005498:	3304      	adds	r3, #4
2000549a:	0112      	lsls	r2, r2, #4
2000549c:	4313      	orrs	r3, r2
2000549e:	70e3      	strb	r3, [r4, #3]
200054a0:	7220      	strb	r0, [r4, #8]
200054a2:	2804      	cmp	r0, #4
200054a4:	d009      	beq.n	200054ba <tud_midi_n_stream_write+0x142>
200054a6:	2204      	movs	r2, #4
200054a8:	9b03      	ldr	r3, [sp, #12]
200054aa:	1a12      	subs	r2, r2, r0
200054ac:	18c0      	adds	r0, r0, r3
200054ae:	9b00      	ldr	r3, [sp, #0]
200054b0:	2100      	movs	r1, #0
200054b2:	b2d2      	uxtb	r2, r2
200054b4:	1818      	adds	r0, r3, r0
200054b6:	f7fe fd07 	bl	20003ec8 <__wrap_memset>
200054ba:	2204      	movs	r2, #4
200054bc:	0030      	movs	r0, r6
200054be:	9902      	ldr	r1, [sp, #8]
200054c0:	f000 fbd8 	bl	20005c74 <tu_fifo_write_n>
200054c4:	2300      	movs	r3, #0
200054c6:	7223      	strb	r3, [r4, #8]
200054c8:	71e3      	strb	r3, [r4, #7]
200054ca:	2804      	cmp	r0, #4
200054cc:	d0bb      	beq.n	20005446 <tud_midi_n_stream_write+0xce>
200054ce:	e7c1      	b.n	20005454 <tud_midi_n_stream_write+0xdc>
200054d0:	465b      	mov	r3, fp
200054d2:	011b      	lsls	r3, r3, #4
200054d4:	4303      	orrs	r3, r0
200054d6:	70e3      	strb	r3, [r4, #3]
200054d8:	2303      	movs	r3, #3
200054da:	7223      	strb	r3, [r4, #8]
200054dc:	e7b3      	b.n	20005446 <tud_midi_n_stream_write+0xce>
200054de:	2500      	movs	r5, #0
200054e0:	e7b8      	b.n	20005454 <tud_midi_n_stream_write+0xdc>
200054e2:	002e      	movs	r6, r5
200054e4:	9801      	ldr	r0, [sp, #4]
200054e6:	f7ff fe71 	bl	200051cc <write_flush>
200054ea:	0035      	movs	r5, r6
200054ec:	e7b2      	b.n	20005454 <tud_midi_n_stream_write+0xdc>
200054ee:	2af0      	cmp	r2, #240	@ 0xf0
200054f0:	d008      	beq.n	20005504 <tud_midi_n_stream_write+0x18c>
200054f2:	0013      	movs	r3, r2
200054f4:	438b      	bics	r3, r1
200054f6:	2bf1      	cmp	r3, #241	@ 0xf1
200054f8:	d017      	beq.n	2000552a <tud_midi_n_stream_write+0x1b2>
200054fa:	2af2      	cmp	r2, #242	@ 0xf2
200054fc:	d012      	beq.n	20005524 <tud_midi_n_stream_write+0x1ac>
200054fe:	2205      	movs	r2, #5
20005500:	2102      	movs	r1, #2
20005502:	e001      	b.n	20005508 <tud_midi_n_stream_write+0x190>
20005504:	2204      	movs	r2, #4
20005506:	2104      	movs	r1, #4
20005508:	23c8      	movs	r3, #200	@ 0xc8
2000550a:	9801      	ldr	r0, [sp, #4]
2000550c:	4343      	muls	r3, r0
2000550e:	9800      	ldr	r0, [sp, #0]
20005510:	18c3      	adds	r3, r0, r3
20005512:	4658      	mov	r0, fp
20005514:	0100      	lsls	r0, r0, #4
20005516:	4302      	orrs	r2, r0
20005518:	7219      	strb	r1, [r3, #8]
2000551a:	70da      	strb	r2, [r3, #3]
2000551c:	2902      	cmp	r1, #2
2000551e:	d192      	bne.n	20005446 <tud_midi_n_stream_write+0xce>
20005520:	2002      	movs	r0, #2
20005522:	e7c0      	b.n	200054a6 <tud_midi_n_stream_write+0x12e>
20005524:	2203      	movs	r2, #3
20005526:	2104      	movs	r1, #4
20005528:	e7ee      	b.n	20005508 <tud_midi_n_stream_write+0x190>
2000552a:	2202      	movs	r2, #2
2000552c:	2103      	movs	r1, #3
2000552e:	e7eb      	b.n	20005508 <tud_midi_n_stream_write+0x190>
20005530:	20007f80 	.word	0x20007f80

20005534 <midid_init>:
20005534:	b5f0      	push	{r4, r5, r6, r7, lr}
20005536:	4c15      	ldr	r4, [pc, #84]	@ (2000558c <midid_init+0x58>)
20005538:	b083      	sub	sp, #12
2000553a:	22c8      	movs	r2, #200	@ 0xc8
2000553c:	2100      	movs	r1, #0
2000553e:	0020      	movs	r0, r4
20005540:	f7fe fcc2 	bl	20003ec8 <__wrap_memset>
20005544:	2500      	movs	r5, #0
20005546:	0021      	movs	r1, r4
20005548:	0020      	movs	r0, r4
2000554a:	2301      	movs	r3, #1
2000554c:	2240      	movs	r2, #64	@ 0x40
2000554e:	3138      	adds	r1, #56	@ 0x38
20005550:	9500      	str	r5, [sp, #0]
20005552:	3010      	adds	r0, #16
20005554:	f000 fa16 	bl	20005984 <tu_fifo_config>
20005558:	0027      	movs	r7, r4
2000555a:	0021      	movs	r1, r4
2000555c:	0020      	movs	r0, r4
2000555e:	0026      	movs	r6, r4
20005560:	2301      	movs	r3, #1
20005562:	2240      	movs	r2, #64	@ 0x40
20005564:	3178      	adds	r1, #120	@ 0x78
20005566:	37b8      	adds	r7, #184	@ 0xb8
20005568:	9500      	str	r5, [sp, #0]
2000556a:	3024      	adds	r0, #36	@ 0x24
2000556c:	f000 fa0a 	bl	20005984 <tu_fifo_config>
20005570:	36c0      	adds	r6, #192	@ 0xc0
20005572:	0038      	movs	r0, r7
20005574:	f7fd f9ec 	bl	20002950 <mutex_init>
20005578:	0030      	movs	r0, r6
2000557a:	f7fd f9e9 	bl	20002950 <mutex_init>
2000557e:	61e5      	str	r5, [r4, #28]
20005580:	6227      	str	r7, [r4, #32]
20005582:	6326      	str	r6, [r4, #48]	@ 0x30
20005584:	6365      	str	r5, [r4, #52]	@ 0x34
20005586:	b003      	add	sp, #12
20005588:	bdf0      	pop	{r4, r5, r6, r7, pc}
2000558a:	46c0      	nop			@ (mov r8, r8)
2000558c:	20007f80 	.word	0x20007f80

20005590 <midid_deinit>:
20005590:	4b0a      	ldr	r3, [pc, #40]	@ (200055bc <midid_deinit+0x2c>)
20005592:	6b19      	ldr	r1, [r3, #48]	@ 0x30
20005594:	6a1a      	ldr	r2, [r3, #32]
20005596:	2900      	cmp	r1, #0
20005598:	d00c      	beq.n	200055b4 <midid_deinit+0x24>
2000559a:	2a00      	cmp	r2, #0
2000559c:	d007      	beq.n	200055ae <midid_deinit+0x1e>
2000559e:	2200      	movs	r2, #0
200055a0:	61da      	str	r2, [r3, #28]
200055a2:	635a      	str	r2, [r3, #52]	@ 0x34
200055a4:	631a      	str	r2, [r3, #48]	@ 0x30
200055a6:	2200      	movs	r2, #0
200055a8:	621a      	str	r2, [r3, #32]
200055aa:	2001      	movs	r0, #1
200055ac:	4770      	bx	lr
200055ae:	635a      	str	r2, [r3, #52]	@ 0x34
200055b0:	631a      	str	r2, [r3, #48]	@ 0x30
200055b2:	e7fa      	b.n	200055aa <midid_deinit+0x1a>
200055b4:	2a00      	cmp	r2, #0
200055b6:	d0f8      	beq.n	200055aa <midid_deinit+0x1a>
200055b8:	61d9      	str	r1, [r3, #28]
200055ba:	e7f4      	b.n	200055a6 <midid_deinit+0x16>
200055bc:	20007f80 	.word	0x20007f80

200055c0 <midid_reset>:
200055c0:	b510      	push	{r4, lr}
200055c2:	4c07      	ldr	r4, [pc, #28]	@ (200055e0 <midid_reset+0x20>)
200055c4:	2210      	movs	r2, #16
200055c6:	2100      	movs	r1, #0
200055c8:	0020      	movs	r0, r4
200055ca:	f7fe fc7d 	bl	20003ec8 <__wrap_memset>
200055ce:	0020      	movs	r0, r4
200055d0:	3010      	adds	r0, #16
200055d2:	f000 fc03 	bl	20005ddc <tu_fifo_clear>
200055d6:	0020      	movs	r0, r4
200055d8:	3024      	adds	r0, #36	@ 0x24
200055da:	f000 fbff 	bl	20005ddc <tu_fifo_clear>
200055de:	bd10      	pop	{r4, pc}
200055e0:	20007f80 	.word	0x20007f80

200055e4 <midid_open>:
200055e4:	b5f0      	push	{r4, r5, r6, r7, lr}
200055e6:	4646      	mov	r6, r8
200055e8:	46d6      	mov	lr, sl
200055ea:	464f      	mov	r7, r9
200055ec:	b5c0      	push	{r6, r7, lr}
200055ee:	794b      	ldrb	r3, [r1, #5]
200055f0:	4680      	mov	r8, r0
200055f2:	0015      	movs	r5, r2
200055f4:	2b01      	cmp	r3, #1
200055f6:	d102      	bne.n	200055fe <midid_open+0x1a>
200055f8:	798b      	ldrb	r3, [r1, #6]
200055fa:	2b01      	cmp	r3, #1
200055fc:	d006      	beq.n	2000560c <midid_open+0x28>
200055fe:	2400      	movs	r4, #0
20005600:	0020      	movs	r0, r4
20005602:	bce0      	pop	{r5, r6, r7}
20005604:	46ba      	mov	sl, r7
20005606:	46b1      	mov	r9, r6
20005608:	46a8      	mov	r8, r5
2000560a:	bdf0      	pop	{r4, r5, r6, r7, pc}
2000560c:	79cb      	ldrb	r3, [r1, #7]
2000560e:	2b00      	cmp	r3, #0
20005610:	d1f5      	bne.n	200055fe <midid_open+0x1a>
20005612:	780b      	ldrb	r3, [r1, #0]
20005614:	18ce      	adds	r6, r1, r3
20005616:	7872      	ldrb	r2, [r6, #1]
20005618:	2a24      	cmp	r2, #36	@ 0x24
2000561a:	d007      	beq.n	2000562c <midid_open+0x48>
2000561c:	e009      	b.n	20005632 <midid_open+0x4e>
2000561e:	7832      	ldrb	r2, [r6, #0]
20005620:	18b6      	adds	r6, r6, r2
20005622:	18d3      	adds	r3, r2, r3
20005624:	7872      	ldrb	r2, [r6, #1]
20005626:	b29b      	uxth	r3, r3
20005628:	2a24      	cmp	r2, #36	@ 0x24
2000562a:	d102      	bne.n	20005632 <midid_open+0x4e>
2000562c:	429d      	cmp	r5, r3
2000562e:	d2f6      	bcs.n	2000561e <midid_open+0x3a>
20005630:	e7e5      	b.n	200055fe <midid_open+0x1a>
20005632:	2a04      	cmp	r2, #4
20005634:	d1e3      	bne.n	200055fe <midid_open+0x1a>
20005636:	7972      	ldrb	r2, [r6, #5]
20005638:	2a01      	cmp	r2, #1
2000563a:	d1e0      	bne.n	200055fe <midid_open+0x1a>
2000563c:	79b2      	ldrb	r2, [r6, #6]
2000563e:	2a03      	cmp	r2, #3
20005640:	d1dd      	bne.n	200055fe <midid_open+0x1a>
20005642:	79f2      	ldrb	r2, [r6, #7]
20005644:	2a00      	cmp	r2, #0
20005646:	d1da      	bne.n	200055fe <midid_open+0x1a>
20005648:	492c      	ldr	r1, [pc, #176]	@ (200056fc <midid_open+0x118>)
2000564a:	784a      	ldrb	r2, [r1, #1]
2000564c:	468a      	mov	sl, r1
2000564e:	2a00      	cmp	r2, #0
20005650:	d1d5      	bne.n	200055fe <midid_open+0x1a>
20005652:	788a      	ldrb	r2, [r1, #2]
20005654:	4691      	mov	r9, r2
20005656:	2a00      	cmp	r2, #0
20005658:	d1d1      	bne.n	200055fe <midid_open+0x1a>
2000565a:	4651      	mov	r1, sl
2000565c:	78b2      	ldrb	r2, [r6, #2]
2000565e:	700a      	strb	r2, [r1, #0]
20005660:	7832      	ldrb	r2, [r6, #0]
20005662:	7931      	ldrb	r1, [r6, #4]
20005664:	18d3      	adds	r3, r2, r3
20005666:	b29c      	uxth	r4, r3
20005668:	2900      	cmp	r1, #0
2000566a:	d025      	beq.n	200056b8 <midid_open+0xd4>
2000566c:	18b7      	adds	r7, r6, r2
2000566e:	e007      	b.n	20005680 <midid_open+0x9c>
20005670:	46bc      	mov	ip, r7
20005672:	783a      	ldrb	r2, [r7, #0]
20005674:	1914      	adds	r4, r2, r4
20005676:	4494      	add	ip, r2
20005678:	4667      	mov	r7, ip
2000567a:	b2a4      	uxth	r4, r4
2000567c:	4549      	cmp	r1, r9
2000567e:	d91b      	bls.n	200056b8 <midid_open+0xd4>
20005680:	42a5      	cmp	r5, r4
20005682:	d319      	bcc.n	200056b8 <midid_open+0xd4>
20005684:	787b      	ldrb	r3, [r7, #1]
20005686:	2b05      	cmp	r3, #5
20005688:	d1f2      	bne.n	20005670 <midid_open+0x8c>
2000568a:	0039      	movs	r1, r7
2000568c:	4640      	mov	r0, r8
2000568e:	f7ff fc3b 	bl	20004f08 <usbd_edpt_open>
20005692:	2800      	cmp	r0, #0
20005694:	d0b3      	beq.n	200055fe <midid_open+0x1a>
20005696:	78bb      	ldrb	r3, [r7, #2]
20005698:	09da      	lsrs	r2, r3, #7
2000569a:	2a01      	cmp	r2, #1
2000569c:	d026      	beq.n	200056ec <midid_open+0x108>
2000569e:	4652      	mov	r2, sl
200056a0:	7093      	strb	r3, [r2, #2]
200056a2:	46bc      	mov	ip, r7
200056a4:	783b      	ldrb	r3, [r7, #0]
200056a6:	7931      	ldrb	r1, [r6, #4]
200056a8:	449c      	add	ip, r3
200056aa:	191c      	adds	r4, r3, r4
200056ac:	464b      	mov	r3, r9
200056ae:	3301      	adds	r3, #1
200056b0:	b2db      	uxtb	r3, r3
200056b2:	4667      	mov	r7, ip
200056b4:	4699      	mov	r9, r3
200056b6:	e7db      	b.n	20005670 <midid_open+0x8c>
200056b8:	4d11      	ldr	r5, [pc, #68]	@ (20005700 <midid_open+0x11c>)
200056ba:	0028      	movs	r0, r5
200056bc:	f000 f9ae 	bl	20005a1c <tu_fifo_remaining>
200056c0:	283f      	cmp	r0, #63	@ 0x3f
200056c2:	d99d      	bls.n	20005600 <midid_open+0x1c>
200056c4:	002e      	movs	r6, r5
200056c6:	3e10      	subs	r6, #16
200056c8:	2000      	movs	r0, #0
200056ca:	78b1      	ldrb	r1, [r6, #2]
200056cc:	f7ff fc36 	bl	20004f3c <usbd_edpt_claim>
200056d0:	2800      	cmp	r0, #0
200056d2:	d095      	beq.n	20005600 <midid_open+0x1c>
200056d4:	0028      	movs	r0, r5
200056d6:	f000 f9a1 	bl	20005a1c <tu_fifo_remaining>
200056da:	78b1      	ldrb	r1, [r6, #2]
200056dc:	283f      	cmp	r0, #63	@ 0x3f
200056de:	d908      	bls.n	200056f2 <midid_open+0x10e>
200056e0:	2340      	movs	r3, #64	@ 0x40
200056e2:	4a08      	ldr	r2, [pc, #32]	@ (20005704 <midid_open+0x120>)
200056e4:	2000      	movs	r0, #0
200056e6:	f7ff fc51 	bl	20004f8c <usbd_edpt_xfer>
200056ea:	e789      	b.n	20005600 <midid_open+0x1c>
200056ec:	4652      	mov	r2, sl
200056ee:	7053      	strb	r3, [r2, #1]
200056f0:	e7d7      	b.n	200056a2 <midid_open+0xbe>
200056f2:	2000      	movs	r0, #0
200056f4:	f7ff fc36 	bl	20004f64 <usbd_edpt_release>
200056f8:	e782      	b.n	20005600 <midid_open+0x1c>
200056fa:	46c0      	nop			@ (mov r8, r8)
200056fc:	20007f80 	.word	0x20007f80
20005700:	20007f90 	.word	0x20007f90
20005704:	20008768 	.word	0x20008768

20005708 <midid_control_xfer_cb>:
20005708:	2000      	movs	r0, #0
2000570a:	4770      	bx	lr

2000570c <midid_xfer_cb>:
2000570c:	b5f8      	push	{r3, r4, r5, r6, r7, lr}
2000570e:	4c38      	ldr	r4, [pc, #224]	@ (200057f0 <midid_xfer_cb+0xe4>)
20005710:	0007      	movs	r7, r0
20005712:	78a0      	ldrb	r0, [r4, #2]
20005714:	001e      	movs	r6, r3
20005716:	4288      	cmp	r0, r1
20005718:	d02c      	beq.n	20005774 <midid_xfer_cb+0x68>
2000571a:	7860      	ldrb	r0, [r4, #1]
2000571c:	4288      	cmp	r0, r1
2000571e:	d001      	beq.n	20005724 <midid_xfer_cb+0x18>
20005720:	2000      	movs	r0, #0
20005722:	bdf8      	pop	{r3, r4, r5, r6, r7, pc}
20005724:	4833      	ldr	r0, [pc, #204]	@ (200057f4 <midid_xfer_cb+0xe8>)
20005726:	f000 f963 	bl	200059f0 <tu_fifo_count>
2000572a:	2800      	cmp	r0, #0
2000572c:	d10b      	bne.n	20005746 <midid_xfer_cb+0x3a>
2000572e:	4c31      	ldr	r4, [pc, #196]	@ (200057f4 <midid_xfer_cb+0xe8>)
20005730:	0020      	movs	r0, r4
20005732:	f000 f95d 	bl	200059f0 <tu_fifo_count>
20005736:	2800      	cmp	r0, #0
20005738:	d103      	bne.n	20005742 <midid_xfer_cb+0x36>
2000573a:	2e00      	cmp	r6, #0
2000573c:	d001      	beq.n	20005742 <midid_xfer_cb+0x36>
2000573e:	06b3      	lsls	r3, r6, #26
20005740:	d03f      	beq.n	200057c2 <midid_xfer_cb+0xb6>
20005742:	2001      	movs	r0, #1
20005744:	e7ed      	b.n	20005722 <midid_xfer_cb+0x16>
20005746:	2000      	movs	r0, #0
20005748:	7861      	ldrb	r1, [r4, #1]
2000574a:	f7ff fbf7 	bl	20004f3c <usbd_edpt_claim>
2000574e:	2800      	cmp	r0, #0
20005750:	d0ed      	beq.n	2000572e <midid_xfer_cb+0x22>
20005752:	4929      	ldr	r1, [pc, #164]	@ (200057f8 <midid_xfer_cb+0xec>)
20005754:	2240      	movs	r2, #64	@ 0x40
20005756:	4827      	ldr	r0, [pc, #156]	@ (200057f4 <midid_xfer_cb+0xe8>)
20005758:	f000 f9c4 	bl	20005ae4 <tu_fifo_read_n>
2000575c:	7861      	ldrb	r1, [r4, #1]
2000575e:	2800      	cmp	r0, #0
20005760:	d043      	beq.n	200057ea <midid_xfer_cb+0xde>
20005762:	0003      	movs	r3, r0
20005764:	4a24      	ldr	r2, [pc, #144]	@ (200057f8 <midid_xfer_cb+0xec>)
20005766:	2000      	movs	r0, #0
20005768:	f7ff fc10 	bl	20004f8c <usbd_edpt_xfer>
2000576c:	2800      	cmp	r0, #0
2000576e:	d0de      	beq.n	2000572e <midid_xfer_cb+0x22>
20005770:	2001      	movs	r0, #1
20005772:	e7d6      	b.n	20005722 <midid_xfer_cb+0x16>
20005774:	0020      	movs	r0, r4
20005776:	4921      	ldr	r1, [pc, #132]	@ (200057fc <midid_xfer_cb+0xf0>)
20005778:	b29a      	uxth	r2, r3
2000577a:	3010      	adds	r0, #16
2000577c:	000d      	movs	r5, r1
2000577e:	f000 fa79 	bl	20005c74 <tu_fifo_write_n>
20005782:	4b1f      	ldr	r3, [pc, #124]	@ (20005800 <midid_xfer_cb+0xf4>)
20005784:	2b00      	cmp	r3, #0
20005786:	d002      	beq.n	2000578e <midid_xfer_cb+0x82>
20005788:	2000      	movs	r0, #0
2000578a:	e000      	b.n	2000578e <midid_xfer_cb+0x82>
2000578c:	bf00      	nop
2000578e:	481d      	ldr	r0, [pc, #116]	@ (20005804 <midid_xfer_cb+0xf8>)
20005790:	f000 f944 	bl	20005a1c <tu_fifo_remaining>
20005794:	283f      	cmp	r0, #63	@ 0x3f
20005796:	d9d4      	bls.n	20005742 <midid_xfer_cb+0x36>
20005798:	4b15      	ldr	r3, [pc, #84]	@ (200057f0 <midid_xfer_cb+0xe4>)
2000579a:	2000      	movs	r0, #0
2000579c:	7899      	ldrb	r1, [r3, #2]
2000579e:	f7ff fbcd 	bl	20004f3c <usbd_edpt_claim>
200057a2:	2800      	cmp	r0, #0
200057a4:	d0cd      	beq.n	20005742 <midid_xfer_cb+0x36>
200057a6:	4817      	ldr	r0, [pc, #92]	@ (20005804 <midid_xfer_cb+0xf8>)
200057a8:	f000 f938 	bl	20005a1c <tu_fifo_remaining>
200057ac:	4b10      	ldr	r3, [pc, #64]	@ (200057f0 <midid_xfer_cb+0xe4>)
200057ae:	7899      	ldrb	r1, [r3, #2]
200057b0:	283f      	cmp	r0, #63	@ 0x3f
200057b2:	d915      	bls.n	200057e0 <midid_xfer_cb+0xd4>
200057b4:	2340      	movs	r3, #64	@ 0x40
200057b6:	002a      	movs	r2, r5
200057b8:	2000      	movs	r0, #0
200057ba:	f7ff fbe7 	bl	20004f8c <usbd_edpt_xfer>
200057be:	2001      	movs	r0, #1
200057c0:	e7af      	b.n	20005722 <midid_xfer_cb+0x16>
200057c2:	3c24      	subs	r4, #36	@ 0x24
200057c4:	0038      	movs	r0, r7
200057c6:	7861      	ldrb	r1, [r4, #1]
200057c8:	f7ff fbb8 	bl	20004f3c <usbd_edpt_claim>
200057cc:	2800      	cmp	r0, #0
200057ce:	d0b8      	beq.n	20005742 <midid_xfer_cb+0x36>
200057d0:	2300      	movs	r3, #0
200057d2:	0038      	movs	r0, r7
200057d4:	001a      	movs	r2, r3
200057d6:	7861      	ldrb	r1, [r4, #1]
200057d8:	f7ff fbd8 	bl	20004f8c <usbd_edpt_xfer>
200057dc:	2001      	movs	r0, #1
200057de:	e7a0      	b.n	20005722 <midid_xfer_cb+0x16>
200057e0:	2000      	movs	r0, #0
200057e2:	f7ff fbbf 	bl	20004f64 <usbd_edpt_release>
200057e6:	2001      	movs	r0, #1
200057e8:	e79b      	b.n	20005722 <midid_xfer_cb+0x16>
200057ea:	f7ff fbbb 	bl	20004f64 <usbd_edpt_release>
200057ee:	e79e      	b.n	2000572e <midid_xfer_cb+0x22>
200057f0:	20007f80 	.word	0x20007f80
200057f4:	20007fa4 	.word	0x20007fa4
200057f8:	20008728 	.word	0x20008728
200057fc:	20008768 	.word	0x20008768
20005800:	00000000 	.word	0x00000000
20005804:	20007f90 	.word	0x20007f90

20005808 <tusb_rhport_init>:
20005808:	b500      	push	{lr}
2000580a:	0003      	movs	r3, r0
2000580c:	b083      	sub	sp, #12
2000580e:	2900      	cmp	r1, #0
20005810:	d010      	beq.n	20005834 <tusb_rhport_init+0x2c>
20005812:	2000      	movs	r0, #0
20005814:	2b01      	cmp	r3, #1
20005816:	d807      	bhi.n	20005828 <tusb_rhport_init+0x20>
20005818:	780a      	ldrb	r2, [r1, #0]
2000581a:	2a00      	cmp	r2, #0
2000581c:	d004      	beq.n	20005828 <tusb_rhport_init+0x20>
2000581e:	480c      	ldr	r0, [pc, #48]	@ (20005850 <tusb_rhport_init+0x48>)
20005820:	54c2      	strb	r2, [r0, r3]
20005822:	2001      	movs	r0, #1
20005824:	2a01      	cmp	r2, #1
20005826:	d001      	beq.n	2000582c <tusb_rhport_init+0x24>
20005828:	b003      	add	sp, #12
2000582a:	bd00      	pop	{pc}
2000582c:	0018      	movs	r0, r3
2000582e:	f7fe ff0b 	bl	20004648 <tud_rhport_init>
20005832:	e7f9      	b.n	20005828 <tusb_rhport_init+0x20>
20005834:	2301      	movs	r3, #1
20005836:	466a      	mov	r2, sp
20005838:	2000      	movs	r0, #0
2000583a:	a901      	add	r1, sp, #4
2000583c:	8093      	strh	r3, [r2, #4]
2000583e:	f7fe ff03 	bl	20004648 <tud_rhport_init>
20005842:	2800      	cmp	r0, #0
20005844:	d0f0      	beq.n	20005828 <tusb_rhport_init+0x20>
20005846:	2201      	movs	r2, #1
20005848:	4b01      	ldr	r3, [pc, #4]	@ (20005850 <tusb_rhport_init+0x48>)
2000584a:	701a      	strb	r2, [r3, #0]
2000584c:	e7ec      	b.n	20005828 <tusb_rhport_init+0x20>
2000584e:	46c0      	nop			@ (mov r8, r8)
20005850:	200087a8 	.word	0x200087a8

20005854 <tu_edpt_claim>:
20005854:	b570      	push	{r4, r5, r6, lr}
20005856:	0004      	movs	r4, r0
20005858:	7823      	ldrb	r3, [r4, #0]
2000585a:	0008      	movs	r0, r1
2000585c:	07db      	lsls	r3, r3, #31
2000585e:	000e      	movs	r6, r1
20005860:	0fdd      	lsrs	r5, r3, #31
20005862:	2b00      	cmp	r3, #0
20005864:	d116      	bne.n	20005894 <tu_edpt_claim+0x40>
20005866:	7823      	ldrb	r3, [r4, #0]
20005868:	075b      	lsls	r3, r3, #29
2000586a:	d501      	bpl.n	20005870 <tu_edpt_claim+0x1c>
2000586c:	0028      	movs	r0, r5
2000586e:	bd70      	pop	{r4, r5, r6, pc}
20005870:	2101      	movs	r1, #1
20005872:	4249      	negs	r1, r1
20005874:	f001 fa3c 	bl	20006cf0 <mutex_enter_timeout_ms>
20005878:	7823      	ldrb	r3, [r4, #0]
2000587a:	07db      	lsls	r3, r3, #31
2000587c:	0fdd      	lsrs	r5, r3, #31
2000587e:	2b00      	cmp	r3, #0
20005880:	d10a      	bne.n	20005898 <tu_edpt_claim+0x44>
20005882:	7823      	ldrb	r3, [r4, #0]
20005884:	075b      	lsls	r3, r3, #29
20005886:	d408      	bmi.n	2000589a <tu_edpt_claim+0x46>
20005888:	2204      	movs	r2, #4
2000588a:	7823      	ldrb	r3, [r4, #0]
2000588c:	2501      	movs	r5, #1
2000588e:	4313      	orrs	r3, r2
20005890:	7023      	strb	r3, [r4, #0]
20005892:	e002      	b.n	2000589a <tu_edpt_claim+0x46>
20005894:	2500      	movs	r5, #0
20005896:	e7e9      	b.n	2000586c <tu_edpt_claim+0x18>
20005898:	2500      	movs	r5, #0
2000589a:	0030      	movs	r0, r6
2000589c:	f001 fa6e 	bl	20006d7c <mutex_exit>
200058a0:	e7e4      	b.n	2000586c <tu_edpt_claim+0x18>
200058a2:	46c0      	nop			@ (mov r8, r8)

200058a4 <tu_edpt_release>:
200058a4:	b570      	push	{r4, r5, r6, lr}
200058a6:	000d      	movs	r5, r1
200058a8:	2101      	movs	r1, #1
200058aa:	0004      	movs	r4, r0
200058ac:	4249      	negs	r1, r1
200058ae:	0028      	movs	r0, r5
200058b0:	f001 fa1e 	bl	20006cf0 <mutex_enter_timeout_ms>
200058b4:	7823      	ldrb	r3, [r4, #0]
200058b6:	075b      	lsls	r3, r3, #29
200058b8:	0fde      	lsrs	r6, r3, #31
200058ba:	2b00      	cmp	r3, #0
200058bc:	db04      	blt.n	200058c8 <tu_edpt_release+0x24>
200058be:	0028      	movs	r0, r5
200058c0:	f001 fa5c 	bl	20006d7c <mutex_exit>
200058c4:	0030      	movs	r0, r6
200058c6:	bd70      	pop	{r4, r5, r6, pc}
200058c8:	7823      	ldrb	r3, [r4, #0]
200058ca:	07db      	lsls	r3, r3, #31
200058cc:	d404      	bmi.n	200058d8 <tu_edpt_release+0x34>
200058ce:	2204      	movs	r2, #4
200058d0:	7823      	ldrb	r3, [r4, #0]
200058d2:	4393      	bics	r3, r2
200058d4:	7023      	strb	r3, [r4, #0]
200058d6:	e7f2      	b.n	200058be <tu_edpt_release+0x1a>
200058d8:	2600      	movs	r6, #0
200058da:	e7f0      	b.n	200058be <tu_edpt_release+0x1a>

200058dc <tu_edpt_validate>:
200058dc:	7943      	ldrb	r3, [r0, #5]
200058de:	7902      	ldrb	r2, [r0, #4]
200058e0:	021b      	lsls	r3, r3, #8
200058e2:	4313      	orrs	r3, r2
200058e4:	78c2      	ldrb	r2, [r0, #3]
200058e6:	055b      	lsls	r3, r3, #21
200058e8:	0792      	lsls	r2, r2, #30
200058ea:	0d5b      	lsrs	r3, r3, #21
200058ec:	0f92      	lsrs	r2, r2, #30
200058ee:	2a02      	cmp	r2, #2
200058f0:	d01a      	beq.n	20005928 <tu_edpt_validate+0x4c>
200058f2:	2a03      	cmp	r2, #3
200058f4:	d00b      	beq.n	2000590e <tu_edpt_validate+0x32>
200058f6:	2000      	movs	r0, #0
200058f8:	2a01      	cmp	r2, #1
200058fa:	d107      	bne.n	2000590c <tu_edpt_validate+0x30>
200058fc:	3902      	subs	r1, #2
200058fe:	424a      	negs	r2, r1
20005900:	4151      	adcs	r1, r2
20005902:	4a10      	ldr	r2, [pc, #64]	@ (20005944 <tu_edpt_validate+0x68>)
20005904:	1889      	adds	r1, r1, r2
20005906:	4299      	cmp	r1, r3
20005908:	4140      	adcs	r0, r0
2000590a:	b2c0      	uxtb	r0, r0
2000590c:	4770      	bx	lr
2000590e:	3902      	subs	r1, #2
20005910:	1e4a      	subs	r2, r1, #1
20005912:	4191      	sbcs	r1, r2
20005914:	4a0c      	ldr	r2, [pc, #48]	@ (20005948 <tu_edpt_validate+0x6c>)
20005916:	4249      	negs	r1, r1
20005918:	4011      	ands	r1, r2
2000591a:	2280      	movs	r2, #128	@ 0x80
2000591c:	2000      	movs	r0, #0
2000591e:	00d2      	lsls	r2, r2, #3
20005920:	1889      	adds	r1, r1, r2
20005922:	4299      	cmp	r1, r3
20005924:	4140      	adcs	r0, r0
20005926:	e7f1      	b.n	2000590c <tu_edpt_validate+0x30>
20005928:	2902      	cmp	r1, #2
2000592a:	d004      	beq.n	20005936 <tu_edpt_validate+0x5a>
2000592c:	2000      	movs	r0, #0
2000592e:	2240      	movs	r2, #64	@ 0x40
20005930:	429a      	cmp	r2, r3
20005932:	4140      	adcs	r0, r0
20005934:	e7ea      	b.n	2000590c <tu_edpt_validate+0x30>
20005936:	4a05      	ldr	r2, [pc, #20]	@ (2000594c <tu_edpt_validate+0x70>)
20005938:	1898      	adds	r0, r3, r2
2000593a:	4243      	negs	r3, r0
2000593c:	4158      	adcs	r0, r3
2000593e:	b2c0      	uxtb	r0, r0
20005940:	e7e4      	b.n	2000590c <tu_edpt_validate+0x30>
20005942:	46c0      	nop			@ (mov r8, r8)
20005944:	000003ff 	.word	0x000003ff
20005948:	fffffc40 	.word	0xfffffc40
2000594c:	fffffe00 	.word	0xfffffe00

20005950 <tu_edpt_bind_driver>:
20005950:	4684      	mov	ip, r0
20005952:	1888      	adds	r0, r1, r2
20005954:	b530      	push	{r4, r5, lr}
20005956:	001c      	movs	r4, r3
20005958:	4281      	cmp	r1, r0
2000595a:	d206      	bcs.n	2000596a <tu_edpt_bind_driver+0x1a>
2000595c:	784a      	ldrb	r2, [r1, #1]
2000595e:	2a05      	cmp	r2, #5
20005960:	d004      	beq.n	2000596c <tu_edpt_bind_driver+0x1c>
20005962:	780a      	ldrb	r2, [r1, #0]
20005964:	1889      	adds	r1, r1, r2
20005966:	4288      	cmp	r0, r1
20005968:	d8f8      	bhi.n	2000595c <tu_edpt_bind_driver+0xc>
2000596a:	bd30      	pop	{r4, r5, pc}
2000596c:	227f      	movs	r2, #127	@ 0x7f
2000596e:	788b      	ldrb	r3, [r1, #2]
20005970:	401a      	ands	r2, r3
20005972:	0052      	lsls	r2, r2, #1
20005974:	4462      	add	r2, ip
20005976:	09db      	lsrs	r3, r3, #7
20005978:	54d4      	strb	r4, [r2, r3]
2000597a:	780a      	ldrb	r2, [r1, #0]
2000597c:	1889      	adds	r1, r1, r2
2000597e:	4288      	cmp	r0, r1
20005980:	d8ec      	bhi.n	2000595c <tu_edpt_bind_driver+0xc>
20005982:	e7f2      	b.n	2000596a <tu_edpt_bind_driver+0x1a>

20005984 <tu_fifo_config>:
20005984:	b5f0      	push	{r4, r5, r6, r7, lr}
20005986:	46c6      	mov	lr, r8
20005988:	b500      	push	{lr}
2000598a:	4698      	mov	r8, r3
2000598c:	466b      	mov	r3, sp
2000598e:	7e1e      	ldrb	r6, [r3, #24]
20005990:	2380      	movs	r3, #128	@ 0x80
20005992:	0004      	movs	r4, r0
20005994:	000f      	movs	r7, r1
20005996:	0015      	movs	r5, r2
20005998:	021b      	lsls	r3, r3, #8
2000599a:	429a      	cmp	r2, r3
2000599c:	d826      	bhi.n	200059ec <tu_fifo_config+0x68>
2000599e:	68c0      	ldr	r0, [r0, #12]
200059a0:	2800      	cmp	r0, #0
200059a2:	d003      	beq.n	200059ac <tu_fifo_config+0x28>
200059a4:	2101      	movs	r1, #1
200059a6:	4249      	negs	r1, r1
200059a8:	f001 f9a2 	bl	20006cf0 <mutex_enter_timeout_ms>
200059ac:	6920      	ldr	r0, [r4, #16]
200059ae:	2800      	cmp	r0, #0
200059b0:	d003      	beq.n	200059ba <tu_fifo_config+0x36>
200059b2:	2101      	movs	r1, #1
200059b4:	4249      	negs	r1, r1
200059b6:	f001 f99b 	bl	20006cf0 <mutex_enter_timeout_ms>
200059ba:	4642      	mov	r2, r8
200059bc:	0452      	lsls	r2, r2, #17
200059be:	03f3      	lsls	r3, r6, #15
200059c0:	0c52      	lsrs	r2, r2, #17
200059c2:	4313      	orrs	r3, r2
200059c4:	80e3      	strh	r3, [r4, #6]
200059c6:	2300      	movs	r3, #0
200059c8:	68e0      	ldr	r0, [r4, #12]
200059ca:	8163      	strh	r3, [r4, #10]
200059cc:	6027      	str	r7, [r4, #0]
200059ce:	80a5      	strh	r5, [r4, #4]
200059d0:	8123      	strh	r3, [r4, #8]
200059d2:	2800      	cmp	r0, #0
200059d4:	d001      	beq.n	200059da <tu_fifo_config+0x56>
200059d6:	f001 f9d1 	bl	20006d7c <mutex_exit>
200059da:	6920      	ldr	r0, [r4, #16]
200059dc:	2800      	cmp	r0, #0
200059de:	d001      	beq.n	200059e4 <tu_fifo_config+0x60>
200059e0:	f001 f9cc 	bl	20006d7c <mutex_exit>
200059e4:	2001      	movs	r0, #1
200059e6:	bc80      	pop	{r7}
200059e8:	46b8      	mov	r8, r7
200059ea:	bdf0      	pop	{r4, r5, r6, r7, pc}
200059ec:	2000      	movs	r0, #0
200059ee:	e7fa      	b.n	200059e6 <tu_fifo_config+0x62>

200059f0 <tu_fifo_count>:
200059f0:	8903      	ldrh	r3, [r0, #8]
200059f2:	8941      	ldrh	r1, [r0, #10]
200059f4:	469c      	mov	ip, r3
200059f6:	8882      	ldrh	r2, [r0, #4]
200059f8:	b29b      	uxth	r3, r3
200059fa:	b288      	uxth	r0, r1
200059fc:	458c      	cmp	ip, r1
200059fe:	d307      	bcc.n	20005a10 <tu_fifo_count+0x20>
20005a00:	1a1b      	subs	r3, r3, r0
20005a02:	b29b      	uxth	r3, r3
20005a04:	1c10      	adds	r0, r2, #0
20005a06:	429a      	cmp	r2, r3
20005a08:	d900      	bls.n	20005a0c <tu_fifo_count+0x1c>
20005a0a:	1c18      	adds	r0, r3, #0
20005a0c:	b280      	uxth	r0, r0
20005a0e:	4770      	bx	lr
20005a10:	0051      	lsls	r1, r2, #1
20005a12:	1a09      	subs	r1, r1, r0
20005a14:	185b      	adds	r3, r3, r1
20005a16:	b29b      	uxth	r3, r3
20005a18:	e7f4      	b.n	20005a04 <tu_fifo_count+0x14>
20005a1a:	46c0      	nop			@ (mov r8, r8)

20005a1c <tu_fifo_remaining>:
20005a1c:	8903      	ldrh	r3, [r0, #8]
20005a1e:	8941      	ldrh	r1, [r0, #10]
20005a20:	469c      	mov	ip, r3
20005a22:	8882      	ldrh	r2, [r0, #4]
20005a24:	b29b      	uxth	r3, r3
20005a26:	b288      	uxth	r0, r1
20005a28:	458c      	cmp	ip, r1
20005a2a:	d307      	bcc.n	20005a3c <tu_fifo_remaining+0x20>
20005a2c:	1a1b      	subs	r3, r3, r0
20005a2e:	b29b      	uxth	r3, r3
20005a30:	2000      	movs	r0, #0
20005a32:	429a      	cmp	r2, r3
20005a34:	d901      	bls.n	20005a3a <tu_fifo_remaining+0x1e>
20005a36:	1ad2      	subs	r2, r2, r3
20005a38:	b290      	uxth	r0, r2
20005a3a:	4770      	bx	lr
20005a3c:	0051      	lsls	r1, r2, #1
20005a3e:	1a09      	subs	r1, r1, r0
20005a40:	185b      	adds	r3, r3, r1
20005a42:	b29b      	uxth	r3, r3
20005a44:	e7f4      	b.n	20005a30 <tu_fifo_remaining+0x14>
20005a46:	46c0      	nop			@ (mov r8, r8)

20005a48 <tu_fifo_read>:
20005a48:	b570      	push	{r4, r5, r6, lr}
20005a4a:	0004      	movs	r4, r0
20005a4c:	6900      	ldr	r0, [r0, #16]
20005a4e:	000d      	movs	r5, r1
20005a50:	2800      	cmp	r0, #0
20005a52:	d003      	beq.n	20005a5c <tu_fifo_read+0x14>
20005a54:	2101      	movs	r1, #1
20005a56:	4249      	negs	r1, r1
20005a58:	f001 f94a 	bl	20006cf0 <mutex_enter_timeout_ms>
20005a5c:	8923      	ldrh	r3, [r4, #8]
20005a5e:	8962      	ldrh	r2, [r4, #10]
20005a60:	469c      	mov	ip, r3
20005a62:	b298      	uxth	r0, r3
20005a64:	b291      	uxth	r1, r2
20005a66:	88a3      	ldrh	r3, [r4, #4]
20005a68:	4594      	cmp	ip, r2
20005a6a:	d332      	bcc.n	20005ad2 <tu_fifo_read+0x8a>
20005a6c:	1a42      	subs	r2, r0, r1
20005a6e:	b292      	uxth	r2, r2
20005a70:	2a00      	cmp	r2, #0
20005a72:	d027      	beq.n	20005ac4 <tu_fifo_read+0x7c>
20005a74:	4293      	cmp	r3, r2
20005a76:	d208      	bcs.n	20005a8a <tu_fifo_read+0x42>
20005a78:	4298      	cmp	r0, r3
20005a7a:	d32f      	bcc.n	20005adc <tu_fifo_read+0x94>
20005a7c:	1ac0      	subs	r0, r0, r3
20005a7e:	b281      	uxth	r1, r0
20005a80:	8161      	strh	r1, [r4, #10]
20005a82:	428b      	cmp	r3, r1
20005a84:	d803      	bhi.n	20005a8e <tu_fifo_read+0x46>
20005a86:	1ac9      	subs	r1, r1, r3
20005a88:	b289      	uxth	r1, r1
20005a8a:	428b      	cmp	r3, r1
20005a8c:	d9fb      	bls.n	20005a86 <tu_fifo_read+0x3e>
20005a8e:	88e2      	ldrh	r2, [r4, #6]
20005a90:	6823      	ldr	r3, [r4, #0]
20005a92:	0452      	lsls	r2, r2, #17
20005a94:	0c52      	lsrs	r2, r2, #17
20005a96:	4351      	muls	r1, r2
20005a98:	0028      	movs	r0, r5
20005a9a:	1859      	adds	r1, r3, r1
20005a9c:	f7fe fa1a 	bl	20003ed4 <__wrap___aeabi_memcpy>
20005aa0:	8961      	ldrh	r1, [r4, #10]
20005aa2:	2501      	movs	r5, #1
20005aa4:	1c4a      	adds	r2, r1, #1
20005aa6:	b292      	uxth	r2, r2
20005aa8:	88a3      	ldrh	r3, [r4, #4]
20005aaa:	4291      	cmp	r1, r2
20005aac:	d90d      	bls.n	20005aca <tu_fifo_read+0x82>
20005aae:	2200      	movs	r2, #0
20005ab0:	005b      	lsls	r3, r3, #1
20005ab2:	1ad2      	subs	r2, r2, r3
20005ab4:	6920      	ldr	r0, [r4, #16]
20005ab6:	8162      	strh	r2, [r4, #10]
20005ab8:	2800      	cmp	r0, #0
20005aba:	d001      	beq.n	20005ac0 <tu_fifo_read+0x78>
20005abc:	f001 f95e 	bl	20006d7c <mutex_exit>
20005ac0:	0028      	movs	r0, r5
20005ac2:	bd70      	pop	{r4, r5, r6, pc}
20005ac4:	2500      	movs	r5, #0
20005ac6:	8962      	ldrh	r2, [r4, #10]
20005ac8:	b292      	uxth	r2, r2
20005aca:	005b      	lsls	r3, r3, #1
20005acc:	429a      	cmp	r2, r3
20005ace:	dbf1      	blt.n	20005ab4 <tu_fifo_read+0x6c>
20005ad0:	e7ef      	b.n	20005ab2 <tu_fifo_read+0x6a>
20005ad2:	005a      	lsls	r2, r3, #1
20005ad4:	1a52      	subs	r2, r2, r1
20005ad6:	1882      	adds	r2, r0, r2
20005ad8:	b292      	uxth	r2, r2
20005ada:	e7c9      	b.n	20005a70 <tu_fifo_read+0x28>
20005adc:	18c0      	adds	r0, r0, r3
20005ade:	b281      	uxth	r1, r0
20005ae0:	8161      	strh	r1, [r4, #10]
20005ae2:	e7ce      	b.n	20005a82 <tu_fifo_read+0x3a>

20005ae4 <tu_fifo_read_n>:
20005ae4:	b5f0      	push	{r4, r5, r6, r7, lr}
20005ae6:	4646      	mov	r6, r8
20005ae8:	46d6      	mov	lr, sl
20005aea:	464f      	mov	r7, r9
20005aec:	b5c0      	push	{r6, r7, lr}
20005aee:	0006      	movs	r6, r0
20005af0:	6900      	ldr	r0, [r0, #16]
20005af2:	468a      	mov	sl, r1
20005af4:	4690      	mov	r8, r2
20005af6:	b082      	sub	sp, #8
20005af8:	2800      	cmp	r0, #0
20005afa:	d003      	beq.n	20005b04 <tu_fifo_read_n+0x20>
20005afc:	2101      	movs	r1, #1
20005afe:	4249      	negs	r1, r1
20005b00:	f001 f8f6 	bl	20006cf0 <mutex_enter_timeout_ms>
20005b04:	8931      	ldrh	r1, [r6, #8]
20005b06:	8972      	ldrh	r2, [r6, #10]
20005b08:	88b5      	ldrh	r5, [r6, #4]
20005b0a:	b28b      	uxth	r3, r1
20005b0c:	b294      	uxth	r4, r2
20005b0e:	4291      	cmp	r1, r2
20005b10:	d355      	bcc.n	20005bbe <tu_fifo_read_n+0xda>
20005b12:	1b1f      	subs	r7, r3, r4
20005b14:	b2bf      	uxth	r7, r7
20005b16:	2f00      	cmp	r7, #0
20005b18:	d04b      	beq.n	20005bb2 <tu_fifo_read_n+0xce>
20005b1a:	42bd      	cmp	r5, r7
20005b1c:	d205      	bcs.n	20005b2a <tu_fifo_read_n+0x46>
20005b1e:	42ab      	cmp	r3, r5
20005b20:	d252      	bcs.n	20005bc8 <tu_fifo_read_n+0xe4>
20005b22:	195b      	adds	r3, r3, r5
20005b24:	b29c      	uxth	r4, r3
20005b26:	002f      	movs	r7, r5
20005b28:	8174      	strh	r4, [r6, #10]
20005b2a:	4643      	mov	r3, r8
20005b2c:	45b8      	cmp	r8, r7
20005b2e:	d83e      	bhi.n	20005bae <tu_fifo_read_n+0xca>
20005b30:	b29f      	uxth	r7, r3
20005b32:	42a5      	cmp	r5, r4
20005b34:	d803      	bhi.n	20005b3e <tu_fifo_read_n+0x5a>
20005b36:	1b64      	subs	r4, r4, r5
20005b38:	b2a4      	uxth	r4, r4
20005b3a:	42a5      	cmp	r5, r4
20005b3c:	d9fb      	bls.n	20005b36 <tu_fifo_read_n+0x52>
20005b3e:	88f2      	ldrh	r2, [r6, #6]
20005b40:	6831      	ldr	r1, [r6, #0]
20005b42:	0452      	lsls	r2, r2, #17
20005b44:	0c50      	lsrs	r0, r2, #17
20005b46:	0002      	movs	r2, r0
20005b48:	4362      	muls	r2, r4
20005b4a:	1b2b      	subs	r3, r5, r4
20005b4c:	b29b      	uxth	r3, r3
20005b4e:	1889      	adds	r1, r1, r2
20005b50:	9001      	str	r0, [sp, #4]
20005b52:	0002      	movs	r2, r0
20005b54:	429f      	cmp	r7, r3
20005b56:	d925      	bls.n	20005ba4 <tu_fifo_read_n+0xc0>
20005b58:	4343      	muls	r3, r0
20005b5a:	b29b      	uxth	r3, r3
20005b5c:	001a      	movs	r2, r3
20005b5e:	4650      	mov	r0, sl
20005b60:	4699      	mov	r9, r3
20005b62:	f7fe f9b7 	bl	20003ed4 <__wrap___aeabi_memcpy>
20005b66:	4650      	mov	r0, sl
20005b68:	9a01      	ldr	r2, [sp, #4]
20005b6a:	1b7d      	subs	r5, r7, r5
20005b6c:	1964      	adds	r4, r4, r5
20005b6e:	4354      	muls	r4, r2
20005b70:	6831      	ldr	r1, [r6, #0]
20005b72:	4448      	add	r0, r9
20005b74:	b2a2      	uxth	r2, r4
20005b76:	f7fe f9ad 	bl	20003ed4 <__wrap___aeabi_memcpy>
20005b7a:	8971      	ldrh	r1, [r6, #10]
20005b7c:	88b5      	ldrh	r5, [r6, #4]
20005b7e:	19cb      	adds	r3, r1, r7
20005b80:	b29b      	uxth	r3, r3
20005b82:	006a      	lsls	r2, r5, #1
20005b84:	4299      	cmp	r1, r3
20005b86:	d916      	bls.n	20005bb6 <tu_fifo_read_n+0xd2>
20005b88:	1a9b      	subs	r3, r3, r2
20005b8a:	6930      	ldr	r0, [r6, #16]
20005b8c:	8173      	strh	r3, [r6, #10]
20005b8e:	2800      	cmp	r0, #0
20005b90:	d001      	beq.n	20005b96 <tu_fifo_read_n+0xb2>
20005b92:	f001 f8f3 	bl	20006d7c <mutex_exit>
20005b96:	0038      	movs	r0, r7
20005b98:	b002      	add	sp, #8
20005b9a:	bce0      	pop	{r5, r6, r7}
20005b9c:	46ba      	mov	sl, r7
20005b9e:	46b1      	mov	r9, r6
20005ba0:	46a8      	mov	r8, r5
20005ba2:	bdf0      	pop	{r4, r5, r6, r7, pc}
20005ba4:	4650      	mov	r0, sl
20005ba6:	437a      	muls	r2, r7
20005ba8:	f7fe f994 	bl	20003ed4 <__wrap___aeabi_memcpy>
20005bac:	e7e5      	b.n	20005b7a <tu_fifo_read_n+0x96>
20005bae:	1c3b      	adds	r3, r7, #0
20005bb0:	e7be      	b.n	20005b30 <tu_fifo_read_n+0x4c>
20005bb2:	8973      	ldrh	r3, [r6, #10]
20005bb4:	b29b      	uxth	r3, r3
20005bb6:	006a      	lsls	r2, r5, #1
20005bb8:	4293      	cmp	r3, r2
20005bba:	dbe6      	blt.n	20005b8a <tu_fifo_read_n+0xa6>
20005bbc:	e7e4      	b.n	20005b88 <tu_fifo_read_n+0xa4>
20005bbe:	006f      	lsls	r7, r5, #1
20005bc0:	1b3f      	subs	r7, r7, r4
20005bc2:	19df      	adds	r7, r3, r7
20005bc4:	b2bf      	uxth	r7, r7
20005bc6:	e7a6      	b.n	20005b16 <tu_fifo_read_n+0x32>
20005bc8:	1b5b      	subs	r3, r3, r5
20005bca:	b29c      	uxth	r4, r3
20005bcc:	e7ab      	b.n	20005b26 <tu_fifo_read_n+0x42>
20005bce:	46c0      	nop			@ (mov r8, r8)

20005bd0 <tu_fifo_write>:
20005bd0:	b5f8      	push	{r3, r4, r5, r6, r7, lr}
20005bd2:	0004      	movs	r4, r0
20005bd4:	68c0      	ldr	r0, [r0, #12]
20005bd6:	000f      	movs	r7, r1
20005bd8:	2800      	cmp	r0, #0
20005bda:	d003      	beq.n	20005be4 <tu_fifo_write+0x14>
20005bdc:	2101      	movs	r1, #1
20005bde:	4249      	negs	r1, r1
20005be0:	f001 f886 	bl	20006cf0 <mutex_enter_timeout_ms>
20005be4:	8925      	ldrh	r5, [r4, #8]
20005be6:	8920      	ldrh	r0, [r4, #8]
20005be8:	8961      	ldrh	r1, [r4, #10]
20005bea:	88a2      	ldrh	r2, [r4, #4]
20005bec:	b2ad      	uxth	r5, r5
20005bee:	b283      	uxth	r3, r0
20005bf0:	b28e      	uxth	r6, r1
20005bf2:	4288      	cmp	r0, r1
20005bf4:	d328      	bcc.n	20005c48 <tu_fifo_write+0x78>
20005bf6:	1b9b      	subs	r3, r3, r6
20005bf8:	b29b      	uxth	r3, r3
20005bfa:	429a      	cmp	r2, r3
20005bfc:	d809      	bhi.n	20005c12 <tu_fifo_write+0x42>
20005bfe:	79e6      	ldrb	r6, [r4, #7]
20005c00:	09f6      	lsrs	r6, r6, #7
20005c02:	d106      	bne.n	20005c12 <tu_fifo_write+0x42>
20005c04:	68e0      	ldr	r0, [r4, #12]
20005c06:	2800      	cmp	r0, #0
20005c08:	d001      	beq.n	20005c0e <tu_fifo_write+0x3e>
20005c0a:	f001 f8b7 	bl	20006d7c <mutex_exit>
20005c0e:	0030      	movs	r0, r6
20005c10:	bdf8      	pop	{r3, r4, r5, r6, r7, pc}
20005c12:	002b      	movs	r3, r5
20005c14:	4295      	cmp	r5, r2
20005c16:	d31c      	bcc.n	20005c52 <tu_fifo_write+0x82>
20005c18:	1a9b      	subs	r3, r3, r2
20005c1a:	b29b      	uxth	r3, r3
20005c1c:	4293      	cmp	r3, r2
20005c1e:	d2fb      	bcs.n	20005c18 <tu_fifo_write+0x48>
20005c20:	88e2      	ldrh	r2, [r4, #6]
20005c22:	6820      	ldr	r0, [r4, #0]
20005c24:	0452      	lsls	r2, r2, #17
20005c26:	0c52      	lsrs	r2, r2, #17
20005c28:	4353      	muls	r3, r2
20005c2a:	0039      	movs	r1, r7
20005c2c:	18c0      	adds	r0, r0, r3
20005c2e:	f7fe f951 	bl	20003ed4 <__wrap___aeabi_memcpy>
20005c32:	1c6b      	adds	r3, r5, #1
20005c34:	b29b      	uxth	r3, r3
20005c36:	88a2      	ldrh	r2, [r4, #4]
20005c38:	429d      	cmp	r5, r3
20005c3a:	d916      	bls.n	20005c6a <tu_fifo_write+0x9a>
20005c3c:	2300      	movs	r3, #0
20005c3e:	0052      	lsls	r2, r2, #1
20005c40:	1a9b      	subs	r3, r3, r2
20005c42:	2601      	movs	r6, #1
20005c44:	8123      	strh	r3, [r4, #8]
20005c46:	e7dd      	b.n	20005c04 <tu_fifo_write+0x34>
20005c48:	0051      	lsls	r1, r2, #1
20005c4a:	1b89      	subs	r1, r1, r6
20005c4c:	185b      	adds	r3, r3, r1
20005c4e:	b29b      	uxth	r3, r3
20005c50:	e7d3      	b.n	20005bfa <tu_fifo_write+0x2a>
20005c52:	88e2      	ldrh	r2, [r4, #6]
20005c54:	6820      	ldr	r0, [r4, #0]
20005c56:	0452      	lsls	r2, r2, #17
20005c58:	0c52      	lsrs	r2, r2, #17
20005c5a:	4353      	muls	r3, r2
20005c5c:	0039      	movs	r1, r7
20005c5e:	18c0      	adds	r0, r0, r3
20005c60:	f7fe f938 	bl	20003ed4 <__wrap___aeabi_memcpy>
20005c64:	3501      	adds	r5, #1
20005c66:	88a2      	ldrh	r2, [r4, #4]
20005c68:	b2ab      	uxth	r3, r5
20005c6a:	0052      	lsls	r2, r2, #1
20005c6c:	4293      	cmp	r3, r2
20005c6e:	dbe8      	blt.n	20005c42 <tu_fifo_write+0x72>
20005c70:	e7e6      	b.n	20005c40 <tu_fifo_write+0x70>
20005c72:	46c0      	nop			@ (mov r8, r8)

20005c74 <tu_fifo_write_n>:
20005c74:	b5f0      	push	{r4, r5, r6, r7, lr}
20005c76:	464e      	mov	r6, r9
20005c78:	4645      	mov	r5, r8
20005c7a:	46de      	mov	lr, fp
20005c7c:	4657      	mov	r7, sl
20005c7e:	b5e0      	push	{r5, r6, r7, lr}
20005c80:	4689      	mov	r9, r1
20005c82:	0005      	movs	r5, r0
20005c84:	0016      	movs	r6, r2
20005c86:	b083      	sub	sp, #12
20005c88:	2a00      	cmp	r2, #0
20005c8a:	d06b      	beq.n	20005d64 <tu_fifo_write_n+0xf0>
20005c8c:	68c0      	ldr	r0, [r0, #12]
20005c8e:	2800      	cmp	r0, #0
20005c90:	d003      	beq.n	20005c9a <tu_fifo_write_n+0x26>
20005c92:	2101      	movs	r1, #1
20005c94:	4249      	negs	r1, r1
20005c96:	f001 f82b 	bl	20006cf0 <mutex_enter_timeout_ms>
20005c9a:	892f      	ldrh	r7, [r5, #8]
20005c9c:	79ea      	ldrb	r2, [r5, #7]
20005c9e:	b2bb      	uxth	r3, r7
20005ca0:	4698      	mov	r8, r3
20005ca2:	896b      	ldrh	r3, [r5, #10]
20005ca4:	88af      	ldrh	r7, [r5, #4]
20005ca6:	b29b      	uxth	r3, r3
20005ca8:	09d2      	lsrs	r2, r2, #7
20005caa:	d13d      	bne.n	20005d28 <tu_fifo_write_n+0xb4>
20005cac:	4598      	cmp	r8, r3
20005cae:	d262      	bcs.n	20005d76 <tu_fifo_write_n+0x102>
20005cb0:	007a      	lsls	r2, r7, #1
20005cb2:	1ad3      	subs	r3, r2, r3
20005cb4:	4443      	add	r3, r8
20005cb6:	b29b      	uxth	r3, r3
20005cb8:	42bb      	cmp	r3, r7
20005cba:	d261      	bcs.n	20005d80 <tu_fifo_write_n+0x10c>
20005cbc:	1afb      	subs	r3, r7, r3
20005cbe:	1c1a      	adds	r2, r3, #0
20005cc0:	b29b      	uxth	r3, r3
20005cc2:	42b3      	cmp	r3, r6
20005cc4:	d900      	bls.n	20005cc8 <tu_fifo_write_n+0x54>
20005cc6:	1c32      	adds	r2, r6, #0
20005cc8:	b296      	uxth	r6, r2
20005cca:	1bf3      	subs	r3, r6, r7
20005ccc:	9301      	str	r3, [sp, #4]
20005cce:	4643      	mov	r3, r8
20005cd0:	18f3      	adds	r3, r6, r3
20005cd2:	b29b      	uxth	r3, r3
20005cd4:	469b      	mov	fp, r3
20005cd6:	88ea      	ldrh	r2, [r5, #6]
20005cd8:	4644      	mov	r4, r8
20005cda:	45b8      	cmp	r8, r7
20005cdc:	d303      	bcc.n	20005ce6 <tu_fifo_write_n+0x72>
20005cde:	1be4      	subs	r4, r4, r7
20005ce0:	b2a4      	uxth	r4, r4
20005ce2:	42bc      	cmp	r4, r7
20005ce4:	d2fb      	bcs.n	20005cde <tu_fifo_write_n+0x6a>
20005ce6:	0452      	lsls	r2, r2, #17
20005ce8:	1b3b      	subs	r3, r7, r4
20005cea:	0c57      	lsrs	r7, r2, #17
20005cec:	003a      	movs	r2, r7
20005cee:	4362      	muls	r2, r4
20005cf0:	6828      	ldr	r0, [r5, #0]
20005cf2:	b29b      	uxth	r3, r3
20005cf4:	1880      	adds	r0, r0, r2
20005cf6:	42b3      	cmp	r3, r6
20005cf8:	d356      	bcc.n	20005da8 <tu_fifo_write_n+0x134>
20005cfa:	003a      	movs	r2, r7
20005cfc:	4649      	mov	r1, r9
20005cfe:	4372      	muls	r2, r6
20005d00:	f7fe f8e8 	bl	20003ed4 <__wrap___aeabi_memcpy>
20005d04:	88ab      	ldrh	r3, [r5, #4]
20005d06:	005b      	lsls	r3, r3, #1
20005d08:	45d8      	cmp	r8, fp
20005d0a:	d801      	bhi.n	20005d10 <tu_fifo_write_n+0x9c>
20005d0c:	459b      	cmp	fp, r3
20005d0e:	db02      	blt.n	20005d16 <tu_fifo_write_n+0xa2>
20005d10:	465a      	mov	r2, fp
20005d12:	1ad3      	subs	r3, r2, r3
20005d14:	469b      	mov	fp, r3
20005d16:	465b      	mov	r3, fp
20005d18:	0037      	movs	r7, r6
20005d1a:	812b      	strh	r3, [r5, #8]
20005d1c:	68e8      	ldr	r0, [r5, #12]
20005d1e:	2800      	cmp	r0, #0
20005d20:	d021      	beq.n	20005d66 <tu_fifo_write_n+0xf2>
20005d22:	f001 f82b 	bl	20006d7c <mutex_exit>
20005d26:	e01e      	b.n	20005d66 <tu_fifo_write_n+0xf2>
20005d28:	42be      	cmp	r6, r7
20005d2a:	d22b      	bcs.n	20005d84 <tu_fifo_write_n+0x110>
20005d2c:	4598      	cmp	r8, r3
20005d2e:	d34c      	bcc.n	20005dca <tu_fifo_write_n+0x156>
20005d30:	4642      	mov	r2, r8
20005d32:	1ad2      	subs	r2, r2, r3
20005d34:	b292      	uxth	r2, r2
20005d36:	0079      	lsls	r1, r7, #1
20005d38:	1bf0      	subs	r0, r6, r7
20005d3a:	1992      	adds	r2, r2, r6
20005d3c:	9001      	str	r0, [sp, #4]
20005d3e:	428a      	cmp	r2, r1
20005d40:	dbc5      	blt.n	20005cce <tu_fifo_write_n+0x5a>
20005d42:	19da      	adds	r2, r3, r7
20005d44:	b292      	uxth	r2, r2
20005d46:	4693      	mov	fp, r2
20005d48:	1b92      	subs	r2, r2, r6
20005d4a:	b292      	uxth	r2, r2
20005d4c:	4690      	mov	r8, r2
20005d4e:	4293      	cmp	r3, r2
20005d50:	d940      	bls.n	20005dd4 <tu_fifo_write_n+0x160>
20005d52:	4643      	mov	r3, r8
20005d54:	1a59      	subs	r1, r3, r1
20005d56:	b28b      	uxth	r3, r1
20005d58:	4698      	mov	r8, r3
20005d5a:	18f3      	adds	r3, r6, r3
20005d5c:	b29b      	uxth	r3, r3
20005d5e:	469b      	mov	fp, r3
20005d60:	88ea      	ldrh	r2, [r5, #6]
20005d62:	e7b9      	b.n	20005cd8 <tu_fifo_write_n+0x64>
20005d64:	2700      	movs	r7, #0
20005d66:	0038      	movs	r0, r7
20005d68:	b003      	add	sp, #12
20005d6a:	bcf0      	pop	{r4, r5, r6, r7}
20005d6c:	46bb      	mov	fp, r7
20005d6e:	46b2      	mov	sl, r6
20005d70:	46a9      	mov	r9, r5
20005d72:	46a0      	mov	r8, r4
20005d74:	bdf0      	pop	{r4, r5, r6, r7, pc}
20005d76:	4642      	mov	r2, r8
20005d78:	1ad3      	subs	r3, r2, r3
20005d7a:	b29b      	uxth	r3, r3
20005d7c:	42bb      	cmp	r3, r7
20005d7e:	d39d      	bcc.n	20005cbc <tu_fifo_write_n+0x48>
20005d80:	2700      	movs	r7, #0
20005d82:	e7cb      	b.n	20005d1c <tu_fifo_write_n+0xa8>
20005d84:	2f00      	cmp	r7, #0
20005d86:	d0c9      	beq.n	20005d1c <tu_fifo_write_n+0xa8>
20005d88:	46cc      	mov	ip, r9
20005d8a:	88ea      	ldrh	r2, [r5, #6]
20005d8c:	1bf6      	subs	r6, r6, r7
20005d8e:	0451      	lsls	r1, r2, #17
20005d90:	0c49      	lsrs	r1, r1, #17
20005d92:	4371      	muls	r1, r6
20005d94:	4698      	mov	r8, r3
20005d96:	448c      	add	ip, r1
20005d98:	19d9      	adds	r1, r3, r7
20005d9a:	2300      	movs	r3, #0
20005d9c:	b289      	uxth	r1, r1
20005d9e:	46e1      	mov	r9, ip
20005da0:	468b      	mov	fp, r1
20005da2:	003e      	movs	r6, r7
20005da4:	9301      	str	r3, [sp, #4]
20005da6:	e797      	b.n	20005cd8 <tu_fifo_write_n+0x64>
20005da8:	437b      	muls	r3, r7
20005daa:	b29b      	uxth	r3, r3
20005dac:	001a      	movs	r2, r3
20005dae:	4649      	mov	r1, r9
20005db0:	469a      	mov	sl, r3
20005db2:	f7fe f88f 	bl	20003ed4 <__wrap___aeabi_memcpy>
20005db6:	4649      	mov	r1, r9
20005db8:	9b01      	ldr	r3, [sp, #4]
20005dba:	6828      	ldr	r0, [r5, #0]
20005dbc:	18e2      	adds	r2, r4, r3
20005dbe:	437a      	muls	r2, r7
20005dc0:	4451      	add	r1, sl
20005dc2:	b292      	uxth	r2, r2
20005dc4:	f7fe f886 	bl	20003ed4 <__wrap___aeabi_memcpy>
20005dc8:	e79c      	b.n	20005d04 <tu_fifo_write_n+0x90>
20005dca:	0079      	lsls	r1, r7, #1
20005dcc:	1aca      	subs	r2, r1, r3
20005dce:	4442      	add	r2, r8
20005dd0:	b292      	uxth	r2, r2
20005dd2:	e7b1      	b.n	20005d38 <tu_fifo_write_n+0xc4>
20005dd4:	4291      	cmp	r1, r2
20005dd6:	ddbc      	ble.n	20005d52 <tu_fifo_write_n+0xde>
20005dd8:	e7c2      	b.n	20005d60 <tu_fifo_write_n+0xec>
20005dda:	46c0      	nop			@ (mov r8, r8)

20005ddc <tu_fifo_clear>:
20005ddc:	b510      	push	{r4, lr}
20005dde:	0004      	movs	r4, r0
20005de0:	68c0      	ldr	r0, [r0, #12]
20005de2:	2800      	cmp	r0, #0
20005de4:	d003      	beq.n	20005dee <tu_fifo_clear+0x12>
20005de6:	2101      	movs	r1, #1
20005de8:	4249      	negs	r1, r1
20005dea:	f000 ff81 	bl	20006cf0 <mutex_enter_timeout_ms>
20005dee:	6920      	ldr	r0, [r4, #16]
20005df0:	2800      	cmp	r0, #0
20005df2:	d003      	beq.n	20005dfc <tu_fifo_clear+0x20>
20005df4:	2101      	movs	r1, #1
20005df6:	4249      	negs	r1, r1
20005df8:	f000 ff7a 	bl	20006cf0 <mutex_enter_timeout_ms>
20005dfc:	2300      	movs	r3, #0
20005dfe:	68e0      	ldr	r0, [r4, #12]
20005e00:	8163      	strh	r3, [r4, #10]
20005e02:	8123      	strh	r3, [r4, #8]
20005e04:	2800      	cmp	r0, #0
20005e06:	d001      	beq.n	20005e0c <tu_fifo_clear+0x30>
20005e08:	f000 ffb8 	bl	20006d7c <mutex_exit>
20005e0c:	6920      	ldr	r0, [r4, #16]
20005e0e:	2800      	cmp	r0, #0
20005e10:	d001      	beq.n	20005e16 <tu_fifo_clear+0x3a>
20005e12:	f000 ffb3 	bl	20006d7c <mutex_exit>
20005e16:	2001      	movs	r0, #1
20005e18:	bd10      	pop	{r4, pc}
20005e1a:	46c0      	nop			@ (mov r8, r8)

20005e1c <board_init>:
20005e1c:	b510      	push	{r4, lr}
20005e1e:	2019      	movs	r0, #25
20005e20:	f7fc f9f0 	bl	20002204 <gpio_init>
20005e24:	23d0      	movs	r3, #208	@ 0xd0
20005e26:	2280      	movs	r2, #128	@ 0x80
20005e28:	061b      	lsls	r3, r3, #24
20005e2a:	0492      	lsls	r2, r2, #18
20005e2c:	625a      	str	r2, [r3, #36]	@ 0x24
20005e2e:	bd10      	pop	{r4, pc}

20005e30 <adc_init>:
20005e30:	2301      	movs	r3, #1
20005e32:	2101      	movs	r1, #1
20005e34:	4a08      	ldr	r2, [pc, #32]	@ (20005e58 <adc_init+0x28>)
20005e36:	6013      	str	r3, [r2, #0]
20005e38:	4a08      	ldr	r2, [pc, #32]	@ (20005e5c <adc_init+0x2c>)
20005e3a:	6013      	str	r3, [r2, #0]
20005e3c:	4a08      	ldr	r2, [pc, #32]	@ (20005e60 <adc_init+0x30>)
20005e3e:	0008      	movs	r0, r1
20005e40:	6813      	ldr	r3, [r2, #0]
20005e42:	4398      	bics	r0, r3
20005e44:	d1fb      	bne.n	20005e3e <adc_init+0xe>
20005e46:	4a07      	ldr	r2, [pc, #28]	@ (20005e64 <adc_init+0x34>)
20005e48:	6011      	str	r1, [r2, #0]
20005e4a:	2180      	movs	r1, #128	@ 0x80
20005e4c:	0049      	lsls	r1, r1, #1
20005e4e:	6813      	ldr	r3, [r2, #0]
20005e50:	420b      	tst	r3, r1
20005e52:	d0fc      	beq.n	20005e4e <adc_init+0x1e>
20005e54:	4770      	bx	lr
20005e56:	46c0      	nop			@ (mov r8, r8)
20005e58:	4000e000 	.word	0x4000e000
20005e5c:	4000f000 	.word	0x4000f000
20005e60:	4000c008 	.word	0x4000c008
20005e64:	4004c000 	.word	0x4004c000

20005e68 <dma_claim_unused_channel>:
20005e68:	b500      	push	{lr}
20005e6a:	4b05      	ldr	r3, [pc, #20]	@ (20005e80 <dma_claim_unused_channel+0x18>)
20005e6c:	b083      	sub	sp, #12
20005e6e:	0001      	movs	r1, r0
20005e70:	9300      	str	r3, [sp, #0]
20005e72:	2200      	movs	r2, #0
20005e74:	230b      	movs	r3, #11
20005e76:	4803      	ldr	r0, [pc, #12]	@ (20005e84 <dma_claim_unused_channel+0x1c>)
20005e78:	f7fc fa28 	bl	200022cc <hw_claim_unused_from_range>
20005e7c:	b003      	add	sp, #12
20005e7e:	bd00      	pop	{pc}
20005e80:	20007bdc 	.word	0x20007bdc
20005e84:	20008eec 	.word	0x20008eec

20005e88 <dma_channel_cleanup>:
20005e88:	4b10      	ldr	r3, [pc, #64]	@ (20005ecc <dma_channel_cleanup+0x44>)
20005e8a:	0182      	lsls	r2, r0, #6
20005e8c:	18d3      	adds	r3, r2, r3
20005e8e:	6819      	ldr	r1, [r3, #0]
20005e90:	02c3      	lsls	r3, r0, #11
20005e92:	404b      	eors	r3, r1
20005e94:	490e      	ldr	r1, [pc, #56]	@ (20005ed0 <dma_channel_cleanup+0x48>)
20005e96:	b510      	push	{r4, lr}
20005e98:	400b      	ands	r3, r1
20005e9a:	490e      	ldr	r1, [pc, #56]	@ (20005ed4 <dma_channel_cleanup+0x4c>)
20005e9c:	24a0      	movs	r4, #160	@ 0xa0
20005e9e:	1851      	adds	r1, r2, r1
20005ea0:	600b      	str	r3, [r1, #0]
20005ea2:	2301      	movs	r3, #1
20005ea4:	4083      	lsls	r3, r0
20005ea6:	0018      	movs	r0, r3
20005ea8:	2180      	movs	r1, #128	@ 0x80
20005eaa:	4b0b      	ldr	r3, [pc, #44]	@ (20005ed8 <dma_channel_cleanup+0x50>)
20005eac:	05e4      	lsls	r4, r4, #23
20005eae:	6018      	str	r0, [r3, #0]
20005eb0:	4b0a      	ldr	r3, [pc, #40]	@ (20005edc <dma_channel_cleanup+0x54>)
20005eb2:	0449      	lsls	r1, r1, #17
20005eb4:	6018      	str	r0, [r3, #0]
20005eb6:	4b0a      	ldr	r3, [pc, #40]	@ (20005ee0 <dma_channel_cleanup+0x58>)
20005eb8:	50e0      	str	r0, [r4, r3]
20005eba:	4b0a      	ldr	r3, [pc, #40]	@ (20005ee4 <dma_channel_cleanup+0x5c>)
20005ebc:	18d2      	adds	r2, r2, r3
20005ebe:	6813      	ldr	r3, [r2, #0]
20005ec0:	420b      	tst	r3, r1
20005ec2:	d1fc      	bne.n	20005ebe <dma_channel_cleanup+0x36>
20005ec4:	2380      	movs	r3, #128	@ 0x80
20005ec6:	00db      	lsls	r3, r3, #3
20005ec8:	50e0      	str	r0, [r4, r3]
20005eca:	bd10      	pop	{r4, pc}
20005ecc:	50000010 	.word	0x50000010
20005ed0:	00007801 	.word	0x00007801
20005ed4:	50001010 	.word	0x50001010
20005ed8:	50003404 	.word	0x50003404
20005edc:	50003414 	.word	0x50003414
20005ee0:	00000444 	.word	0x00000444
20005ee4:	5000000c 	.word	0x5000000c

20005ee8 <spi_init>:
20005ee8:	b5f0      	push	{r4, r5, r6, r7, lr}
20005eea:	4645      	mov	r5, r8
20005eec:	4680      	mov	r8, r0
20005eee:	4a3b      	ldr	r2, [pc, #236]	@ (20005fdc <spi_init+0xf4>)
20005ef0:	464e      	mov	r6, r9
20005ef2:	46de      	mov	lr, fp
20005ef4:	4657      	mov	r7, sl
20005ef6:	4442      	add	r2, r8
20005ef8:	1e53      	subs	r3, r2, #1
20005efa:	419a      	sbcs	r2, r3
20005efc:	2380      	movs	r3, #128	@ 0x80
20005efe:	b5e0      	push	{r5, r6, r7, lr}
20005f00:	025b      	lsls	r3, r3, #9
20005f02:	0412      	lsls	r2, r2, #16
20005f04:	18d2      	adds	r2, r2, r3
20005f06:	4b36      	ldr	r3, [pc, #216]	@ (20005fe0 <spi_init+0xf8>)
20005f08:	b083      	sub	sp, #12
20005f0a:	601a      	str	r2, [r3, #0]
20005f0c:	4b35      	ldr	r3, [pc, #212]	@ (20005fe4 <spi_init+0xfc>)
20005f0e:	4689      	mov	r9, r1
20005f10:	4935      	ldr	r1, [pc, #212]	@ (20005fe8 <spi_init+0x100>)
20005f12:	601a      	str	r2, [r3, #0]
20005f14:	0015      	movs	r5, r2
20005f16:	680b      	ldr	r3, [r1, #0]
20005f18:	439d      	bics	r5, r3
20005f1a:	d1fb      	bne.n	20005f14 <spi_init+0x2c>
20005f1c:	2006      	movs	r0, #6
20005f1e:	f7fd f9eb 	bl	200032f8 <clock_get_hz>
20005f22:	4643      	mov	r3, r8
20005f24:	685a      	ldr	r2, [r3, #4]
20005f26:	2302      	movs	r3, #2
20005f28:	401a      	ands	r2, r3
20005f2a:	9200      	str	r2, [sp, #0]
20005f2c:	4a2f      	ldr	r2, [pc, #188]	@ (20005fec <spi_init+0x104>)
20005f2e:	2680      	movs	r6, #128	@ 0x80
20005f30:	4442      	add	r2, r8
20005f32:	6013      	str	r3, [r2, #0]
20005f34:	464b      	mov	r3, r9
20005f36:	4682      	mov	sl, r0
20005f38:	0dd9      	lsrs	r1, r3, #23
20005f3a:	0258      	lsls	r0, r3, #9
20005f3c:	9201      	str	r2, [sp, #4]
20005f3e:	000b      	movs	r3, r1
20005f40:	0002      	movs	r2, r0
20005f42:	2402      	movs	r4, #2
20005f44:	0076      	lsls	r6, r6, #1
20005f46:	e006      	b.n	20005f56 <spi_init+0x6e>
20005f48:	4592      	cmp	sl, r2
20005f4a:	d306      	bcc.n	20005f5a <spi_init+0x72>
20005f4c:	3402      	adds	r4, #2
20005f4e:	1812      	adds	r2, r2, r0
20005f50:	414b      	adcs	r3, r1
20005f52:	42b4      	cmp	r4, r6
20005f54:	d001      	beq.n	20005f5a <spi_init+0x72>
20005f56:	2b00      	cmp	r3, #0
20005f58:	d0f6      	beq.n	20005f48 <spi_init+0x60>
20005f5a:	2780      	movs	r7, #128	@ 0x80
20005f5c:	0226      	lsls	r6, r4, #8
20005f5e:	1b36      	subs	r6, r6, r4
20005f60:	007f      	lsls	r7, r7, #1
20005f62:	e002      	b.n	20005f6a <spi_init+0x82>
20005f64:	1b36      	subs	r6, r6, r4
20005f66:	2f01      	cmp	r7, #1
20005f68:	d036      	beq.n	20005fd8 <spi_init+0xf0>
20005f6a:	0031      	movs	r1, r6
20005f6c:	4650      	mov	r0, sl
20005f6e:	46bb      	mov	fp, r7
20005f70:	3f01      	subs	r7, #1
20005f72:	f7fd fdf5 	bl	20003b60 <__wrap___aeabi_uidiv>
20005f76:	4581      	cmp	r9, r0
20005f78:	d2f4      	bcs.n	20005f64 <spi_init+0x7c>
20005f7a:	4659      	mov	r1, fp
20005f7c:	4361      	muls	r1, r4
20005f7e:	023d      	lsls	r5, r7, #8
20005f80:	4643      	mov	r3, r8
20005f82:	611c      	str	r4, [r3, #16]
20005f84:	681b      	ldr	r3, [r3, #0]
20005f86:	22ff      	movs	r2, #255	@ 0xff
20005f88:	406b      	eors	r3, r5
20005f8a:	2580      	movs	r5, #128	@ 0x80
20005f8c:	0212      	lsls	r2, r2, #8
20005f8e:	016d      	lsls	r5, r5, #5
20005f90:	4013      	ands	r3, r2
20005f92:	4445      	add	r5, r8
20005f94:	4a16      	ldr	r2, [pc, #88]	@ (20005ff0 <spi_init+0x108>)
20005f96:	602b      	str	r3, [r5, #0]
20005f98:	9b00      	ldr	r3, [sp, #0]
20005f9a:	4442      	add	r2, r8
20005f9c:	6013      	str	r3, [r2, #0]
20005f9e:	2002      	movs	r0, #2
20005fa0:	4643      	mov	r3, r8
20005fa2:	9c01      	ldr	r4, [sp, #4]
20005fa4:	685b      	ldr	r3, [r3, #4]
20005fa6:	6020      	str	r0, [r4, #0]
20005fa8:	4644      	mov	r4, r8
20005faa:	6826      	ldr	r6, [r4, #0]
20005fac:	2407      	movs	r4, #7
20005fae:	4066      	eors	r6, r4
20005fb0:	34c8      	adds	r4, #200	@ 0xc8
20005fb2:	4034      	ands	r4, r6
20005fb4:	602c      	str	r4, [r5, #0]
20005fb6:	2403      	movs	r4, #3
20005fb8:	4003      	ands	r3, r0
20005fba:	6013      	str	r3, [r2, #0]
20005fbc:	4b0d      	ldr	r3, [pc, #52]	@ (20005ff4 <spi_init+0x10c>)
20005fbe:	4443      	add	r3, r8
20005fc0:	601c      	str	r4, [r3, #0]
20005fc2:	6010      	str	r0, [r2, #0]
20005fc4:	4650      	mov	r0, sl
20005fc6:	f7fd fdcb 	bl	20003b60 <__wrap___aeabi_uidiv>
20005fca:	b003      	add	sp, #12
20005fcc:	bcf0      	pop	{r4, r5, r6, r7}
20005fce:	46bb      	mov	fp, r7
20005fd0:	46b2      	mov	sl, r6
20005fd2:	46a9      	mov	r9, r5
20005fd4:	46a0      	mov	r8, r4
20005fd6:	bdf0      	pop	{r4, r5, r6, r7, pc}
20005fd8:	0021      	movs	r1, r4
20005fda:	e7d1      	b.n	20005f80 <spi_init+0x98>
20005fdc:	bffc4000 	.word	0xbffc4000
20005fe0:	4000e000 	.word	0x4000e000
20005fe4:	4000f000 	.word	0x4000f000
20005fe8:	4000c008 	.word	0x4000c008
20005fec:	00003004 	.word	0x00003004
20005ff0:	00002004 	.word	0x00002004
20005ff4:	00002024 	.word	0x00002024

20005ff8 <i2c_write_blocking_internal>:
20005ff8:	b5f0      	push	{r4, r5, r6, r7, lr}
20005ffa:	4657      	mov	r7, sl
20005ffc:	464e      	mov	r6, r9
20005ffe:	4645      	mov	r5, r8
20006000:	46de      	mov	lr, fp
20006002:	b5e0      	push	{r5, r6, r7, lr}
20006004:	b087      	sub	sp, #28
20006006:	001c      	movs	r4, r3
20006008:	9303      	str	r3, [sp, #12]
2000600a:	ab10      	add	r3, sp, #64	@ 0x40
2000600c:	9201      	str	r2, [sp, #4]
2000600e:	781a      	ldrb	r2, [r3, #0]
20006010:	2300      	movs	r3, #0
20006012:	0006      	movs	r6, r0
20006014:	6800      	ldr	r0, [r0, #0]
20006016:	9d11      	ldr	r5, [sp, #68]	@ 0x44
20006018:	66c3      	str	r3, [r0, #108]	@ 0x6c
2000601a:	3301      	adds	r3, #1
2000601c:	6041      	str	r1, [r0, #4]
2000601e:	9f12      	ldr	r7, [sp, #72]	@ 0x48
20006020:	9204      	str	r2, [sp, #16]
20006022:	66c3      	str	r3, [r0, #108]	@ 0x6c
20006024:	2c00      	cmp	r4, #0
20006026:	dc00      	bgt.n	2000602a <i2c_write_blocking_internal+0x32>
20006028:	e092      	b.n	20006150 <i2c_write_blocking_internal+0x158>
2000602a:	1e63      	subs	r3, r4, #1
2000602c:	469b      	mov	fp, r3
2000602e:	2301      	movs	r3, #1
20006030:	405a      	eors	r2, r3
20006032:	9202      	str	r2, [sp, #8]
20006034:	2d00      	cmp	r5, #0
20006036:	d003      	beq.n	20006040 <i2c_write_blocking_internal+0x48>
20006038:	2101      	movs	r1, #1
2000603a:	0038      	movs	r0, r7
2000603c:	47a8      	blx	r5
2000603e:	6830      	ldr	r0, [r6, #0]
20006040:	2200      	movs	r2, #0
20006042:	7933      	ldrb	r3, [r6, #4]
20006044:	4691      	mov	r9, r2
20006046:	3210      	adds	r2, #16
20006048:	4690      	mov	r8, r2
2000604a:	029a      	lsls	r2, r3, #10
2000604c:	4659      	mov	r1, fp
2000604e:	464b      	mov	r3, r9
20006050:	1a5b      	subs	r3, r3, r1
20006052:	4259      	negs	r1, r3
20006054:	414b      	adcs	r3, r1
20006056:	464c      	mov	r4, r9
20006058:	9902      	ldr	r1, [sp, #8]
2000605a:	400b      	ands	r3, r1
2000605c:	9901      	ldr	r1, [sp, #4]
2000605e:	025b      	lsls	r3, r3, #9
20006060:	5d09      	ldrb	r1, [r1, r4]
20006062:	2400      	movs	r4, #0
20006064:	430b      	orrs	r3, r1
20006066:	4313      	orrs	r3, r2
20006068:	6103      	str	r3, [r0, #16]
2000606a:	2d00      	cmp	r5, #0
2000606c:	d106      	bne.n	2000607c <i2c_write_blocking_internal+0x84>
2000606e:	e02a      	b.n	200060c6 <i2c_write_blocking_internal+0xce>
20006070:	4641      	mov	r1, r8
20006072:	6833      	ldr	r3, [r6, #0]
20006074:	b2e4      	uxtb	r4, r4
20006076:	6b5a      	ldr	r2, [r3, #52]	@ 0x34
20006078:	4211      	tst	r1, r2
2000607a:	d111      	bne.n	200060a0 <i2c_write_blocking_internal+0xa8>
2000607c:	2100      	movs	r1, #0
2000607e:	0038      	movs	r0, r7
20006080:	47a8      	blx	r5
20006082:	2800      	cmp	r0, #0
20006084:	d0f4      	beq.n	20006070 <i2c_write_blocking_internal+0x78>
20006086:	2302      	movs	r3, #2
20006088:	425b      	negs	r3, r3
2000608a:	4699      	mov	r9, r3
2000608c:	4648      	mov	r0, r9
2000608e:	9b04      	ldr	r3, [sp, #16]
20006090:	7133      	strb	r3, [r6, #4]
20006092:	b007      	add	sp, #28
20006094:	bcf0      	pop	{r4, r5, r6, r7}
20006096:	46bb      	mov	fp, r7
20006098:	46b2      	mov	sl, r6
2000609a:	46a9      	mov	r9, r5
2000609c:	46a0      	mov	r8, r4
2000609e:	bdf0      	pop	{r4, r5, r6, r7, pc}
200060a0:	2280      	movs	r2, #128	@ 0x80
200060a2:	589a      	ldr	r2, [r3, r2]
200060a4:	2a00      	cmp	r2, #0
200060a6:	d11f      	bne.n	200060e8 <i2c_write_blocking_internal+0xf0>
200060a8:	2c00      	cmp	r4, #0
200060aa:	d11f      	bne.n	200060ec <i2c_write_blocking_internal+0xf4>
200060ac:	45d9      	cmp	r9, fp
200060ae:	d046      	beq.n	2000613e <i2c_write_blocking_internal+0x146>
200060b0:	2301      	movs	r3, #1
200060b2:	4499      	add	r9, r3
200060b4:	9b03      	ldr	r3, [sp, #12]
200060b6:	454b      	cmp	r3, r9
200060b8:	d0e8      	beq.n	2000608c <i2c_write_blocking_internal+0x94>
200060ba:	2101      	movs	r1, #1
200060bc:	0038      	movs	r0, r7
200060be:	47a8      	blx	r5
200060c0:	2200      	movs	r2, #0
200060c2:	6830      	ldr	r0, [r6, #0]
200060c4:	e7c2      	b.n	2000604c <i2c_write_blocking_internal+0x54>
200060c6:	2210      	movs	r2, #16
200060c8:	6b43      	ldr	r3, [r0, #52]	@ 0x34
200060ca:	421a      	tst	r2, r3
200060cc:	d0fc      	beq.n	200060c8 <i2c_write_blocking_internal+0xd0>
200060ce:	2380      	movs	r3, #128	@ 0x80
200060d0:	58c2      	ldr	r2, [r0, r3]
200060d2:	2a00      	cmp	r2, #0
200060d4:	d128      	bne.n	20006128 <i2c_write_blocking_internal+0x130>
200060d6:	45d9      	cmp	r9, fp
200060d8:	d035      	beq.n	20006146 <i2c_write_blocking_internal+0x14e>
200060da:	2301      	movs	r3, #1
200060dc:	4499      	add	r9, r3
200060de:	9b03      	ldr	r3, [sp, #12]
200060e0:	454b      	cmp	r3, r9
200060e2:	d0d3      	beq.n	2000608c <i2c_write_blocking_internal+0x94>
200060e4:	2200      	movs	r2, #0
200060e6:	e7b1      	b.n	2000604c <i2c_write_blocking_internal+0x54>
200060e8:	2401      	movs	r4, #1
200060ea:	6d5b      	ldr	r3, [r3, #84]	@ 0x54
200060ec:	2380      	movs	r3, #128	@ 0x80
200060ee:	009b      	lsls	r3, r3, #2
200060f0:	469a      	mov	sl, r3
200060f2:	9205      	str	r2, [sp, #20]
200060f4:	e004      	b.n	20006100 <i2c_write_blocking_internal+0x108>
200060f6:	4651      	mov	r1, sl
200060f8:	6833      	ldr	r3, [r6, #0]
200060fa:	6b5a      	ldr	r2, [r3, #52]	@ 0x34
200060fc:	420a      	tst	r2, r1
200060fe:	d105      	bne.n	2000610c <i2c_write_blocking_internal+0x114>
20006100:	2100      	movs	r1, #0
20006102:	0038      	movs	r0, r7
20006104:	47a8      	blx	r5
20006106:	2800      	cmp	r0, #0
20006108:	d0f5      	beq.n	200060f6 <i2c_write_blocking_internal+0xfe>
2000610a:	e7bc      	b.n	20006086 <i2c_write_blocking_internal+0x8e>
2000610c:	9a05      	ldr	r2, [sp, #20]
2000610e:	6e1b      	ldr	r3, [r3, #96]	@ 0x60
20006110:	2c00      	cmp	r4, #0
20006112:	d0cd      	beq.n	200060b0 <i2c_write_blocking_internal+0xb8>
20006114:	2a00      	cmp	r2, #0
20006116:	d003      	beq.n	20006120 <i2c_write_blocking_internal+0x128>
20006118:	2309      	movs	r3, #9
2000611a:	4013      	ands	r3, r2
2000611c:	2b08      	cmp	r3, #8
2000611e:	d0b5      	beq.n	2000608c <i2c_write_blocking_internal+0x94>
20006120:	2301      	movs	r3, #1
20006122:	425b      	negs	r3, r3
20006124:	4699      	mov	r9, r3
20006126:	e7b1      	b.n	2000608c <i2c_write_blocking_internal+0x94>
20006128:	2401      	movs	r4, #1
2000612a:	6d43      	ldr	r3, [r0, #84]	@ 0x54
2000612c:	2180      	movs	r1, #128	@ 0x80
2000612e:	0089      	lsls	r1, r1, #2
20006130:	6b43      	ldr	r3, [r0, #52]	@ 0x34
20006132:	420b      	tst	r3, r1
20006134:	d0fc      	beq.n	20006130 <i2c_write_blocking_internal+0x138>
20006136:	6e03      	ldr	r3, [r0, #96]	@ 0x60
20006138:	2c00      	cmp	r4, #0
2000613a:	d0ce      	beq.n	200060da <i2c_write_blocking_internal+0xe2>
2000613c:	e7ea      	b.n	20006114 <i2c_write_blocking_internal+0x11c>
2000613e:	9b04      	ldr	r3, [sp, #16]
20006140:	2b00      	cmp	r3, #0
20006142:	d1b5      	bne.n	200060b0 <i2c_write_blocking_internal+0xb8>
20006144:	e7d2      	b.n	200060ec <i2c_write_blocking_internal+0xf4>
20006146:	9b04      	ldr	r3, [sp, #16]
20006148:	2b00      	cmp	r3, #0
2000614a:	d1c6      	bne.n	200060da <i2c_write_blocking_internal+0xe2>
2000614c:	2400      	movs	r4, #0
2000614e:	e7ed      	b.n	2000612c <i2c_write_blocking_internal+0x134>
20006150:	2300      	movs	r3, #0
20006152:	4699      	mov	r9, r3
20006154:	e79a      	b.n	2000608c <i2c_write_blocking_internal+0x94>
20006156:	46c0      	nop			@ (mov r8, r8)

20006158 <i2c_read_blocking_internal>:
20006158:	b5f0      	push	{r4, r5, r6, r7, lr}
2000615a:	46de      	mov	lr, fp
2000615c:	464e      	mov	r6, r9
2000615e:	4645      	mov	r5, r8
20006160:	4657      	mov	r7, sl
20006162:	b5e0      	push	{r5, r6, r7, lr}
20006164:	0005      	movs	r5, r0
20006166:	b085      	sub	sp, #20
20006168:	001c      	movs	r4, r3
2000616a:	9302      	str	r3, [sp, #8]
2000616c:	ab0e      	add	r3, sp, #56	@ 0x38
2000616e:	7818      	ldrb	r0, [r3, #0]
20006170:	2300      	movs	r3, #0
20006172:	9201      	str	r2, [sp, #4]
20006174:	682a      	ldr	r2, [r5, #0]
20006176:	4683      	mov	fp, r0
20006178:	66d3      	str	r3, [r2, #108]	@ 0x6c
2000617a:	3301      	adds	r3, #1
2000617c:	6051      	str	r1, [r2, #4]
2000617e:	9e0f      	ldr	r6, [sp, #60]	@ 0x3c
20006180:	66d3      	str	r3, [r2, #108]	@ 0x6c
20006182:	2c00      	cmp	r4, #0
20006184:	dd63      	ble.n	2000624e <i2c_read_blocking_internal+0xf6>
20006186:	1e63      	subs	r3, r4, #1
20006188:	4699      	mov	r9, r3
2000618a:	2301      	movs	r3, #1
2000618c:	4058      	eors	r0, r3
2000618e:	4682      	mov	sl, r0
20006190:	2400      	movs	r4, #0
20006192:	2e00      	cmp	r6, #0
20006194:	d003      	beq.n	2000619e <i2c_read_blocking_internal+0x46>
20006196:	2101      	movs	r1, #1
20006198:	9810      	ldr	r0, [sp, #64]	@ 0x40
2000619a:	47b0      	blx	r6
2000619c:	682a      	ldr	r2, [r5, #0]
2000619e:	2380      	movs	r3, #128	@ 0x80
200061a0:	005b      	lsls	r3, r3, #1
200061a2:	469c      	mov	ip, r3
200061a4:	0013      	movs	r3, r2
200061a6:	6f51      	ldr	r1, [r2, #116]	@ 0x74
200061a8:	2910      	cmp	r1, #16
200061aa:	d0fc      	beq.n	200061a6 <i2c_read_blocking_internal+0x4e>
200061ac:	2000      	movs	r0, #0
200061ae:	2c00      	cmp	r4, #0
200061b0:	d101      	bne.n	200061b6 <i2c_read_blocking_internal+0x5e>
200061b2:	7928      	ldrb	r0, [r5, #4]
200061b4:	0280      	lsls	r0, r0, #10
200061b6:	4649      	mov	r1, r9
200061b8:	1a67      	subs	r7, r4, r1
200061ba:	4279      	negs	r1, r7
200061bc:	4179      	adcs	r1, r7
200061be:	4657      	mov	r7, sl
200061c0:	4039      	ands	r1, r7
200061c2:	0249      	lsls	r1, r1, #9
200061c4:	4301      	orrs	r1, r0
200061c6:	4660      	mov	r0, ip
200061c8:	4301      	orrs	r1, r0
200061ca:	6111      	str	r1, [r2, #16]
200061cc:	2e00      	cmp	r6, #0
200061ce:	d028      	beq.n	20006222 <i2c_read_blocking_internal+0xca>
200061d0:	2280      	movs	r2, #128	@ 0x80
200061d2:	2740      	movs	r7, #64	@ 0x40
200061d4:	4690      	mov	r8, r2
200061d6:	e008      	b.n	200061ea <i2c_read_blocking_internal+0x92>
200061d8:	2100      	movs	r1, #0
200061da:	9810      	ldr	r0, [sp, #64]	@ 0x40
200061dc:	47b0      	blx	r6
200061de:	2800      	cmp	r0, #0
200061e0:	d137      	bne.n	20006252 <i2c_read_blocking_internal+0xfa>
200061e2:	682b      	ldr	r3, [r5, #0]
200061e4:	6f9a      	ldr	r2, [r3, #120]	@ 0x78
200061e6:	2a00      	cmp	r2, #0
200061e8:	d113      	bne.n	20006212 <i2c_read_blocking_internal+0xba>
200061ea:	4642      	mov	r2, r8
200061ec:	589a      	ldr	r2, [r3, r2]
200061ee:	6b5a      	ldr	r2, [r3, #52]	@ 0x34
200061f0:	4217      	tst	r7, r2
200061f2:	d0f1      	beq.n	200061d8 <i2c_read_blocking_internal+0x80>
200061f4:	2100      	movs	r1, #0
200061f6:	9810      	ldr	r0, [sp, #64]	@ 0x40
200061f8:	6d5b      	ldr	r3, [r3, #84]	@ 0x54
200061fa:	47b0      	blx	r6
200061fc:	43c4      	mvns	r4, r0
200061fe:	465b      	mov	r3, fp
20006200:	0020      	movs	r0, r4
20006202:	712b      	strb	r3, [r5, #4]
20006204:	b005      	add	sp, #20
20006206:	bcf0      	pop	{r4, r5, r6, r7}
20006208:	46bb      	mov	fp, r7
2000620a:	46b2      	mov	sl, r6
2000620c:	46a9      	mov	r9, r5
2000620e:	46a0      	mov	r8, r4
20006210:	bdf0      	pop	{r4, r5, r6, r7, pc}
20006212:	691b      	ldr	r3, [r3, #16]
20006214:	9a01      	ldr	r2, [sp, #4]
20006216:	5513      	strb	r3, [r2, r4]
20006218:	9b02      	ldr	r3, [sp, #8]
2000621a:	3401      	adds	r4, #1
2000621c:	42a3      	cmp	r3, r4
2000621e:	d1ba      	bne.n	20006196 <i2c_read_blocking_internal+0x3e>
20006220:	e7ed      	b.n	200061fe <i2c_read_blocking_internal+0xa6>
20006222:	2080      	movs	r0, #128	@ 0x80
20006224:	2140      	movs	r1, #64	@ 0x40
20006226:	5813      	ldr	r3, [r2, r0]
20006228:	6b53      	ldr	r3, [r2, #52]	@ 0x34
2000622a:	4219      	tst	r1, r3
2000622c:	d003      	beq.n	20006236 <i2c_read_blocking_internal+0xde>
2000622e:	2401      	movs	r4, #1
20006230:	6d53      	ldr	r3, [r2, #84]	@ 0x54
20006232:	4264      	negs	r4, r4
20006234:	e7e3      	b.n	200061fe <i2c_read_blocking_internal+0xa6>
20006236:	6f93      	ldr	r3, [r2, #120]	@ 0x78
20006238:	2b00      	cmp	r3, #0
2000623a:	d0f4      	beq.n	20006226 <i2c_read_blocking_internal+0xce>
2000623c:	6913      	ldr	r3, [r2, #16]
2000623e:	9a01      	ldr	r2, [sp, #4]
20006240:	5513      	strb	r3, [r2, r4]
20006242:	9b02      	ldr	r3, [sp, #8]
20006244:	3401      	adds	r4, #1
20006246:	42a3      	cmp	r3, r4
20006248:	d0d9      	beq.n	200061fe <i2c_read_blocking_internal+0xa6>
2000624a:	682a      	ldr	r2, [r5, #0]
2000624c:	e7aa      	b.n	200061a4 <i2c_read_blocking_internal+0x4c>
2000624e:	2400      	movs	r4, #0
20006250:	e7d5      	b.n	200061fe <i2c_read_blocking_internal+0xa6>
20006252:	2402      	movs	r4, #2
20006254:	4264      	negs	r4, r4
20006256:	e7d2      	b.n	200061fe <i2c_read_blocking_internal+0xa6>

20006258 <i2c_set_baudrate>:
20006258:	b5f0      	push	{r4, r5, r6, r7, lr}
2000625a:	46d6      	mov	lr, sl
2000625c:	464f      	mov	r7, r9
2000625e:	4646      	mov	r6, r8
20006260:	4682      	mov	sl, r0
20006262:	b5c0      	push	{r6, r7, lr}
20006264:	2005      	movs	r0, #5
20006266:	000c      	movs	r4, r1
20006268:	f7fd f846 	bl	200032f8 <clock_get_hz>
2000626c:	0005      	movs	r5, r0
2000626e:	0860      	lsrs	r0, r4, #1
20006270:	0021      	movs	r1, r4
20006272:	1940      	adds	r0, r0, r5
20006274:	f7fd fc74 	bl	20003b60 <__wrap___aeabi_uidiv>
20006278:	0047      	lsls	r7, r0, #1
2000627a:	183f      	adds	r7, r7, r0
2000627c:	0006      	movs	r6, r0
2000627e:	2105      	movs	r1, #5
20006280:	0038      	movs	r0, r7
20006282:	f7fd fc6d 	bl	20003b60 <__wrap___aeabi_uidiv>
20006286:	46a0      	mov	r8, r4
20006288:	4b1c      	ldr	r3, [pc, #112]	@ (200062fc <i2c_set_baudrate+0xa4>)
2000628a:	1a32      	subs	r2, r6, r0
2000628c:	0004      	movs	r4, r0
2000628e:	0068      	lsls	r0, r5, #1
20006290:	4691      	mov	r9, r2
20006292:	1940      	adds	r0, r0, r5
20006294:	4598      	cmp	r8, r3
20006296:	d82b      	bhi.n	200062f0 <i2c_set_baudrate+0x98>
20006298:	4919      	ldr	r1, [pc, #100]	@ (20006300 <i2c_set_baudrate+0xa8>)
2000629a:	f7fd fc61 	bl	20003b60 <__wrap___aeabi_uidiv>
2000629e:	3001      	adds	r0, #1
200062a0:	4653      	mov	r3, sl
200062a2:	2200      	movs	r2, #0
200062a4:	681b      	ldr	r3, [r3, #0]
200062a6:	66da      	str	r2, [r3, #108]	@ 0x6c
200062a8:	6819      	ldr	r1, [r3, #0]
200062aa:	3204      	adds	r2, #4
200062ac:	4051      	eors	r1, r2
200062ae:	3202      	adds	r2, #2
200062b0:	400a      	ands	r2, r1
200062b2:	2180      	movs	r1, #128	@ 0x80
200062b4:	0149      	lsls	r1, r1, #5
200062b6:	1859      	adds	r1, r3, r1
200062b8:	600a      	str	r2, [r1, #0]
200062ba:	464a      	mov	r2, r9
200062bc:	61da      	str	r2, [r3, #28]
200062be:	2201      	movs	r2, #1
200062c0:	621c      	str	r4, [r3, #32]
200062c2:	2f4f      	cmp	r7, #79	@ 0x4f
200062c4:	d900      	bls.n	200062c8 <i2c_set_baudrate+0x70>
200062c6:	0922      	lsrs	r2, r4, #4
200062c8:	21a0      	movs	r1, #160	@ 0xa0
200062ca:	505a      	str	r2, [r3, r1]
200062cc:	6fda      	ldr	r2, [r3, #124]	@ 0x7c
200062ce:	0031      	movs	r1, r6
200062d0:	4050      	eors	r0, r2
200062d2:	4a0c      	ldr	r2, [pc, #48]	@ (20006304 <i2c_set_baudrate+0xac>)
200062d4:	0400      	lsls	r0, r0, #16
200062d6:	189a      	adds	r2, r3, r2
200062d8:	0c00      	lsrs	r0, r0, #16
200062da:	6010      	str	r0, [r2, #0]
200062dc:	2201      	movs	r2, #1
200062de:	0028      	movs	r0, r5
200062e0:	66da      	str	r2, [r3, #108]	@ 0x6c
200062e2:	f7fd fc3d 	bl	20003b60 <__wrap___aeabi_uidiv>
200062e6:	bce0      	pop	{r5, r6, r7}
200062e8:	46ba      	mov	sl, r7
200062ea:	46b1      	mov	r9, r6
200062ec:	46a8      	mov	r8, r5
200062ee:	bdf0      	pop	{r4, r5, r6, r7, pc}
200062f0:	4905      	ldr	r1, [pc, #20]	@ (20006308 <i2c_set_baudrate+0xb0>)
200062f2:	f7fd fc35 	bl	20003b60 <__wrap___aeabi_uidiv>
200062f6:	3001      	adds	r0, #1
200062f8:	e7d2      	b.n	200062a0 <i2c_set_baudrate+0x48>
200062fa:	46c0      	nop			@ (mov r8, r8)
200062fc:	000f423f 	.word	0x000f423f
20006300:	00989680 	.word	0x00989680
20006304:	0000107c 	.word	0x0000107c
20006308:	017d7840 	.word	0x017d7840

2000630c <i2c_init>:
2000630c:	4a0f      	ldr	r2, [pc, #60]	@ (2000634c <i2c_init+0x40>)
2000630e:	b570      	push	{r4, r5, r6, lr}
20006310:	1a82      	subs	r2, r0, r2
20006312:	1e53      	subs	r3, r2, #1
20006314:	419a      	sbcs	r2, r3
20006316:	4b0e      	ldr	r3, [pc, #56]	@ (20006350 <i2c_init+0x44>)
20006318:	00d2      	lsls	r2, r2, #3
2000631a:	3208      	adds	r2, #8
2000631c:	601a      	str	r2, [r3, #0]
2000631e:	4b0d      	ldr	r3, [pc, #52]	@ (20006354 <i2c_init+0x48>)
20006320:	4c0d      	ldr	r4, [pc, #52]	@ (20006358 <i2c_init+0x4c>)
20006322:	601a      	str	r2, [r3, #0]
20006324:	0015      	movs	r5, r2
20006326:	6823      	ldr	r3, [r4, #0]
20006328:	439d      	bics	r5, r3
2000632a:	1e2b      	subs	r3, r5, #0
2000632c:	d1fa      	bne.n	20006324 <i2c_init+0x18>
2000632e:	2466      	movs	r4, #102	@ 0x66
20006330:	6802      	ldr	r2, [r0, #0]
20006332:	34ff      	adds	r4, #255	@ 0xff
20006334:	7105      	strb	r5, [r0, #4]
20006336:	66d5      	str	r5, [r2, #108]	@ 0x6c
20006338:	6014      	str	r4, [r2, #0]
2000633a:	3c63      	subs	r4, #99	@ 0x63
2000633c:	3388      	adds	r3, #136	@ 0x88
2000633e:	3cff      	subs	r4, #255	@ 0xff
20006340:	63d5      	str	r5, [r2, #60]	@ 0x3c
20006342:	6395      	str	r5, [r2, #56]	@ 0x38
20006344:	50d4      	str	r4, [r2, r3]
20006346:	f7ff ff87 	bl	20006258 <i2c_set_baudrate>
2000634a:	bd70      	pop	{r4, r5, r6, pc}
2000634c:	20007f20 	.word	0x20007f20
20006350:	4000e000 	.word	0x4000e000
20006354:	4000f000 	.word	0x4000f000
20006358:	4000c008 	.word	0x4000c008

2000635c <i2c_write_blocking_until>:
2000635c:	b5f0      	push	{r4, r5, r6, r7, lr}
2000635e:	46ce      	mov	lr, r9
20006360:	4647      	mov	r7, r8
20006362:	b580      	push	{r7, lr}
20006364:	b089      	sub	sp, #36	@ 0x24
20006366:	001e      	movs	r6, r3
20006368:	ac04      	add	r4, sp, #16
2000636a:	ab10      	add	r3, sp, #64	@ 0x40
2000636c:	781d      	ldrb	r5, [r3, #0]
2000636e:	4681      	mov	r9, r0
20006370:	0017      	movs	r7, r2
20006372:	9a12      	ldr	r2, [sp, #72]	@ 0x48
20006374:	9b13      	ldr	r3, [sp, #76]	@ 0x4c
20006376:	0020      	movs	r0, r4
20006378:	4688      	mov	r8, r1
2000637a:	f7fc fea5 	bl	200030c8 <init_single_timeout_until>
2000637e:	0033      	movs	r3, r6
20006380:	9001      	str	r0, [sp, #4]
20006382:	003a      	movs	r2, r7
20006384:	4641      	mov	r1, r8
20006386:	4648      	mov	r0, r9
20006388:	9402      	str	r4, [sp, #8]
2000638a:	9500      	str	r5, [sp, #0]
2000638c:	f7ff fe34 	bl	20005ff8 <i2c_write_blocking_internal>
20006390:	b009      	add	sp, #36	@ 0x24
20006392:	bcc0      	pop	{r6, r7}
20006394:	46b9      	mov	r9, r7
20006396:	46b0      	mov	r8, r6
20006398:	bdf0      	pop	{r4, r5, r6, r7, pc}
2000639a:	46c0      	nop			@ (mov r8, r8)

2000639c <i2c_read_blocking_until>:
2000639c:	b5f0      	push	{r4, r5, r6, r7, lr}
2000639e:	46ce      	mov	lr, r9
200063a0:	4647      	mov	r7, r8
200063a2:	b580      	push	{r7, lr}
200063a4:	b089      	sub	sp, #36	@ 0x24
200063a6:	001e      	movs	r6, r3
200063a8:	ac04      	add	r4, sp, #16
200063aa:	ab10      	add	r3, sp, #64	@ 0x40
200063ac:	781d      	ldrb	r5, [r3, #0]
200063ae:	4681      	mov	r9, r0
200063b0:	0017      	movs	r7, r2
200063b2:	9a12      	ldr	r2, [sp, #72]	@ 0x48
200063b4:	9b13      	ldr	r3, [sp, #76]	@ 0x4c
200063b6:	0020      	movs	r0, r4
200063b8:	4688      	mov	r8, r1
200063ba:	f7fc fe85 	bl	200030c8 <init_single_timeout_until>
200063be:	0033      	movs	r3, r6
200063c0:	9001      	str	r0, [sp, #4]
200063c2:	003a      	movs	r2, r7
200063c4:	4641      	mov	r1, r8
200063c6:	4648      	mov	r0, r9
200063c8:	9402      	str	r4, [sp, #8]
200063ca:	9500      	str	r5, [sp, #0]
200063cc:	f7ff fec4 	bl	20006158 <i2c_read_blocking_internal>
200063d0:	b009      	add	sp, #36	@ 0x24
200063d2:	bcc0      	pop	{r6, r7}
200063d4:	46b9      	mov	r9, r7
200063d6:	46b0      	mov	r8, r6
200063d8:	bdf0      	pop	{r4, r5, r6, r7, pc}
200063da:	46c0      	nop			@ (mov r8, r8)

200063dc <__aeabi_idiv0>:
200063dc:	4770      	bx	lr
200063de:	46c0      	nop			@ (mov r8, r8)

200063e0 <strlen>:
200063e0:	0003      	movs	r3, r0
200063e2:	4684      	mov	ip, r0
200063e4:	079b      	lsls	r3, r3, #30
200063e6:	d00b      	beq.n	20006400 <strlen+0x20>
200063e8:	0003      	movs	r3, r0
200063ea:	2103      	movs	r1, #3
200063ec:	e002      	b.n	200063f4 <strlen+0x14>
200063ee:	3301      	adds	r3, #1
200063f0:	420b      	tst	r3, r1
200063f2:	d006      	beq.n	20006402 <strlen+0x22>
200063f4:	781a      	ldrb	r2, [r3, #0]
200063f6:	2a00      	cmp	r2, #0
200063f8:	d1f9      	bne.n	200063ee <strlen+0xe>
200063fa:	4662      	mov	r2, ip
200063fc:	1a98      	subs	r0, r3, r2
200063fe:	4770      	bx	lr
20006400:	0003      	movs	r3, r0
20006402:	6819      	ldr	r1, [r3, #0]
20006404:	4a0c      	ldr	r2, [pc, #48]	@ (20006438 <strlen+0x58>)
20006406:	480d      	ldr	r0, [pc, #52]	@ (2000643c <strlen+0x5c>)
20006408:	188a      	adds	r2, r1, r2
2000640a:	438a      	bics	r2, r1
2000640c:	4202      	tst	r2, r0
2000640e:	d10f      	bne.n	20006430 <strlen+0x50>
20006410:	6859      	ldr	r1, [r3, #4]
20006412:	4a09      	ldr	r2, [pc, #36]	@ (20006438 <strlen+0x58>)
20006414:	3304      	adds	r3, #4
20006416:	188a      	adds	r2, r1, r2
20006418:	438a      	bics	r2, r1
2000641a:	4202      	tst	r2, r0
2000641c:	d108      	bne.n	20006430 <strlen+0x50>
2000641e:	6859      	ldr	r1, [r3, #4]
20006420:	4a05      	ldr	r2, [pc, #20]	@ (20006438 <strlen+0x58>)
20006422:	3304      	adds	r3, #4
20006424:	188a      	adds	r2, r1, r2
20006426:	438a      	bics	r2, r1
20006428:	4202      	tst	r2, r0
2000642a:	d0f1      	beq.n	20006410 <strlen+0x30>
2000642c:	e000      	b.n	20006430 <strlen+0x50>
2000642e:	3301      	adds	r3, #1
20006430:	781a      	ldrb	r2, [r3, #0]
20006432:	2a00      	cmp	r2, #0
20006434:	d1fb      	bne.n	2000642e <strlen+0x4e>
20006436:	e7e0      	b.n	200063fa <strlen+0x1a>
20006438:	fefefeff 	.word	0xfefefeff
2000643c:	80808080 	.word	0x80808080

20006440 <_fini>:
20006440:	b5f8      	push	{r3, r4, r5, r6, r7, lr}
20006442:	46c0      	nop			@ (mov r8, r8)

Disassembly of section .data:

20006450 <_ZN12ComputerCard11AudioWorkerEv>:
20006450:	21e0      	movs	r1, #224	@ 0xe0
20006452:	b5f0      	push	{r4, r5, r6, r7, lr}
20006454:	46d6      	mov	lr, sl
20006456:	464f      	mov	r7, r9
20006458:	4646      	mov	r6, r8
2000645a:	4a61      	ldr	r2, [pc, #388]	@ (200065e0 <_ZN12ComputerCard11AudioWorkerEv+0x190>)
2000645c:	01c9      	lsls	r1, r1, #7
2000645e:	6813      	ldr	r3, [r2, #0]
20006460:	b5c0      	push	{r6, r7, lr}
20006462:	400b      	ands	r3, r1
20006464:	495f      	ldr	r1, [pc, #380]	@ (200065e4 <_ZN12ComputerCard11AudioWorkerEv+0x194>)
20006466:	0004      	movs	r4, r0
20006468:	600b      	str	r3, [r1, #0]
2000646a:	23f0      	movs	r3, #240	@ 0xf0
2000646c:	6810      	ldr	r0, [r2, #0]
2000646e:	031b      	lsls	r3, r3, #12
20006470:	4043      	eors	r3, r0
20006472:	20f8      	movs	r0, #248	@ 0xf8
20006474:	0340      	lsls	r0, r0, #13
20006476:	4003      	ands	r3, r0
20006478:	600b      	str	r3, [r1, #0]
2000647a:	4b5b      	ldr	r3, [pc, #364]	@ (200065e8 <_ZN12ComputerCard11AudioWorkerEv+0x198>)
2000647c:	2001      	movs	r0, #1
2000647e:	6819      	ldr	r1, [r3, #0]
20006480:	4b5a      	ldr	r3, [pc, #360]	@ (200065ec <_ZN12ComputerCard11AudioWorkerEv+0x19c>)
20006482:	25b4      	movs	r5, #180	@ 0xb4
20006484:	404b      	eors	r3, r1
20006486:	495a      	ldr	r1, [pc, #360]	@ (200065f0 <_ZN12ComputerCard11AudioWorkerEv+0x1a0>)
20006488:	006d      	lsls	r5, r5, #1
2000648a:	400b      	ands	r3, r1
2000648c:	4959      	ldr	r1, [pc, #356]	@ (200065f4 <_ZN12ComputerCard11AudioWorkerEv+0x1a4>)
2000648e:	26b5      	movs	r6, #181	@ 0xb5
20006490:	600b      	str	r3, [r1, #0]
20006492:	23f8      	movs	r3, #248	@ 0xf8
20006494:	01db      	lsls	r3, r3, #7
20006496:	6113      	str	r3, [r2, #16]
20006498:	f7ff fce6 	bl	20005e68 <dma_claim_unused_channel>
2000649c:	5560      	strb	r0, [r4, r5]
2000649e:	2001      	movs	r0, #1
200064a0:	f7ff fce2 	bl	20005e68 <dma_claim_unused_channel>
200064a4:	236a      	movs	r3, #106	@ 0x6a
200064a6:	33ff      	adds	r3, #255	@ 0xff
200064a8:	54e0      	strb	r0, [r4, r3]
200064aa:	20a0      	movs	r0, #160	@ 0xa0
200064ac:	469a      	mov	sl, r3
200064ae:	5d63      	ldrb	r3, [r4, r5]
200064b0:	4f51      	ldr	r7, [pc, #324]	@ (200065f8 <_ZN12ComputerCard11AudioWorkerEv+0x1a8>)
200064b2:	02da      	lsls	r2, r3, #11
200064b4:	4951      	ldr	r1, [pc, #324]	@ (200065fc <_ZN12ComputerCard11AudioWorkerEv+0x1ac>)
200064b6:	403a      	ands	r2, r7
200064b8:	0076      	lsls	r6, r6, #1
200064ba:	4311      	orrs	r1, r2
200064bc:	5da2      	ldrb	r2, [r4, r6]
200064be:	05c0      	lsls	r0, r0, #23
200064c0:	3214      	adds	r2, #20
200064c2:	019b      	lsls	r3, r3, #6
200064c4:	181b      	adds	r3, r3, r0
200064c6:	0112      	lsls	r2, r2, #4
200064c8:	484d      	ldr	r0, [pc, #308]	@ (20006600 <_ZN12ComputerCard11AudioWorkerEv+0x1b0>)
200064ca:	18a2      	adds	r2, r4, r2
200064cc:	6018      	str	r0, [r3, #0]
200064ce:	605a      	str	r2, [r3, #4]
200064d0:	2208      	movs	r2, #8
200064d2:	609a      	str	r2, [r3, #8]
200064d4:	60d9      	str	r1, [r3, #12]
200064d6:	2301      	movs	r3, #1
200064d8:	4691      	mov	r9, r2
200064da:	5d62      	ldrb	r2, [r4, r5]
200064dc:	2101      	movs	r1, #1
200064de:	4093      	lsls	r3, r2
200064e0:	4a48      	ldr	r2, [pc, #288]	@ (20006604 <_ZN12ComputerCard11AudioWorkerEv+0x1b4>)
200064e2:	200b      	movs	r0, #11
200064e4:	6013      	str	r3, [r2, #0]
200064e6:	f7fb ff83 	bl	200023f0 <irq_set_enabled>
200064ea:	200b      	movs	r0, #11
200064ec:	4946      	ldr	r1, [pc, #280]	@ (20006608 <_ZN12ComputerCard11AudioWorkerEv+0x1b8>)
200064ee:	f7fb ff9d 	bl	2000242c <irq_set_exclusive_handler>
200064f2:	4649      	mov	r1, r9
200064f4:	23a4      	movs	r3, #164	@ 0xa4
200064f6:	4a45      	ldr	r2, [pc, #276]	@ (2000660c <_ZN12ComputerCard11AudioWorkerEv+0x1bc>)
200064f8:	2004      	movs	r0, #4
200064fa:	50d1      	str	r1, [r2, r3]
200064fc:	4b44      	ldr	r3, [pc, #272]	@ (20006610 <_ZN12ComputerCard11AudioWorkerEv+0x1c0>)
200064fe:	6019      	str	r1, [r3, #0]
20006500:	4b44      	ldr	r3, [pc, #272]	@ (20006614 <_ZN12ComputerCard11AudioWorkerEv+0x1c4>)
20006502:	0019      	movs	r1, r3
20006504:	4698      	mov	r8, r3
20006506:	f7fb ff91 	bl	2000242c <irq_set_exclusive_handler>
2000650a:	21ff      	movs	r1, #255	@ 0xff
2000650c:	2004      	movs	r0, #4
2000650e:	f7fc f981 	bl	20002814 <irq_set_priority>
20006512:	2101      	movs	r1, #1
20006514:	2004      	movs	r0, #4
20006516:	f7fb ff6b 	bl	200023f0 <irq_set_enabled>
2000651a:	4653      	mov	r3, sl
2000651c:	5ce3      	ldrb	r3, [r4, r3]
2000651e:	4a3e      	ldr	r2, [pc, #248]	@ (20006618 <_ZN12ComputerCard11AudioWorkerEv+0x1c8>)
20006520:	02d9      	lsls	r1, r3, #11
20006522:	4039      	ands	r1, r7
20006524:	430a      	orrs	r2, r1
20006526:	21a0      	movs	r1, #160	@ 0xa0
20006528:	019b      	lsls	r3, r3, #6
2000652a:	05c9      	lsls	r1, r1, #23
2000652c:	185b      	adds	r3, r3, r1
2000652e:	2100      	movs	r1, #0
20006530:	6019      	str	r1, [r3, #0]
20006532:	493a      	ldr	r1, [pc, #232]	@ (2000661c <_ZN12ComputerCard11AudioWorkerEv+0x1cc>)
20006534:	6059      	str	r1, [r3, #4]
20006536:	2102      	movs	r1, #2
20006538:	6099      	str	r1, [r3, #8]
2000653a:	611a      	str	r2, [r3, #16]
2000653c:	464a      	mov	r2, r9
2000653e:	4b38      	ldr	r3, [pc, #224]	@ (20006620 <_ZN12ComputerCard11AudioWorkerEv+0x1d0>)
20006540:	601a      	str	r2, [r3, #0]
20006542:	233e      	movs	r3, #62	@ 0x3e
20006544:	33ff      	adds	r3, #255	@ 0xff
20006546:	5ce2      	ldrb	r2, [r4, r3]
20006548:	2a03      	cmp	r2, #3
2000654a:	d013      	beq.n	20006574 <_ZN12ComputerCard11AudioWorkerEv+0x124>
2000654c:	5ce2      	ldrb	r2, [r4, r3]
2000654e:	2a02      	cmp	r2, #2
20006550:	d1f9      	bne.n	20006546 <_ZN12ComputerCard11AudioWorkerEv+0xf6>
20006552:	2100      	movs	r1, #0
20006554:	2004      	movs	r0, #4
20006556:	f7fb ff4b 	bl	200023f0 <irq_set_enabled>
2000655a:	23a4      	movs	r3, #164	@ 0xa4
2000655c:	2108      	movs	r1, #8
2000655e:	4a2b      	ldr	r2, [pc, #172]	@ (2000660c <_ZN12ComputerCard11AudioWorkerEv+0x1bc>)
20006560:	2004      	movs	r0, #4
20006562:	50d1      	str	r1, [r2, r3]
20006564:	4641      	mov	r1, r8
20006566:	f7fc f871 	bl	2000264c <irq_remove_handler>
2000656a:	bce0      	pop	{r5, r6, r7}
2000656c:	46ba      	mov	sl, r7
2000656e:	46b1      	mov	r9, r6
20006570:	46a8      	mov	r8, r5
20006572:	bdf0      	pop	{r4, r5, r6, r7, pc}
20006574:	2200      	movs	r2, #0
20006576:	2101      	movs	r1, #1
20006578:	54e2      	strb	r2, [r4, r3]
2000657a:	5d62      	ldrb	r2, [r4, r5]
2000657c:	4829      	ldr	r0, [pc, #164]	@ (20006624 <_ZN12ComputerCard11AudioWorkerEv+0x1d4>)
2000657e:	4091      	lsls	r1, r2
20006580:	000a      	movs	r2, r1
20006582:	21a0      	movs	r1, #160	@ 0xa0
20006584:	05c9      	lsls	r1, r1, #23
20006586:	500a      	str	r2, [r1, r0]
20006588:	20a0      	movs	r0, #160	@ 0xa0
2000658a:	5da2      	ldrb	r2, [r4, r6]
2000658c:	5d61      	ldrb	r1, [r4, r5]
2000658e:	3214      	adds	r2, #20
20006590:	05c0      	lsls	r0, r0, #23
20006592:	0112      	lsls	r2, r2, #4
20006594:	0189      	lsls	r1, r1, #6
20006596:	1809      	adds	r1, r1, r0
20006598:	18a2      	adds	r2, r4, r2
2000659a:	62ca      	str	r2, [r1, #44]	@ 0x2c
2000659c:	4651      	mov	r1, sl
2000659e:	5da2      	ldrb	r2, [r4, r6]
200065a0:	5c61      	ldrb	r1, [r4, r1]
200065a2:	3258      	adds	r2, #88	@ 0x58
200065a4:	0092      	lsls	r2, r2, #2
200065a6:	0189      	lsls	r1, r1, #6
200065a8:	1809      	adds	r1, r1, r0
200065aa:	18a2      	adds	r2, r4, r2
200065ac:	63ca      	str	r2, [r1, #60]	@ 0x3c
200065ae:	21f8      	movs	r1, #248	@ 0xf8
200065b0:	27e0      	movs	r7, #224	@ 0xe0
200065b2:	4a0b      	ldr	r2, [pc, #44]	@ (200065e0 <_ZN12ComputerCard11AudioWorkerEv+0x190>)
200065b4:	0349      	lsls	r1, r1, #13
200065b6:	6810      	ldr	r0, [r2, #0]
200065b8:	468c      	mov	ip, r1
200065ba:	4008      	ands	r0, r1
200065bc:	4909      	ldr	r1, [pc, #36]	@ (200065e4 <_ZN12ComputerCard11AudioWorkerEv+0x194>)
200065be:	01ff      	lsls	r7, r7, #7
200065c0:	6008      	str	r0, [r1, #0]
200065c2:	6810      	ldr	r0, [r2, #0]
200065c4:	4038      	ands	r0, r7
200065c6:	6008      	str	r0, [r1, #0]
200065c8:	6810      	ldr	r0, [r2, #0]
200065ca:	22f0      	movs	r2, #240	@ 0xf0
200065cc:	0312      	lsls	r2, r2, #12
200065ce:	4042      	eors	r2, r0
200065d0:	4660      	mov	r0, ip
200065d2:	4002      	ands	r2, r0
200065d4:	600a      	str	r2, [r1, #0]
200065d6:	2108      	movs	r1, #8
200065d8:	4a11      	ldr	r2, [pc, #68]	@ (20006620 <_ZN12ComputerCard11AudioWorkerEv+0x1d0>)
200065da:	6011      	str	r1, [r2, #0]
200065dc:	e7b3      	b.n	20006546 <_ZN12ComputerCard11AudioWorkerEv+0xf6>
200065de:	46c0      	nop			@ (mov r8, r8)
200065e0:	4004c000 	.word	0x4004c000
200065e4:	4004d000 	.word	0x4004d000
200065e8:	4004c008 	.word	0x4004c008
200065ec:	01000009 	.word	0x01000009
200065f0:	0f00000f 	.word	0x0f00000f
200065f4:	4004d008 	.word	0x4004d008
200065f8:	ffe07fff 	.word	0xffe07fff
200065fc:	00120025 	.word	0x00120025
20006600:	4004c00c 	.word	0x4004c00c
20006604:	50002404 	.word	0x50002404
20006608:	20001dc1 	.word	0x20001dc1
2000660c:	40050000 	.word	0x40050000
20006610:	400520a8 	.word	0x400520a8
20006614:	20000111 	.word	0x20000111
20006618:	00080015 	.word	0x00080015
2000661c:	4003c008 	.word	0x4003c008
20006620:	4004e000 	.word	0x4004e000
20006624:	0000040c 	.word	0x0000040c

20006628 <_ZN12ComputerCard10BufferFullEv>:
20006628:	b5f0      	push	{r4, r5, r6, r7, lr}
2000662a:	46de      	mov	lr, fp
2000662c:	464e      	mov	r6, r9
2000662e:	4657      	mov	r7, sl
20006630:	4645      	mov	r5, r8
20006632:	22e0      	movs	r2, #224	@ 0xe0
20006634:	4be1      	ldr	r3, [pc, #900]	@ (200069bc <_ZN12ComputerCard10BufferFullEv+0x394>)
20006636:	b5e0      	push	{r5, r6, r7, lr}
20006638:	681b      	ldr	r3, [r3, #0]
2000663a:	01d2      	lsls	r2, r2, #7
2000663c:	4013      	ands	r3, r2
2000663e:	4ae0      	ldr	r2, [pc, #896]	@ (200069c0 <_ZN12ComputerCard10BufferFullEv+0x398>)
20006640:	b087      	sub	sp, #28
20006642:	6013      	str	r3, [r2, #0]
20006644:	2203      	movs	r2, #3
20006646:	4bdf      	ldr	r3, [pc, #892]	@ (200069c4 <_ZN12ComputerCard10BufferFullEv+0x39c>)
20006648:	0004      	movs	r4, r0
2000664a:	681e      	ldr	r6, [r3, #0]
2000664c:	9305      	str	r3, [sp, #20]
2000664e:	1c73      	adds	r3, r6, #1
20006650:	401a      	ands	r2, r3
20006652:	4693      	mov	fp, r2
20006654:	07da      	lsls	r2, r3, #31
20006656:	d400      	bmi.n	2000665a <_ZN12ComputerCard10BufferFullEv+0x32>
20006658:	e29f      	b.n	20006b9a <_ZN12ComputerCard10BufferFullEv+0x572>
2000665a:	22d0      	movs	r2, #208	@ 0xd0
2000665c:	2180      	movs	r1, #128	@ 0x80
2000665e:	0612      	lsls	r2, r2, #24
20006660:	0449      	lsls	r1, r1, #17
20006662:	6151      	str	r1, [r2, #20]
20006664:	079b      	lsls	r3, r3, #30
20006666:	d400      	bmi.n	2000666a <_ZN12ComputerCard10BufferFullEv+0x42>
20006668:	e291      	b.n	20006b8e <_ZN12ComputerCard10BufferFullEv+0x566>
2000666a:	23d0      	movs	r3, #208	@ 0xd0
2000666c:	2280      	movs	r2, #128	@ 0x80
2000666e:	061b      	lsls	r3, r3, #24
20006670:	0492      	lsls	r2, r2, #18
20006672:	615a      	str	r2, [r3, #20]
20006674:	21b5      	movs	r1, #181	@ 0xb5
20006676:	0049      	lsls	r1, r1, #1
20006678:	5c63      	ldrb	r3, [r4, r1]
2000667a:	2201      	movs	r2, #1
2000667c:	469a      	mov	sl, r3
2000667e:	2301      	movs	r3, #1
20006680:	4698      	mov	r8, r3
20006682:	4650      	mov	r0, sl
20006684:	4643      	mov	r3, r8
20006686:	1a1b      	subs	r3, r3, r0
20006688:	20b4      	movs	r0, #180	@ 0xb4
2000668a:	0017      	movs	r7, r2
2000668c:	5463      	strb	r3, [r4, r1]
2000668e:	0040      	lsls	r0, r0, #1
20006690:	5c23      	ldrb	r3, [r4, r0]
20006692:	409f      	lsls	r7, r3
20006694:	23a0      	movs	r3, #160	@ 0xa0
20006696:	003d      	movs	r5, r7
20006698:	4fcb      	ldr	r7, [pc, #812]	@ (200069c8 <_ZN12ComputerCard10BufferFullEv+0x3a0>)
2000669a:	05db      	lsls	r3, r3, #23
2000669c:	51dd      	str	r5, [r3, r7]
2000669e:	25a0      	movs	r5, #160	@ 0xa0
200066a0:	5c63      	ldrb	r3, [r4, r1]
200066a2:	5c20      	ldrb	r0, [r4, r0]
200066a4:	3314      	adds	r3, #20
200066a6:	05ed      	lsls	r5, r5, #23
200066a8:	011b      	lsls	r3, r3, #4
200066aa:	0180      	lsls	r0, r0, #6
200066ac:	1940      	adds	r0, r0, r5
200066ae:	18e3      	adds	r3, r4, r3
200066b0:	62c3      	str	r3, [r0, #44]	@ 0x2c
200066b2:	5c63      	ldrb	r3, [r4, r1]
200066b4:	216a      	movs	r1, #106	@ 0x6a
200066b6:	31ff      	adds	r1, #255	@ 0xff
200066b8:	5c61      	ldrb	r1, [r4, r1]
200066ba:	3358      	adds	r3, #88	@ 0x58
200066bc:	009b      	lsls	r3, r3, #2
200066be:	0189      	lsls	r1, r1, #6
200066c0:	1949      	adds	r1, r1, r5
200066c2:	18e3      	adds	r3, r4, r3
200066c4:	63cb      	str	r3, [r1, #60]	@ 0x3c
200066c6:	0ff3      	lsrs	r3, r6, #31
200066c8:	18f1      	adds	r1, r6, r3
200066ca:	400a      	ands	r2, r1
200066cc:	1ad5      	subs	r5, r2, r3
200066ce:	4653      	mov	r3, sl
200066d0:	0119      	lsls	r1, r3, #4
200066d2:	1861      	adds	r1, r4, r1
200066d4:	0008      	movs	r0, r1
200066d6:	2380      	movs	r3, #128	@ 0x80
200066d8:	4fbc      	ldr	r7, [pc, #752]	@ (200069cc <_ZN12ComputerCard10BufferFullEv+0x3a4>)
200066da:	304f      	adds	r0, #79	@ 0x4f
200066dc:	46bc      	mov	ip, r7
200066de:	30ff      	adds	r0, #255	@ 0xff
200066e0:	8802      	ldrh	r2, [r0, #0]
200066e2:	009b      	lsls	r3, r3, #2
200066e4:	9504      	str	r5, [sp, #16]
200066e6:	001d      	movs	r5, r3
200066e8:	18d3      	adds	r3, r2, r3
200066ea:	b29b      	uxth	r3, r3
200066ec:	0a9b      	lsrs	r3, r3, #10
200066ee:	00db      	lsls	r3, r3, #3
200066f0:	18d3      	adds	r3, r2, r3
200066f2:	0592      	lsls	r2, r2, #22
200066f4:	0d92      	lsrs	r2, r2, #22
200066f6:	4462      	add	r2, ip
200066f8:	4257      	negs	r7, r2
200066fa:	417a      	adcs	r2, r7
200066fc:	0092      	lsls	r2, r2, #2
200066fe:	4fb4      	ldr	r7, [pc, #720]	@ (200069d0 <_ZN12ComputerCard10BufferFullEv+0x3a8>)
20006700:	189b      	adds	r3, r3, r2
20006702:	b29b      	uxth	r3, r3
20006704:	437b      	muls	r3, r7
20006706:	0cda      	lsrs	r2, r3, #19
20006708:	8002      	strh	r2, [r0, #0]
2000670a:	20a0      	movs	r0, #160	@ 0xa0
2000670c:	0040      	lsls	r0, r0, #1
2000670e:	9200      	str	r2, [sp, #0]
20006710:	5a0a      	ldrh	r2, [r1, r0]
20006712:	1953      	adds	r3, r2, r5
20006714:	b29b      	uxth	r3, r3
20006716:	0a9b      	lsrs	r3, r3, #10
20006718:	00db      	lsls	r3, r3, #3
2000671a:	18d3      	adds	r3, r2, r3
2000671c:	0592      	lsls	r2, r2, #22
2000671e:	0d92      	lsrs	r2, r2, #22
20006720:	4462      	add	r2, ip
20006722:	0015      	movs	r5, r2
20006724:	426a      	negs	r2, r5
20006726:	416a      	adcs	r2, r5
20006728:	0092      	lsls	r2, r2, #2
2000672a:	189b      	adds	r3, r3, r2
2000672c:	b29b      	uxth	r3, r3
2000672e:	437b      	muls	r3, r7
20006730:	0cdd      	lsrs	r5, r3, #19
20006732:	520d      	strh	r5, [r1, r0]
20006734:	0008      	movs	r0, r1
20006736:	2380      	movs	r3, #128	@ 0x80
20006738:	46ac      	mov	ip, r5
2000673a:	4da4      	ldr	r5, [pc, #656]	@ (200069cc <_ZN12ComputerCard10BufferFullEv+0x3a4>)
2000673c:	3049      	adds	r0, #73	@ 0x49
2000673e:	46a9      	mov	r9, r5
20006740:	30ff      	adds	r0, #255	@ 0xff
20006742:	8802      	ldrh	r2, [r0, #0]
20006744:	009b      	lsls	r3, r3, #2
20006746:	18d3      	adds	r3, r2, r3
20006748:	b29b      	uxth	r3, r3
2000674a:	0a9b      	lsrs	r3, r3, #10
2000674c:	00db      	lsls	r3, r3, #3
2000674e:	18d3      	adds	r3, r2, r3
20006750:	0592      	lsls	r2, r2, #22
20006752:	0d92      	lsrs	r2, r2, #22
20006754:	444a      	add	r2, r9
20006756:	0015      	movs	r5, r2
20006758:	426a      	negs	r2, r5
2000675a:	416a      	adcs	r2, r5
2000675c:	0092      	lsls	r2, r2, #2
2000675e:	189b      	adds	r3, r3, r2
20006760:	b29b      	uxth	r3, r3
20006762:	437b      	muls	r3, r7
20006764:	0cda      	lsrs	r2, r3, #19
20006766:	2380      	movs	r3, #128	@ 0x80
20006768:	8002      	strh	r2, [r0, #0]
2000676a:	3806      	subs	r0, #6
2000676c:	9202      	str	r2, [sp, #8]
2000676e:	8802      	ldrh	r2, [r0, #0]
20006770:	009b      	lsls	r3, r3, #2
20006772:	18d3      	adds	r3, r2, r3
20006774:	b29b      	uxth	r3, r3
20006776:	0a9b      	lsrs	r3, r3, #10
20006778:	00db      	lsls	r3, r3, #3
2000677a:	18d3      	adds	r3, r2, r3
2000677c:	0592      	lsls	r2, r2, #22
2000677e:	0d92      	lsrs	r2, r2, #22
20006780:	444a      	add	r2, r9
20006782:	0015      	movs	r5, r2
20006784:	426a      	negs	r2, r5
20006786:	416a      	adcs	r2, r5
20006788:	0092      	lsls	r2, r2, #2
2000678a:	189b      	adds	r3, r3, r2
2000678c:	2280      	movs	r2, #128	@ 0x80
2000678e:	b29b      	uxth	r3, r3
20006790:	437b      	muls	r3, r7
20006792:	0cdb      	lsrs	r3, r3, #19
20006794:	8003      	strh	r3, [r0, #0]
20006796:	3008      	adds	r0, #8
20006798:	9303      	str	r3, [sp, #12]
2000679a:	0003      	movs	r3, r0
2000679c:	8800      	ldrh	r0, [r0, #0]
2000679e:	0092      	lsls	r2, r2, #2
200067a0:	1882      	adds	r2, r0, r2
200067a2:	b292      	uxth	r2, r2
200067a4:	0a92      	lsrs	r2, r2, #10
200067a6:	00d2      	lsls	r2, r2, #3
200067a8:	1882      	adds	r2, r0, r2
200067aa:	0580      	lsls	r0, r0, #22
200067ac:	0d80      	lsrs	r0, r0, #22
200067ae:	4448      	add	r0, r9
200067b0:	0005      	movs	r5, r0
200067b2:	4268      	negs	r0, r5
200067b4:	4168      	adcs	r0, r5
200067b6:	0080      	lsls	r0, r0, #2
200067b8:	1810      	adds	r0, r2, r0
200067ba:	b280      	uxth	r0, r0
200067bc:	4378      	muls	r0, r7
200067be:	9d04      	ldr	r5, [sp, #16]
200067c0:	0cc0      	lsrs	r0, r0, #19
200067c2:	8018      	strh	r0, [r3, #0]
200067c4:	4b83      	ldr	r3, [pc, #524]	@ (200069d4 <_ZN12ComputerCard10BufferFullEv+0x3ac>)
200067c6:	9001      	str	r0, [sp, #4]
200067c8:	00a8      	lsls	r0, r5, #2
200067ca:	58c2      	ldr	r2, [r0, r3]
200067cc:	9f00      	ldr	r7, [sp, #0]
200067ce:	0115      	lsls	r5, r2, #4
200067d0:	1aaa      	subs	r2, r5, r2
200067d2:	013d      	lsls	r5, r7, #4
200067d4:	1952      	adds	r2, r2, r5
200067d6:	1112      	asrs	r2, r2, #4
200067d8:	50c2      	str	r2, [r0, r3]
200067da:	2580      	movs	r5, #128	@ 0x80
200067dc:	58c2      	ldr	r2, [r0, r3]
200067de:	1827      	adds	r7, r4, r0
200067e0:	2086      	movs	r0, #134	@ 0x86
200067e2:	012d      	lsls	r5, r5, #4
200067e4:	1112      	asrs	r2, r2, #4
200067e6:	1aaa      	subs	r2, r5, r2
200067e8:	0040      	lsls	r0, r0, #1
200067ea:	503a      	str	r2, [r7, r0]
200067ec:	9b03      	ldr	r3, [sp, #12]
200067ee:	9801      	ldr	r0, [sp, #4]
200067f0:	46b9      	mov	r9, r7
200067f2:	181b      	adds	r3, r3, r0
200067f4:	278b      	movs	r7, #139	@ 0x8b
200067f6:	208a      	movs	r0, #138	@ 0x8a
200067f8:	9a02      	ldr	r2, [sp, #8]
200067fa:	4d77      	ldr	r5, [pc, #476]	@ (200069d8 <_ZN12ComputerCard10BufferFullEv+0x3b0>)
200067fc:	4462      	add	r2, ip
200067fe:	1952      	adds	r2, r2, r5
20006800:	195b      	adds	r3, r3, r5
20006802:	1052      	asrs	r2, r2, #1
20006804:	105b      	asrs	r3, r3, #1
20006806:	0040      	lsls	r0, r0, #1
20006808:	007f      	lsls	r7, r7, #1
2000680a:	4252      	negs	r2, r2
2000680c:	425b      	negs	r3, r3
2000680e:	53e2      	strh	r2, [r4, r7]
20006810:	5223      	strh	r3, [r4, r0]
20006812:	5be3      	ldrh	r3, [r4, r7]
20006814:	69a2      	ldr	r2, [r4, #24]
20006816:	b21b      	sxth	r3, r3
20006818:	4f70      	ldr	r7, [pc, #448]	@ (200069dc <_ZN12ComputerCard10BufferFullEv+0x3b4>)
2000681a:	18d2      	adds	r2, r2, r3
2000681c:	4357      	muls	r7, r2
2000681e:	6a22      	ldr	r2, [r4, #32]
20006820:	001d      	movs	r5, r3
20006822:	0493      	lsls	r3, r2, #18
20006824:	1a9b      	subs	r3, r3, r2
20006826:	01db      	lsls	r3, r3, #7
20006828:	189b      	adds	r3, r3, r2
2000682a:	009b      	lsls	r3, r3, #2
2000682c:	189b      	adds	r3, r3, r2
2000682e:	011b      	lsls	r3, r3, #4
20006830:	189b      	adds	r3, r3, r2
20006832:	005b      	lsls	r3, r3, #1
20006834:	189b      	adds	r3, r3, r2
20006836:	18fa      	adds	r2, r7, r3
20006838:	278b      	movs	r7, #139	@ 0x8b
2000683a:	6963      	ldr	r3, [r4, #20]
2000683c:	1392      	asrs	r2, r2, #14
2000683e:	61a3      	str	r3, [r4, #24]
20006840:	69e3      	ldr	r3, [r4, #28]
20006842:	007f      	lsls	r7, r7, #1
20006844:	6165      	str	r5, [r4, #20]
20006846:	61e2      	str	r2, [r4, #28]
20006848:	6223      	str	r3, [r4, #32]
2000684a:	53e2      	strh	r2, [r4, r7]
2000684c:	5a23      	ldrh	r3, [r4, r0]
2000684e:	68a2      	ldr	r2, [r4, #8]
20006850:	b21b      	sxth	r3, r3
20006852:	469c      	mov	ip, r3
20006854:	4f61      	ldr	r7, [pc, #388]	@ (200069dc <_ZN12ComputerCard10BufferFullEv+0x3b4>)
20006856:	4462      	add	r2, ip
20006858:	4357      	muls	r7, r2
2000685a:	6922      	ldr	r2, [r4, #16]
2000685c:	250c      	movs	r5, #12
2000685e:	0493      	lsls	r3, r2, #18
20006860:	1a9b      	subs	r3, r3, r2
20006862:	01db      	lsls	r3, r3, #7
20006864:	189b      	adds	r3, r3, r2
20006866:	009b      	lsls	r3, r3, #2
20006868:	189b      	adds	r3, r3, r2
2000686a:	011b      	lsls	r3, r3, #4
2000686c:	189b      	adds	r3, r3, r2
2000686e:	005b      	lsls	r3, r3, #1
20006870:	189b      	adds	r3, r3, r2
20006872:	18fa      	adds	r2, r7, r3
20006874:	6863      	ldr	r3, [r4, #4]
20006876:	1392      	asrs	r2, r2, #14
20006878:	60a3      	str	r3, [r4, #8]
2000687a:	4663      	mov	r3, ip
2000687c:	6063      	str	r3, [r4, #4]
2000687e:	68e3      	ldr	r3, [r4, #12]
20006880:	60e2      	str	r2, [r4, #12]
20006882:	6123      	str	r3, [r4, #16]
20006884:	5222      	strh	r2, [r4, r0]
20006886:	2285      	movs	r2, #133	@ 0x85
20006888:	380c      	subs	r0, #12
2000688a:	5c23      	ldrb	r3, [r4, r0]
2000688c:	0052      	lsls	r2, r2, #1
2000688e:	54a3      	strb	r3, [r4, r2]
20006890:	220a      	movs	r2, #10
20006892:	32ff      	adds	r2, #255	@ 0xff
20006894:	5ca3      	ldrb	r3, [r4, r2]
20006896:	35ff      	adds	r5, #255	@ 0xff
20006898:	5563      	strb	r3, [r4, r5]
2000689a:	23d0      	movs	r3, #208	@ 0xd0
2000689c:	4645      	mov	r5, r8
2000689e:	061b      	lsls	r3, r3, #24
200068a0:	469c      	mov	ip, r3
200068a2:	685b      	ldr	r3, [r3, #4]
200068a4:	314d      	adds	r1, #77	@ 0x4d
200068a6:	075b      	lsls	r3, r3, #29
200068a8:	0fdb      	lsrs	r3, r3, #31
200068aa:	406b      	eors	r3, r5
200068ac:	5423      	strb	r3, [r4, r0]
200068ae:	4663      	mov	r3, ip
200068b0:	4640      	mov	r0, r8
200068b2:	685b      	ldr	r3, [r3, #4]
200068b4:	31ff      	adds	r1, #255	@ 0xff
200068b6:	071b      	lsls	r3, r3, #28
200068b8:	0fdb      	lsrs	r3, r3, #31
200068ba:	4043      	eors	r3, r0
200068bc:	54a3      	strb	r3, [r4, r2]
200068be:	4b48      	ldr	r3, [pc, #288]	@ (200069e0 <_ZN12ComputerCard10BufferFullEv+0x3b8>)
200068c0:	00b2      	lsls	r2, r6, #2
200068c2:	4694      	mov	ip, r2
200068c4:	58d2      	ldr	r2, [r2, r3]
200068c6:	363e      	adds	r6, #62	@ 0x3e
200068c8:	4690      	mov	r8, r2
200068ca:	880a      	ldrh	r2, [r1, #0]
200068cc:	4641      	mov	r1, r8
200068ce:	4640      	mov	r0, r8
200068d0:	01c9      	lsls	r1, r1, #7
200068d2:	1a09      	subs	r1, r1, r0
200068d4:	0112      	lsls	r2, r2, #4
200068d6:	1852      	adds	r2, r2, r1
200068d8:	4661      	mov	r1, ip
200068da:	11d2      	asrs	r2, r2, #7
200068dc:	50ca      	str	r2, [r1, r3]
200068de:	58cb      	ldr	r3, [r1, r3]
200068e0:	00b6      	lsls	r6, r6, #2
200068e2:	111b      	asrs	r3, r3, #4
200068e4:	5133      	str	r3, [r6, r4]
200068e6:	2382      	movs	r3, #130	@ 0x82
200068e8:	22fa      	movs	r2, #250	@ 0xfa
200068ea:	005b      	lsls	r3, r3, #1
200068ec:	58e1      	ldr	r1, [r4, r3]
200068ee:	0092      	lsls	r2, r2, #2
200068f0:	58e6      	ldr	r6, [r4, r3]
200068f2:	2301      	movs	r3, #1
200068f4:	4291      	cmp	r1, r2
200068f6:	dc00      	bgt.n	200068fa <_ZN12ComputerCard10BufferFullEv+0x2d2>
200068f8:	2300      	movs	r3, #0
200068fa:	493a      	ldr	r1, [pc, #232]	@ (200069e4 <_ZN12ComputerCard10BufferFullEv+0x3bc>)
200068fc:	2201      	movs	r2, #1
200068fe:	428e      	cmp	r6, r1
20006900:	dc00      	bgt.n	20006904 <_ZN12ComputerCard10BufferFullEv+0x2dc>
20006902:	2200      	movs	r2, #0
20006904:	189b      	adds	r3, r3, r2
20006906:	223c      	movs	r2, #60	@ 0x3c
20006908:	4e37      	ldr	r6, [pc, #220]	@ (200069e8 <_ZN12ComputerCard10BufferFullEv+0x3c0>)
2000690a:	32ff      	adds	r2, #255	@ 0xff
2000690c:	54a3      	strb	r3, [r4, r2]
2000690e:	6832      	ldr	r2, [r6, #0]
20006910:	2a00      	cmp	r2, #0
20006912:	d002      	beq.n	2000691a <_ZN12ComputerCard10BufferFullEv+0x2f2>
20006914:	229e      	movs	r2, #158	@ 0x9e
20006916:	0052      	lsls	r2, r2, #1
20006918:	54a3      	strb	r3, [r4, r2]
2000691a:	239d      	movs	r3, #157	@ 0x9d
2000691c:	005b      	lsls	r3, r3, #1
2000691e:	5ce3      	ldrb	r3, [r4, r3]
20006920:	2b00      	cmp	r3, #0
20006922:	d000      	beq.n	20006926 <_ZN12ComputerCard10BufferFullEv+0x2fe>
20006924:	e084      	b.n	20006a30 <_ZN12ComputerCard10BufferFullEv+0x408>
20006926:	4b31      	ldr	r3, [pc, #196]	@ (200069ec <_ZN12ComputerCard10BufferFullEv+0x3c4>)
20006928:	4698      	mov	r8, r3
2000692a:	6823      	ldr	r3, [r4, #0]
2000692c:	4a30      	ldr	r2, [pc, #192]	@ (200069f0 <_ZN12ComputerCard10BufferFullEv+0x3c8>)
2000692e:	681b      	ldr	r3, [r3, #0]
20006930:	0020      	movs	r0, r4
20006932:	4293      	cmp	r3, r2
20006934:	d000      	beq.n	20006938 <_ZN12ComputerCard10BufferFullEv+0x310>
20006936:	e128      	b.n	20006b8a <_ZN12ComputerCard10BufferFullEv+0x562>
20006938:	f7fa fbf0 	bl	2000111c <_ZN10WildPebble13ProcessSampleEv>
2000693c:	23f2      	movs	r3, #242	@ 0xf2
2000693e:	4651      	mov	r1, sl
20006940:	2080      	movs	r0, #128	@ 0x80
20006942:	5ae3      	ldrh	r3, [r4, r3]
20006944:	3158      	adds	r1, #88	@ 0x58
20006946:	425b      	negs	r3, r3
20006948:	1c1a      	adds	r2, r3, #0
2000694a:	b21b      	sxth	r3, r3
2000694c:	0089      	lsls	r1, r1, #2
2000694e:	0100      	lsls	r0, r0, #4
20006950:	4283      	cmp	r3, r0
20006952:	db01      	blt.n	20006958 <_ZN12ComputerCard10BufferFullEv+0x330>
20006954:	4b27      	ldr	r3, [pc, #156]	@ (200069f4 <_ZN12ComputerCard10BufferFullEv+0x3cc>)
20006956:	1c1a      	adds	r2, r3, #0
20006958:	4b27      	ldr	r3, [pc, #156]	@ (200069f8 <_ZN12ComputerCard10BufferFullEv+0x3d0>)
2000695a:	b210      	sxth	r0, r2
2000695c:	4298      	cmp	r0, r3
2000695e:	da00      	bge.n	20006962 <_ZN12ComputerCard10BufferFullEv+0x33a>
20006960:	1c1a      	adds	r2, r3, #0
20006962:	2380      	movs	r3, #128	@ 0x80
20006964:	011b      	lsls	r3, r3, #4
20006966:	469c      	mov	ip, r3
20006968:	23c0      	movs	r3, #192	@ 0xc0
2000696a:	4462      	add	r2, ip
2000696c:	019b      	lsls	r3, r3, #6
2000696e:	4313      	orrs	r3, r2
20006970:	530b      	strh	r3, [r1, r4]
20006972:	4653      	mov	r3, sl
20006974:	009d      	lsls	r5, r3, #2
20006976:	23f4      	movs	r3, #244	@ 0xf4
20006978:	5ae3      	ldrh	r3, [r4, r3]
2000697a:	1965      	adds	r5, r4, r5
2000697c:	425b      	negs	r3, r3
2000697e:	3563      	adds	r5, #99	@ 0x63
20006980:	1c1a      	adds	r2, r3, #0
20006982:	b21b      	sxth	r3, r3
20006984:	35ff      	adds	r5, #255	@ 0xff
20006986:	4563      	cmp	r3, ip
20006988:	db01      	blt.n	2000698e <_ZN12ComputerCard10BufferFullEv+0x366>
2000698a:	4b1a      	ldr	r3, [pc, #104]	@ (200069f4 <_ZN12ComputerCard10BufferFullEv+0x3cc>)
2000698c:	1c1a      	adds	r2, r3, #0
2000698e:	4b1a      	ldr	r3, [pc, #104]	@ (200069f8 <_ZN12ComputerCard10BufferFullEv+0x3d0>)
20006990:	b211      	sxth	r1, r2
20006992:	4299      	cmp	r1, r3
20006994:	da00      	bge.n	20006998 <_ZN12ComputerCard10BufferFullEv+0x370>
20006996:	1c1a      	adds	r2, r3, #0
20006998:	2380      	movs	r3, #128	@ 0x80
2000699a:	011b      	lsls	r3, r3, #4
2000699c:	18d2      	adds	r2, r2, r3
2000699e:	4b17      	ldr	r3, [pc, #92]	@ (200069fc <_ZN12ComputerCard10BufferFullEv+0x3d4>)
200069a0:	4313      	orrs	r3, r2
200069a2:	802b      	strh	r3, [r5, #0]
200069a4:	465a      	mov	r2, fp
200069a6:	253e      	movs	r5, #62	@ 0x3e
200069a8:	9b05      	ldr	r3, [sp, #20]
200069aa:	35ff      	adds	r5, #255	@ 0xff
200069ac:	601a      	str	r2, [r3, #0]
200069ae:	5d63      	ldrb	r3, [r4, r5]
200069b0:	b2da      	uxtb	r2, r3
200069b2:	2b01      	cmp	r3, #1
200069b4:	d100      	bne.n	200069b8 <_ZN12ComputerCard10BufferFullEv+0x390>
200069b6:	e10a      	b.n	20006bce <_ZN12ComputerCard10BufferFullEv+0x5a6>
200069b8:	e022      	b.n	20006a00 <_ZN12ComputerCard10BufferFullEv+0x3d8>
200069ba:	46c0      	nop			@ (mov r8, r8)
200069bc:	4004c000 	.word	0x4004c000
200069c0:	4004d000 	.word	0x4004d000
200069c4:	200086c4 	.word	0x200086c4
200069c8:	0000040c 	.word	0x0000040c
200069cc:	fffffe01 	.word	0xfffffe01
200069d0:	0007f09d 	.word	0x0007f09d
200069d4:	200086ac 	.word	0x200086ac
200069d8:	fffff000 	.word	0xfffff000
200069dc:	00003fae 	.word	0x00003fae
200069e0:	200086b4 	.word	0x200086b4
200069e4:	00000bb8 	.word	0x00000bb8
200069e8:	20007e58 	.word	0x20007e58
200069ec:	200086a4 	.word	0x200086a4
200069f0:	2000111d 	.word	0x2000111d
200069f4:	000007ff 	.word	0x000007ff
200069f8:	fffff800 	.word	0xfffff800
200069fc:	ffffb000 	.word	0xffffb000
20006a00:	4643      	mov	r3, r8
20006a02:	681a      	ldr	r2, [r3, #0]
20006a04:	230f      	movs	r3, #15
20006a06:	3201      	adds	r2, #1
20006a08:	4013      	ands	r3, r2
20006a0a:	4642      	mov	r2, r8
20006a0c:	6013      	str	r3, [r2, #0]
20006a0e:	233c      	movs	r3, #60	@ 0x3c
20006a10:	33ff      	adds	r3, #255	@ 0xff
20006a12:	5ce2      	ldrb	r2, [r4, r3]
20006a14:	3301      	adds	r3, #1
20006a16:	54e2      	strb	r2, [r4, r3]
20006a18:	6833      	ldr	r3, [r6, #0]
20006a1a:	2b00      	cmp	r3, #0
20006a1c:	d001      	beq.n	20006a22 <_ZN12ComputerCard10BufferFullEv+0x3fa>
20006a1e:	3b01      	subs	r3, #1
20006a20:	6033      	str	r3, [r6, #0]
20006a22:	b007      	add	sp, #28
20006a24:	bcf0      	pop	{r4, r5, r6, r7}
20006a26:	46bb      	mov	fp, r7
20006a28:	46b2      	mov	sl, r6
20006a2a:	46a9      	mov	r9, r5
20006a2c:	46a0      	mov	r8, r4
20006a2e:	bdf0      	pop	{r4, r5, r6, r7, pc}
20006a30:	4b7e      	ldr	r3, [pc, #504]	@ (20006c2c <_ZN12ComputerCard10BufferFullEv+0x604>)
20006a32:	4698      	mov	r8, r3
20006a34:	681b      	ldr	r3, [r3, #0]
20006a36:	2b00      	cmp	r3, #0
20006a38:	d100      	bne.n	20006a3c <_ZN12ComputerCard10BufferFullEv+0x414>
20006a3a:	e0b4      	b.n	20006ba6 <_ZN12ComputerCard10BufferFullEv+0x57e>
20006a3c:	001a      	movs	r2, r3
20006a3e:	3a0e      	subs	r2, #14
20006a40:	2a01      	cmp	r2, #1
20006a42:	d864      	bhi.n	20006b0e <_ZN12ComputerCard10BufferFullEv+0x4e6>
20006a44:	25e1      	movs	r5, #225	@ 0xe1
20006a46:	00ed      	lsls	r5, r5, #3
20006a48:	46ac      	mov	ip, r5
20006a4a:	2192      	movs	r1, #146	@ 0x92
20006a4c:	4648      	mov	r0, r9
20006a4e:	9d00      	ldr	r5, [sp, #0]
20006a50:	0049      	lsls	r1, r1, #1
20006a52:	4565      	cmp	r5, ip
20006a54:	41ad      	sbcs	r5, r5
20006a56:	5842      	ldr	r2, [r0, r1]
20006a58:	426d      	negs	r5, r5
20006a5a:	0052      	lsls	r2, r2, #1
20006a5c:	1952      	adds	r2, r2, r5
20006a5e:	5042      	str	r2, [r0, r1]
20006a60:	2b0f      	cmp	r3, #15
20006a62:	d154      	bne.n	20006b0e <_ZN12ComputerCard10BufferFullEv+0x4e6>
20006a64:	258e      	movs	r5, #142	@ 0x8e
20006a66:	9a01      	ldr	r2, [sp, #4]
20006a68:	006d      	lsls	r5, r5, #1
20006a6a:	4562      	cmp	r2, ip
20006a6c:	4180      	sbcs	r0, r0
20006a6e:	5963      	ldr	r3, [r4, r5]
20006a70:	2796      	movs	r7, #150	@ 0x96
20006a72:	005b      	lsls	r3, r3, #1
20006a74:	1a1b      	subs	r3, r3, r0
20006a76:	2090      	movs	r0, #144	@ 0x90
20006a78:	5163      	str	r3, [r4, r5]
20006a7a:	9b02      	ldr	r3, [sp, #8]
20006a7c:	0040      	lsls	r0, r0, #1
20006a7e:	4563      	cmp	r3, ip
20006a80:	419b      	sbcs	r3, r3
20006a82:	5822      	ldr	r2, [r4, r0]
20006a84:	007f      	lsls	r7, r7, #1
20006a86:	0052      	lsls	r2, r2, #1
20006a88:	1ad2      	subs	r2, r2, r3
20006a8a:	5022      	str	r2, [r4, r0]
20006a8c:	2284      	movs	r2, #132	@ 0x84
20006a8e:	59e3      	ldr	r3, [r4, r7]
20006a90:	0052      	lsls	r2, r2, #1
20006a92:	5ca2      	ldrb	r2, [r4, r2]
20006a94:	005b      	lsls	r3, r3, #1
20006a96:	189b      	adds	r3, r3, r2
20006a98:	51e3      	str	r3, [r4, r7]
20006a9a:	2398      	movs	r3, #152	@ 0x98
20006a9c:	220a      	movs	r2, #10
20006a9e:	005b      	lsls	r3, r3, #1
20006aa0:	469c      	mov	ip, r3
20006aa2:	32ff      	adds	r2, #255	@ 0xff
20006aa4:	58e3      	ldr	r3, [r4, r3]
20006aa6:	5ca2      	ldrb	r2, [r4, r2]
20006aa8:	005b      	lsls	r3, r3, #1
20006aaa:	189b      	adds	r3, r3, r2
20006aac:	4662      	mov	r2, ip
20006aae:	50a3      	str	r3, [r4, r2]
20006ab0:	4b5f      	ldr	r3, [pc, #380]	@ (20006c30 <_ZN12ComputerCard10BufferFullEv+0x608>)
20006ab2:	5962      	ldr	r2, [r4, r5]
20006ab4:	681b      	ldr	r3, [r3, #0]
20006ab6:	1a9a      	subs	r2, r3, r2
20006ab8:	1e55      	subs	r5, r2, #1
20006aba:	41aa      	sbcs	r2, r5
20006abc:	259a      	movs	r5, #154	@ 0x9a
20006abe:	006d      	lsls	r5, r5, #1
20006ac0:	5562      	strb	r2, [r4, r5]
20006ac2:	5822      	ldr	r2, [r4, r0]
20006ac4:	1a9a      	subs	r2, r3, r2
20006ac6:	1e50      	subs	r0, r2, #1
20006ac8:	4182      	sbcs	r2, r0
20006aca:	2036      	movs	r0, #54	@ 0x36
20006acc:	30ff      	adds	r0, #255	@ 0xff
20006ace:	5422      	strb	r2, [r4, r0]
20006ad0:	5862      	ldr	r2, [r4, r1]
20006ad2:	1a9a      	subs	r2, r3, r2
20006ad4:	1e51      	subs	r1, r2, #1
20006ad6:	418a      	sbcs	r2, r1
20006ad8:	219b      	movs	r1, #155	@ 0x9b
20006ada:	0049      	lsls	r1, r1, #1
20006adc:	5462      	strb	r2, [r4, r1]
20006ade:	2294      	movs	r2, #148	@ 0x94
20006ae0:	0052      	lsls	r2, r2, #1
20006ae2:	58a2      	ldr	r2, [r4, r2]
20006ae4:	1a9a      	subs	r2, r3, r2
20006ae6:	1e51      	subs	r1, r2, #1
20006ae8:	418a      	sbcs	r2, r1
20006aea:	2138      	movs	r1, #56	@ 0x38
20006aec:	31ff      	adds	r1, #255	@ 0xff
20006aee:	5462      	strb	r2, [r4, r1]
20006af0:	59e2      	ldr	r2, [r4, r7]
20006af2:	1a9a      	subs	r2, r3, r2
20006af4:	1e51      	subs	r1, r2, #1
20006af6:	418a      	sbcs	r2, r1
20006af8:	219c      	movs	r1, #156	@ 0x9c
20006afa:	0049      	lsls	r1, r1, #1
20006afc:	5462      	strb	r2, [r4, r1]
20006afe:	4662      	mov	r2, ip
20006b00:	58a2      	ldr	r2, [r4, r2]
20006b02:	1ad3      	subs	r3, r2, r3
20006b04:	1e5a      	subs	r2, r3, #1
20006b06:	4193      	sbcs	r3, r2
20006b08:	223a      	movs	r2, #58	@ 0x3a
20006b0a:	32ff      	adds	r2, #255	@ 0xff
20006b0c:	54a3      	strb	r3, [r4, r2]
20006b0e:	239a      	movs	r3, #154	@ 0x9a
20006b10:	005b      	lsls	r3, r3, #1
20006b12:	5ce3      	ldrb	r3, [r4, r3]
20006b14:	b2da      	uxtb	r2, r3
20006b16:	2b00      	cmp	r3, #0
20006b18:	d102      	bne.n	20006b20 <_ZN12ComputerCard10BufferFullEv+0x4f8>
20006b1a:	3315      	adds	r3, #21
20006b1c:	33ff      	adds	r3, #255	@ 0xff
20006b1e:	52e2      	strh	r2, [r4, r3]
20006b20:	2336      	movs	r3, #54	@ 0x36
20006b22:	33ff      	adds	r3, #255	@ 0xff
20006b24:	5ce3      	ldrb	r3, [r4, r3]
20006b26:	b2da      	uxtb	r2, r3
20006b28:	2b00      	cmp	r3, #0
20006b2a:	d102      	bne.n	20006b32 <_ZN12ComputerCard10BufferFullEv+0x50a>
20006b2c:	3317      	adds	r3, #23
20006b2e:	33ff      	adds	r3, #255	@ 0xff
20006b30:	52e2      	strh	r2, [r4, r3]
20006b32:	239b      	movs	r3, #155	@ 0x9b
20006b34:	005b      	lsls	r3, r3, #1
20006b36:	5ce3      	ldrb	r3, [r4, r3]
20006b38:	b2da      	uxtb	r2, r3
20006b3a:	2b00      	cmp	r3, #0
20006b3c:	d102      	bne.n	20006b44 <_ZN12ComputerCard10BufferFullEv+0x51c>
20006b3e:	330d      	adds	r3, #13
20006b40:	33ff      	adds	r3, #255	@ 0xff
20006b42:	50e2      	str	r2, [r4, r3]
20006b44:	2338      	movs	r3, #56	@ 0x38
20006b46:	33ff      	adds	r3, #255	@ 0xff
20006b48:	5ce3      	ldrb	r3, [r4, r3]
20006b4a:	b2da      	uxtb	r2, r3
20006b4c:	2b00      	cmp	r3, #0
20006b4e:	d102      	bne.n	20006b56 <_ZN12ComputerCard10BufferFullEv+0x52e>
20006b50:	3311      	adds	r3, #17
20006b52:	33ff      	adds	r3, #255	@ 0xff
20006b54:	50e2      	str	r2, [r4, r3]
20006b56:	239c      	movs	r3, #156	@ 0x9c
20006b58:	005b      	lsls	r3, r3, #1
20006b5a:	5ce3      	ldrb	r3, [r4, r3]
20006b5c:	b2da      	uxtb	r2, r3
20006b5e:	2b00      	cmp	r3, #0
20006b60:	d102      	bne.n	20006b68 <_ZN12ComputerCard10BufferFullEv+0x540>
20006b62:	3309      	adds	r3, #9
20006b64:	33ff      	adds	r3, #255	@ 0xff
20006b66:	54e2      	strb	r2, [r4, r3]
20006b68:	233a      	movs	r3, #58	@ 0x3a
20006b6a:	33ff      	adds	r3, #255	@ 0xff
20006b6c:	5ce3      	ldrb	r3, [r4, r3]
20006b6e:	b2da      	uxtb	r2, r3
20006b70:	2b00      	cmp	r3, #0
20006b72:	d000      	beq.n	20006b76 <_ZN12ComputerCard10BufferFullEv+0x54e>
20006b74:	e6d9      	b.n	2000692a <_ZN12ComputerCard10BufferFullEv+0x302>
20006b76:	230a      	movs	r3, #10
20006b78:	33ff      	adds	r3, #255	@ 0xff
20006b7a:	54e2      	strb	r2, [r4, r3]
20006b7c:	6823      	ldr	r3, [r4, #0]
20006b7e:	4a2d      	ldr	r2, [pc, #180]	@ (20006c34 <_ZN12ComputerCard10BufferFullEv+0x60c>)
20006b80:	681b      	ldr	r3, [r3, #0]
20006b82:	0020      	movs	r0, r4
20006b84:	4293      	cmp	r3, r2
20006b86:	d100      	bne.n	20006b8a <_ZN12ComputerCard10BufferFullEv+0x562>
20006b88:	e6d6      	b.n	20006938 <_ZN12ComputerCard10BufferFullEv+0x310>
20006b8a:	4798      	blx	r3
20006b8c:	e6d6      	b.n	2000693c <_ZN12ComputerCard10BufferFullEv+0x314>
20006b8e:	23d0      	movs	r3, #208	@ 0xd0
20006b90:	2280      	movs	r2, #128	@ 0x80
20006b92:	061b      	lsls	r3, r3, #24
20006b94:	0492      	lsls	r2, r2, #18
20006b96:	619a      	str	r2, [r3, #24]
20006b98:	e56c      	b.n	20006674 <_ZN12ComputerCard10BufferFullEv+0x4c>
20006b9a:	22d0      	movs	r2, #208	@ 0xd0
20006b9c:	2180      	movs	r1, #128	@ 0x80
20006b9e:	0612      	lsls	r2, r2, #24
20006ba0:	0449      	lsls	r1, r1, #17
20006ba2:	6191      	str	r1, [r2, #24]
20006ba4:	e55e      	b.n	20006664 <_ZN12ComputerCard10BufferFullEv+0x3c>
20006ba6:	4a24      	ldr	r2, [pc, #144]	@ (20006c38 <_ZN12ComputerCard10BufferFullEv+0x610>)
20006ba8:	4b24      	ldr	r3, [pc, #144]	@ (20006c3c <_ZN12ComputerCard10BufferFullEv+0x614>)
20006baa:	6811      	ldr	r1, [r2, #0]
20006bac:	434b      	muls	r3, r1
20006bae:	4924      	ldr	r1, [pc, #144]	@ (20006c40 <_ZN12ComputerCard10BufferFullEv+0x618>)
20006bb0:	185b      	adds	r3, r3, r1
20006bb2:	6013      	str	r3, [r2, #0]
20006bb4:	0fd9      	lsrs	r1, r3, #31
20006bb6:	2b00      	cmp	r3, #0
20006bb8:	db33      	blt.n	20006c22 <_ZN12ComputerCard10BufferFullEv+0x5fa>
20006bba:	23d0      	movs	r3, #208	@ 0xd0
20006bbc:	2210      	movs	r2, #16
20006bbe:	061b      	lsls	r3, r3, #24
20006bc0:	619a      	str	r2, [r3, #24]
20006bc2:	4a1b      	ldr	r2, [pc, #108]	@ (20006c30 <_ZN12ComputerCard10BufferFullEv+0x608>)
20006bc4:	6813      	ldr	r3, [r2, #0]
20006bc6:	005b      	lsls	r3, r3, #1
20006bc8:	185b      	adds	r3, r3, r1
20006bca:	6013      	str	r3, [r2, #0]
20006bcc:	e79f      	b.n	20006b0e <_ZN12ComputerCard10BufferFullEv+0x4e6>
20006bce:	2108      	movs	r1, #8
20006bd0:	4b1c      	ldr	r3, [pc, #112]	@ (20006c44 <_ZN12ComputerCard10BufferFullEv+0x61c>)
20006bd2:	481d      	ldr	r0, [pc, #116]	@ (20006c48 <_ZN12ComputerCard10BufferFullEv+0x620>)
20006bd4:	6019      	str	r1, [r3, #0]
20006bd6:	21f8      	movs	r1, #248	@ 0xf8
20006bd8:	6803      	ldr	r3, [r0, #0]
20006bda:	0349      	lsls	r1, r1, #13
20006bdc:	400b      	ands	r3, r1
20006bde:	491b      	ldr	r1, [pc, #108]	@ (20006c4c <_ZN12ComputerCard10BufferFullEv+0x624>)
20006be0:	600b      	str	r3, [r1, #0]
20006be2:	6803      	ldr	r3, [r0, #0]
20006be4:	20e0      	movs	r0, #224	@ 0xe0
20006be6:	01c0      	lsls	r0, r0, #7
20006be8:	4003      	ands	r3, r0
20006bea:	600b      	str	r3, [r1, #0]
20006bec:	23b4      	movs	r3, #180	@ 0xb4
20006bee:	005b      	lsls	r3, r3, #1
20006bf0:	5ce1      	ldrb	r1, [r4, r3]
20006bf2:	20a0      	movs	r0, #160	@ 0xa0
20006bf4:	408a      	lsls	r2, r1
20006bf6:	4916      	ldr	r1, [pc, #88]	@ (20006c50 <_ZN12ComputerCard10BufferFullEv+0x628>)
20006bf8:	05c0      	lsls	r0, r0, #23
20006bfa:	5042      	str	r2, [r0, r1]
20006bfc:	5ce0      	ldrb	r0, [r4, r3]
20006bfe:	f7ff f943 	bl	20005e88 <dma_channel_cleanup>
20006c02:	236a      	movs	r3, #106	@ 0x6a
20006c04:	33ff      	adds	r3, #255	@ 0xff
20006c06:	5ce0      	ldrb	r0, [r4, r3]
20006c08:	f7ff f93e 	bl	20005e88 <dma_channel_cleanup>
20006c0c:	2100      	movs	r1, #0
20006c0e:	200b      	movs	r0, #11
20006c10:	f7fb fbee 	bl	200023f0 <irq_set_enabled>
20006c14:	200b      	movs	r0, #11
20006c16:	490f      	ldr	r1, [pc, #60]	@ (20006c54 <_ZN12ComputerCard10BufferFullEv+0x62c>)
20006c18:	f7fb fd18 	bl	2000264c <irq_remove_handler>
20006c1c:	2302      	movs	r3, #2
20006c1e:	5563      	strb	r3, [r4, r5]
20006c20:	e6ee      	b.n	20006a00 <_ZN12ComputerCard10BufferFullEv+0x3d8>
20006c22:	23d0      	movs	r3, #208	@ 0xd0
20006c24:	2210      	movs	r2, #16
20006c26:	061b      	lsls	r3, r3, #24
20006c28:	615a      	str	r2, [r3, #20]
20006c2a:	e7ca      	b.n	20006bc2 <_ZN12ComputerCard10BufferFullEv+0x59a>
20006c2c:	200086a4 	.word	0x200086a4
20006c30:	200086a8 	.word	0x200086a8
20006c34:	2000111d 	.word	0x2000111d
20006c38:	20007e5c 	.word	0x20007e5c
20006c3c:	0019660d 	.word	0x0019660d
20006c40:	3c6ef35f 	.word	0x3c6ef35f
20006c44:	4004f000 	.word	0x4004f000
20006c48:	4004c000 	.word	0x4004c000
20006c4c:	4004d000 	.word	0x4004d000
20006c50:	0000040c 	.word	0x0000040c
20006c54:	20001dc1 	.word	0x20001dc1

20006c58 <mutex_try_enter_block_until>:
20006c58:	b5f0      	push	{r4, r5, r6, r7, lr}
20006c5a:	46c6      	mov	lr, r8
20006c5c:	0016      	movs	r6, r2
20006c5e:	b500      	push	{lr}
20006c60:	0004      	movs	r4, r0
20006c62:	001f      	movs	r7, r3
20006c64:	6802      	ldr	r2, [r0, #0]
20006c66:	f3ef 8110 	mrs	r1, PRIMASK
20006c6a:	b672      	cpsid	i
20006c6c:	6813      	ldr	r3, [r2, #0]
20006c6e:	2b00      	cmp	r3, #0
20006c70:	d0fc      	beq.n	20006c6c <mutex_try_enter_block_until+0x14>
20006c72:	f3bf 8f5f 	dmb	sy
20006c76:	2304      	movs	r3, #4
20006c78:	56e3      	ldrsb	r3, [r4, r3]
20006c7a:	6822      	ldr	r2, [r4, #0]
20006c7c:	2b00      	cmp	r3, #0
20006c7e:	db2b      	blt.n	20006cd8 <mutex_try_enter_block_until+0x80>
20006c80:	f3bf 8f5f 	dmb	sy
20006c84:	2000      	movs	r0, #0
20006c86:	6010      	str	r0, [r2, #0]
20006c88:	f381 8810 	msr	PRIMASK, r1
20006c8c:	22d0      	movs	r2, #208	@ 0xd0
20006c8e:	0612      	lsls	r2, r2, #24
20006c90:	7812      	ldrb	r2, [r2, #0]
20006c92:	2500      	movs	r5, #0
20006c94:	b252      	sxtb	r2, r2
20006c96:	4690      	mov	r8, r2
20006c98:	429a      	cmp	r2, r3
20006c9a:	d10e      	bne.n	20006cba <mutex_try_enter_block_until+0x62>
20006c9c:	2000      	movs	r0, #0
20006c9e:	bc80      	pop	{r7}
20006ca0:	46b8      	mov	r8, r7
20006ca2:	bdf0      	pop	{r4, r5, r6, r7, pc}
20006ca4:	f3bf 8f5f 	dmb	sy
20006ca8:	6015      	str	r5, [r2, #0]
20006caa:	f381 8810 	msr	PRIMASK, r1
20006cae:	0030      	movs	r0, r6
20006cb0:	0039      	movs	r1, r7
20006cb2:	f7fc f975 	bl	20002fa0 <best_effort_wfe_or_timeout>
20006cb6:	2800      	cmp	r0, #0
20006cb8:	d1f0      	bne.n	20006c9c <mutex_try_enter_block_until+0x44>
20006cba:	6822      	ldr	r2, [r4, #0]
20006cbc:	f3ef 8110 	mrs	r1, PRIMASK
20006cc0:	b672      	cpsid	i
20006cc2:	6813      	ldr	r3, [r2, #0]
20006cc4:	2b00      	cmp	r3, #0
20006cc6:	d0fc      	beq.n	20006cc2 <mutex_try_enter_block_until+0x6a>
20006cc8:	f3bf 8f5f 	dmb	sy
20006ccc:	7923      	ldrb	r3, [r4, #4]
20006cce:	6822      	ldr	r2, [r4, #0]
20006cd0:	2b7f      	cmp	r3, #127	@ 0x7f
20006cd2:	d9e7      	bls.n	20006ca4 <mutex_try_enter_block_until+0x4c>
20006cd4:	4643      	mov	r3, r8
20006cd6:	e002      	b.n	20006cde <mutex_try_enter_block_until+0x86>
20006cd8:	23d0      	movs	r3, #208	@ 0xd0
20006cda:	061b      	lsls	r3, r3, #24
20006cdc:	681b      	ldr	r3, [r3, #0]
20006cde:	7123      	strb	r3, [r4, #4]
20006ce0:	f3bf 8f5f 	dmb	sy
20006ce4:	2300      	movs	r3, #0
20006ce6:	6013      	str	r3, [r2, #0]
20006ce8:	f381 8810 	msr	PRIMASK, r1
20006cec:	2001      	movs	r0, #1
20006cee:	e7d6      	b.n	20006c9e <mutex_try_enter_block_until+0x46>

20006cf0 <mutex_enter_timeout_ms>:
20006cf0:	b5f0      	push	{r4, r5, r6, r7, lr}
20006cf2:	46c6      	mov	lr, r8
20006cf4:	b500      	push	{lr}
20006cf6:	000f      	movs	r7, r1
20006cf8:	0004      	movs	r4, r0
20006cfa:	f7fc f9fd 	bl	200030f8 <time_us_64>
20006cfe:	22fa      	movs	r2, #250	@ 0xfa
20006d00:	000e      	movs	r6, r1
20006d02:	0005      	movs	r5, r0
20006d04:	2300      	movs	r3, #0
20006d06:	0038      	movs	r0, r7
20006d08:	2100      	movs	r1, #0
20006d0a:	0092      	lsls	r2, r2, #2
20006d0c:	f7fc ffb6 	bl	20003c7c <__wrap___aeabi_lmul>
20006d10:	1940      	adds	r0, r0, r5
20006d12:	4171      	adcs	r1, r6
20006d14:	0006      	movs	r6, r0
20006d16:	1e0f      	subs	r7, r1, #0
20006d18:	da02      	bge.n	20006d20 <mutex_enter_timeout_ms+0x30>
20006d1a:	2601      	movs	r6, #1
20006d1c:	4f16      	ldr	r7, [pc, #88]	@ (20006d78 <mutex_enter_timeout_ms+0x88>)
20006d1e:	4276      	negs	r6, r6
20006d20:	23d0      	movs	r3, #208	@ 0xd0
20006d22:	061b      	lsls	r3, r3, #24
20006d24:	681b      	ldr	r3, [r3, #0]
20006d26:	2500      	movs	r5, #0
20006d28:	4698      	mov	r8, r3
20006d2a:	e00a      	b.n	20006d42 <mutex_enter_timeout_ms+0x52>
20006d2c:	f3bf 8f5f 	dmb	sy
20006d30:	6015      	str	r5, [r2, #0]
20006d32:	f381 8810 	msr	PRIMASK, r1
20006d36:	0030      	movs	r0, r6
20006d38:	0039      	movs	r1, r7
20006d3a:	f7fc f931 	bl	20002fa0 <best_effort_wfe_or_timeout>
20006d3e:	2800      	cmp	r0, #0
20006d40:	d118      	bne.n	20006d74 <mutex_enter_timeout_ms+0x84>
20006d42:	6822      	ldr	r2, [r4, #0]
20006d44:	f3ef 8110 	mrs	r1, PRIMASK
20006d48:	b672      	cpsid	i
20006d4a:	6813      	ldr	r3, [r2, #0]
20006d4c:	2b00      	cmp	r3, #0
20006d4e:	d0fc      	beq.n	20006d4a <mutex_enter_timeout_ms+0x5a>
20006d50:	f3bf 8f5f 	dmb	sy
20006d54:	7923      	ldrb	r3, [r4, #4]
20006d56:	6822      	ldr	r2, [r4, #0]
20006d58:	2b7f      	cmp	r3, #127	@ 0x7f
20006d5a:	d9e7      	bls.n	20006d2c <mutex_enter_timeout_ms+0x3c>
20006d5c:	4643      	mov	r3, r8
20006d5e:	7123      	strb	r3, [r4, #4]
20006d60:	f3bf 8f5f 	dmb	sy
20006d64:	2300      	movs	r3, #0
20006d66:	6013      	str	r3, [r2, #0]
20006d68:	f381 8810 	msr	PRIMASK, r1
20006d6c:	2001      	movs	r0, #1
20006d6e:	bc80      	pop	{r7}
20006d70:	46b8      	mov	r8, r7
20006d72:	bdf0      	pop	{r4, r5, r6, r7, pc}
20006d74:	2000      	movs	r0, #0
20006d76:	e7fa      	b.n	20006d6e <mutex_enter_timeout_ms+0x7e>
20006d78:	7fffffff 	.word	0x7fffffff

20006d7c <mutex_exit>:
20006d7c:	6802      	ldr	r2, [r0, #0]
20006d7e:	f3ef 8110 	mrs	r1, PRIMASK
20006d82:	b672      	cpsid	i
20006d84:	6813      	ldr	r3, [r2, #0]
20006d86:	2b00      	cmp	r3, #0
20006d88:	d0fc      	beq.n	20006d84 <mutex_exit+0x8>
20006d8a:	f3bf 8f5f 	dmb	sy
20006d8e:	23ff      	movs	r3, #255	@ 0xff
20006d90:	7103      	strb	r3, [r0, #4]
20006d92:	6803      	ldr	r3, [r0, #0]
20006d94:	f3bf 8f5f 	dmb	sy
20006d98:	2200      	movs	r2, #0
20006d9a:	601a      	str	r2, [r3, #0]
20006d9c:	f381 8810 	msr	PRIMASK, r1
20006da0:	bf40      	sev
20006da2:	4770      	bx	lr

20006da4 <flash_init_boot2_copyout>:
20006da4:	4b08      	ldr	r3, [pc, #32]	@ (20006dc8 <flash_init_boot2_copyout+0x24>)
20006da6:	469c      	mov	ip, r3
20006da8:	781b      	ldrb	r3, [r3, #0]
20006daa:	2b00      	cmp	r3, #0
20006dac:	d10b      	bne.n	20006dc6 <flash_init_boot2_copyout+0x22>
20006dae:	2380      	movs	r3, #128	@ 0x80
20006db0:	4806      	ldr	r0, [pc, #24]	@ (20006dcc <flash_init_boot2_copyout+0x28>)
20006db2:	4907      	ldr	r1, [pc, #28]	@ (20006dd0 <flash_init_boot2_copyout+0x2c>)
20006db4:	055b      	lsls	r3, r3, #21
20006db6:	681a      	ldr	r2, [r3, #0]
20006db8:	50c2      	str	r2, [r0, r3]
20006dba:	3304      	adds	r3, #4
20006dbc:	428b      	cmp	r3, r1
20006dbe:	d1fa      	bne.n	20006db6 <flash_init_boot2_copyout+0x12>
20006dc0:	2301      	movs	r3, #1
20006dc2:	4662      	mov	r2, ip
20006dc4:	7013      	strb	r3, [r2, #0]
20006dc6:	4770      	bx	lr
20006dc8:	20008ef1 	.word	0x20008ef1
20006dcc:	100088d0 	.word	0x100088d0
20006dd0:	10000100 	.word	0x10000100

20006dd4 <flash_enable_xip_via_boot2>:
20006dd4:	b510      	push	{r4, lr}
20006dd6:	4b01      	ldr	r3, [pc, #4]	@ (20006ddc <flash_enable_xip_via_boot2+0x8>)
20006dd8:	4798      	blx	r3
20006dda:	bd10      	pop	{r4, pc}
20006ddc:	200088d1 	.word	0x200088d1

20006de0 <flash_save_hardware_state>:
20006de0:	4b06      	ldr	r3, [pc, #24]	@ (20006dfc <flash_save_hardware_state+0x1c>)
20006de2:	685a      	ldr	r2, [r3, #4]
20006de4:	6002      	str	r2, [r0, #0]
20006de6:	689a      	ldr	r2, [r3, #8]
20006de8:	6042      	str	r2, [r0, #4]
20006dea:	68da      	ldr	r2, [r3, #12]
20006dec:	6082      	str	r2, [r0, #8]
20006dee:	691a      	ldr	r2, [r3, #16]
20006df0:	60c2      	str	r2, [r0, #12]
20006df2:	695a      	ldr	r2, [r3, #20]
20006df4:	6102      	str	r2, [r0, #16]
20006df6:	699b      	ldr	r3, [r3, #24]
20006df8:	6143      	str	r3, [r0, #20]
20006dfa:	4770      	bx	lr
20006dfc:	40020000 	.word	0x40020000

20006e00 <flash_restore_hardware_state>:
20006e00:	6802      	ldr	r2, [r0, #0]
20006e02:	4b06      	ldr	r3, [pc, #24]	@ (20006e1c <flash_restore_hardware_state+0x1c>)
20006e04:	605a      	str	r2, [r3, #4]
20006e06:	6842      	ldr	r2, [r0, #4]
20006e08:	609a      	str	r2, [r3, #8]
20006e0a:	6882      	ldr	r2, [r0, #8]
20006e0c:	60da      	str	r2, [r3, #12]
20006e0e:	68c2      	ldr	r2, [r0, #12]
20006e10:	611a      	str	r2, [r3, #16]
20006e12:	6902      	ldr	r2, [r0, #16]
20006e14:	615a      	str	r2, [r3, #20]
20006e16:	6942      	ldr	r2, [r0, #20]
20006e18:	619a      	str	r2, [r3, #24]
20006e1a:	4770      	bx	lr
20006e1c:	40020000 	.word	0x40020000

20006e20 <flash_cs_force.constprop.0>:
20006e20:	4b03      	ldr	r3, [pc, #12]	@ (20006e30 <flash_cs_force.constprop.0+0x10>)
20006e22:	681a      	ldr	r2, [r3, #0]
20006e24:	23c0      	movs	r3, #192	@ 0xc0
20006e26:	009b      	lsls	r3, r3, #2
20006e28:	4393      	bics	r3, r2
20006e2a:	4a02      	ldr	r2, [pc, #8]	@ (20006e34 <flash_cs_force.constprop.0+0x14>)
20006e2c:	6013      	str	r3, [r2, #0]
20006e2e:	4770      	bx	lr
20006e30:	4001800c 	.word	0x4001800c
20006e34:	4001900c 	.word	0x4001900c

20006e38 <flash_cs_force.constprop.1>:
20006e38:	4b05      	ldr	r3, [pc, #20]	@ (20006e50 <flash_cs_force.constprop.1+0x18>)
20006e3a:	681a      	ldr	r2, [r3, #0]
20006e3c:	2380      	movs	r3, #128	@ 0x80
20006e3e:	009b      	lsls	r3, r3, #2
20006e40:	4053      	eors	r3, r2
20006e42:	22c0      	movs	r2, #192	@ 0xc0
20006e44:	0092      	lsls	r2, r2, #2
20006e46:	4013      	ands	r3, r2
20006e48:	4a02      	ldr	r2, [pc, #8]	@ (20006e54 <flash_cs_force.constprop.1+0x1c>)
20006e4a:	6013      	str	r3, [r2, #0]
20006e4c:	4770      	bx	lr
20006e4e:	46c0      	nop			@ (mov r8, r8)
20006e50:	4001800c 	.word	0x4001800c
20006e54:	4001900c 	.word	0x4001900c

20006e58 <flash_do_cmd>:
20006e58:	b5f0      	push	{r4, r5, r6, r7, lr}
20006e5a:	46d6      	mov	lr, sl
20006e5c:	464f      	mov	r7, r9
20006e5e:	4646      	mov	r6, r8
20006e60:	2300      	movs	r3, #0
20006e62:	b5c0      	push	{r6, r7, lr}
20006e64:	2718      	movs	r7, #24
20006e66:	b086      	sub	sp, #24
20006e68:	001e      	movs	r6, r3
20006e6a:	4681      	mov	r9, r0
20006e6c:	000d      	movs	r5, r1
20006e6e:	8a98      	ldrh	r0, [r3, #20]
20006e70:	493f      	ldr	r1, [pc, #252]	@ (20006f70 <flash_do_cmd+0x118>)
20006e72:	883b      	ldrh	r3, [r7, #0]
20006e74:	0014      	movs	r4, r2
20006e76:	4798      	blx	r3
20006e78:	883b      	ldrh	r3, [r7, #0]
20006e7a:	4680      	mov	r8, r0
20006e7c:	493d      	ldr	r1, [pc, #244]	@ (20006f74 <flash_do_cmd+0x11c>)
20006e7e:	8ab0      	ldrh	r0, [r6, #20]
20006e80:	4798      	blx	r3
20006e82:	2300      	movs	r3, #0
20006e84:	493c      	ldr	r1, [pc, #240]	@ (20006f78 <flash_do_cmd+0x120>)
20006e86:	0006      	movs	r6, r0
20006e88:	8a98      	ldrh	r0, [r3, #20]
20006e8a:	883b      	ldrh	r3, [r7, #0]
20006e8c:	4798      	blx	r3
20006e8e:	4682      	mov	sl, r0
20006e90:	f7ff ff88 	bl	20006da4 <flash_init_boot2_copyout>
20006e94:	4668      	mov	r0, sp
20006e96:	f7ff ffa3 	bl	20006de0 <flash_save_hardware_state>
20006e9a:	47c0      	blx	r8
20006e9c:	47b0      	blx	r6
20006e9e:	f7ff ffcb 	bl	20006e38 <flash_cs_force.constprop.1>
20006ea2:	1e21      	subs	r1, r4, #0
20006ea4:	d01c      	beq.n	20006ee0 <flash_do_cmd+0x88>
20006ea6:	2308      	movs	r3, #8
20006ea8:	20c0      	movs	r0, #192	@ 0xc0
20006eaa:	469c      	mov	ip, r3
20006eac:	0540      	lsls	r0, r0, #21
20006eae:	3f16      	subs	r7, #22
20006eb0:	4662      	mov	r2, ip
20006eb2:	6a83      	ldr	r3, [r0, #40]	@ 0x28
20006eb4:	401a      	ands	r2, r3
20006eb6:	421f      	tst	r7, r3
20006eb8:	d034      	beq.n	20006f24 <flash_do_cmd+0xcc>
20006eba:	1a63      	subs	r3, r4, r1
20006ebc:	2900      	cmp	r1, #0
20006ebe:	d126      	bne.n	20006f0e <flash_do_cmd+0xb6>
20006ec0:	2a00      	cmp	r2, #0
20006ec2:	d10b      	bne.n	20006edc <flash_do_cmd+0x84>
20006ec4:	2c00      	cmp	r4, #0
20006ec6:	d00b      	beq.n	20006ee0 <flash_do_cmd+0x88>
20006ec8:	23c0      	movs	r3, #192	@ 0xc0
20006eca:	2208      	movs	r2, #8
20006ecc:	2602      	movs	r6, #2
20006ece:	055b      	lsls	r3, r3, #21
20006ed0:	6a9b      	ldr	r3, [r3, #40]	@ 0x28
20006ed2:	401a      	ands	r2, r3
20006ed4:	421e      	tst	r6, r3
20006ed6:	d03d      	beq.n	20006f54 <flash_do_cmd+0xfc>
20006ed8:	2a00      	cmp	r2, #0
20006eda:	d0f5      	beq.n	20006ec8 <flash_do_cmd+0x70>
20006edc:	2c00      	cmp	r4, #0
20006ede:	d12b      	bne.n	20006f38 <flash_do_cmd+0xe0>
20006ee0:	f7ff ff9e 	bl	20006e20 <flash_cs_force.constprop.0>
20006ee4:	47d0      	blx	sl
20006ee6:	f7ff ff75 	bl	20006dd4 <flash_enable_xip_via_boot2>
20006eea:	4668      	mov	r0, sp
20006eec:	f7ff ff88 	bl	20006e00 <flash_restore_hardware_state>
20006ef0:	b006      	add	sp, #24
20006ef2:	bce0      	pop	{r5, r6, r7}
20006ef4:	46ba      	mov	sl, r7
20006ef6:	46b1      	mov	r9, r6
20006ef8:	46a8      	mov	r8, r5
20006efa:	bdf0      	pop	{r4, r5, r6, r7, pc}
20006efc:	2c00      	cmp	r4, #0
20006efe:	d12b      	bne.n	20006f58 <flash_do_cmd+0x100>
20006f00:	22c0      	movs	r2, #192	@ 0xc0
20006f02:	0552      	lsls	r2, r2, #21
20006f04:	6a96      	ldr	r6, [r2, #40]	@ 0x28
20006f06:	2208      	movs	r2, #8
20006f08:	4032      	ands	r2, r6
20006f0a:	07b6      	lsls	r6, r6, #30
20006f0c:	d52b      	bpl.n	20006f66 <flash_do_cmd+0x10e>
20006f0e:	2b0d      	cmp	r3, #13
20006f10:	d919      	bls.n	20006f46 <flash_do_cmd+0xee>
20006f12:	2a00      	cmp	r2, #0
20006f14:	d1f2      	bne.n	20006efc <flash_do_cmd+0xa4>
20006f16:	22c0      	movs	r2, #192	@ 0xc0
20006f18:	0552      	lsls	r2, r2, #21
20006f1a:	6a96      	ldr	r6, [r2, #40]	@ 0x28
20006f1c:	2208      	movs	r2, #8
20006f1e:	4032      	ands	r2, r6
20006f20:	07b6      	lsls	r6, r6, #30
20006f22:	d4f4      	bmi.n	20006f0e <flash_do_cmd+0xb6>
20006f24:	2a00      	cmp	r2, #0
20006f26:	d104      	bne.n	20006f32 <flash_do_cmd+0xda>
20006f28:	000b      	movs	r3, r1
20006f2a:	4323      	orrs	r3, r4
20006f2c:	2b00      	cmp	r3, #0
20006f2e:	d1bf      	bne.n	20006eb0 <flash_do_cmd+0x58>
20006f30:	e7d6      	b.n	20006ee0 <flash_do_cmd+0x88>
20006f32:	000b      	movs	r3, r1
20006f34:	2c00      	cmp	r4, #0
20006f36:	d0f9      	beq.n	20006f2c <flash_do_cmd+0xd4>
20006f38:	6e03      	ldr	r3, [r0, #96]	@ 0x60
20006f3a:	3c01      	subs	r4, #1
20006f3c:	702b      	strb	r3, [r5, #0]
20006f3e:	0023      	movs	r3, r4
20006f40:	3501      	adds	r5, #1
20006f42:	430b      	orrs	r3, r1
20006f44:	e7f2      	b.n	20006f2c <flash_do_cmd+0xd4>
20006f46:	464b      	mov	r3, r9
20006f48:	781b      	ldrb	r3, [r3, #0]
20006f4a:	3901      	subs	r1, #1
20006f4c:	6603      	str	r3, [r0, #96]	@ 0x60
20006f4e:	2301      	movs	r3, #1
20006f50:	4499      	add	r9, r3
20006f52:	e7e7      	b.n	20006f24 <flash_do_cmd+0xcc>
20006f54:	2100      	movs	r1, #0
20006f56:	e7e5      	b.n	20006f24 <flash_do_cmd+0xcc>
20006f58:	23c0      	movs	r3, #192	@ 0xc0
20006f5a:	055b      	lsls	r3, r3, #21
20006f5c:	6e1b      	ldr	r3, [r3, #96]	@ 0x60
20006f5e:	3c01      	subs	r4, #1
20006f60:	702b      	strb	r3, [r5, #0]
20006f62:	3501      	adds	r5, #1
20006f64:	e7a4      	b.n	20006eb0 <flash_do_cmd+0x58>
20006f66:	000b      	movs	r3, r1
20006f68:	42a2      	cmp	r2, r4
20006f6a:	d1df      	bne.n	20006f2c <flash_do_cmd+0xd4>
20006f6c:	e7dc      	b.n	20006f28 <flash_do_cmd+0xd0>
20006f6e:	46c0      	nop			@ (mov r8, r8)
20006f70:	00004649 	.word	0x00004649
20006f74:	00005845 	.word	0x00005845
20006f78:	00004346 	.word	0x00004346

20006f7c <reset_non_control_endpoints>:
20006f7c:	2200      	movs	r2, #0
20006f7e:	4b15      	ldr	r3, [pc, #84]	@ (20006fd4 <reset_non_control_endpoints+0x58>)
20006f80:	b510      	push	{r4, lr}
20006f82:	609a      	str	r2, [r3, #8]
20006f84:	60da      	str	r2, [r3, #12]
20006f86:	611a      	str	r2, [r3, #16]
20006f88:	615a      	str	r2, [r3, #20]
20006f8a:	619a      	str	r2, [r3, #24]
20006f8c:	61da      	str	r2, [r3, #28]
20006f8e:	621a      	str	r2, [r3, #32]
20006f90:	625a      	str	r2, [r3, #36]	@ 0x24
20006f92:	629a      	str	r2, [r3, #40]	@ 0x28
20006f94:	62da      	str	r2, [r3, #44]	@ 0x2c
20006f96:	631a      	str	r2, [r3, #48]	@ 0x30
20006f98:	635a      	str	r2, [r3, #52]	@ 0x34
20006f9a:	639a      	str	r2, [r3, #56]	@ 0x38
20006f9c:	63da      	str	r2, [r3, #60]	@ 0x3c
20006f9e:	641a      	str	r2, [r3, #64]	@ 0x40
20006fa0:	645a      	str	r2, [r3, #68]	@ 0x44
20006fa2:	649a      	str	r2, [r3, #72]	@ 0x48
20006fa4:	64da      	str	r2, [r3, #76]	@ 0x4c
20006fa6:	651a      	str	r2, [r3, #80]	@ 0x50
20006fa8:	655a      	str	r2, [r3, #84]	@ 0x54
20006faa:	659a      	str	r2, [r3, #88]	@ 0x58
20006fac:	65da      	str	r2, [r3, #92]	@ 0x5c
20006fae:	661a      	str	r2, [r3, #96]	@ 0x60
20006fb0:	665a      	str	r2, [r3, #100]	@ 0x64
20006fb2:	669a      	str	r2, [r3, #104]	@ 0x68
20006fb4:	66da      	str	r2, [r3, #108]	@ 0x6c
20006fb6:	671a      	str	r2, [r3, #112]	@ 0x70
20006fb8:	675a      	str	r2, [r3, #116]	@ 0x74
20006fba:	679a      	str	r2, [r3, #120]	@ 0x78
20006fbc:	67da      	str	r2, [r3, #124]	@ 0x7c
20006fbe:	32f0      	adds	r2, #240	@ 0xf0
20006fc0:	0092      	lsls	r2, r2, #2
20006fc2:	2100      	movs	r1, #0
20006fc4:	4804      	ldr	r0, [pc, #16]	@ (20006fd8 <reset_non_control_endpoints+0x5c>)
20006fc6:	f7fc ff7f 	bl	20003ec8 <__wrap_memset>
20006fca:	4b04      	ldr	r3, [pc, #16]	@ (20006fdc <reset_non_control_endpoints+0x60>)
20006fcc:	4a04      	ldr	r2, [pc, #16]	@ (20006fe0 <reset_non_control_endpoints+0x64>)
20006fce:	601a      	str	r2, [r3, #0]
20006fd0:	bd10      	pop	{r4, pc}
20006fd2:	46c0      	nop			@ (mov r8, r8)
20006fd4:	50100000 	.word	0x50100000
20006fd8:	20008aec 	.word	0x20008aec
20006fdc:	20008eb0 	.word	0x20008eb0
20006fe0:	50100180 	.word	0x50100180

20006fe4 <hw_handle_buff_status>:
20006fe4:	b5f0      	push	{r4, r5, r6, r7, lr}
20006fe6:	4647      	mov	r7, r8
20006fe8:	46ce      	mov	lr, r9
20006fea:	b580      	push	{r7, lr}
20006fec:	4b1c      	ldr	r3, [pc, #112]	@ (20007060 <hw_handle_buff_status+0x7c>)
20006fee:	2400      	movs	r4, #0
20006ff0:	6d9f      	ldr	r7, [r3, #88]	@ 0x58
20006ff2:	2601      	movs	r6, #1
20006ff4:	b085      	sub	sp, #20
20006ff6:	2f00      	cmp	r7, #0
20006ff8:	d01b      	beq.n	20007032 <hw_handle_buff_status+0x4e>
20006ffa:	4b1a      	ldr	r3, [pc, #104]	@ (20007064 <hw_handle_buff_status+0x80>)
20006ffc:	4698      	mov	r8, r3
20006ffe:	4b1a      	ldr	r3, [pc, #104]	@ (20007068 <hw_handle_buff_status+0x84>)
20007000:	4699      	mov	r9, r3
20007002:	e004      	b.n	2000700e <hw_handle_buff_status+0x2a>
20007004:	3401      	adds	r4, #1
20007006:	b2e4      	uxtb	r4, r4
20007008:	0076      	lsls	r6, r6, #1
2000700a:	2c20      	cmp	r4, #32
2000700c:	d011      	beq.n	20007032 <hw_handle_buff_status+0x4e>
2000700e:	423e      	tst	r6, r7
20007010:	d0f8      	beq.n	20007004 <hw_handle_buff_status+0x20>
20007012:	4643      	mov	r3, r8
20007014:	659e      	str	r6, [r3, #88]	@ 0x58
20007016:	2301      	movs	r3, #1
20007018:	0865      	lsrs	r5, r4, #1
2000701a:	006d      	lsls	r5, r5, #1
2000701c:	43a3      	bics	r3, r4
2000701e:	18ed      	adds	r5, r5, r3
20007020:	016d      	lsls	r5, r5, #5
20007022:	444d      	add	r5, r9
20007024:	0028      	movs	r0, r5
20007026:	f000 fc13 	bl	20007850 <hw_endpoint_xfer_continue>
2000702a:	2800      	cmp	r0, #0
2000702c:	d106      	bne.n	2000703c <hw_handle_buff_status+0x58>
2000702e:	43b7      	bics	r7, r6
20007030:	d1e8      	bne.n	20007004 <hw_handle_buff_status+0x20>
20007032:	b005      	add	sp, #20
20007034:	bcc0      	pop	{r6, r7}
20007036:	46b9      	mov	r9, r7
20007038:	46b0      	mov	r8, r6
2000703a:	bdf0      	pop	{r4, r5, r6, r7, pc}
2000703c:	8aeb      	ldrh	r3, [r5, #22]
2000703e:	21e0      	movs	r1, #224	@ 0xe0
20007040:	9303      	str	r3, [sp, #12]
20007042:	2300      	movs	r3, #0
20007044:	a801      	add	r0, sp, #4
20007046:	78aa      	ldrb	r2, [r5, #2]
20007048:	00c9      	lsls	r1, r1, #3
2000704a:	8001      	strh	r1, [r0, #0]
2000704c:	2101      	movs	r1, #1
2000704e:	7102      	strb	r2, [r0, #4]
20007050:	7143      	strb	r3, [r0, #5]
20007052:	f000 fc1d 	bl	20007890 <dcd_event_handler>
20007056:	0028      	movs	r0, r5
20007058:	f000 fb98 	bl	2000778c <hw_endpoint_reset_transfer>
2000705c:	e7e7      	b.n	2000702e <hw_handle_buff_status+0x4a>
2000705e:	46c0      	nop			@ (mov r8, r8)
20007060:	50110000 	.word	0x50110000
20007064:	50113000 	.word	0x50113000
20007068:	20008aac 	.word	0x20008aac

2000706c <dcd_rp2040_irq>:
2000706c:	2398      	movs	r3, #152	@ 0x98
2000706e:	4ac6      	ldr	r2, [pc, #792]	@ (20007388 <dcd_rp2040_irq+0x31c>)
20007070:	b5f0      	push	{r4, r5, r6, r7, lr}
20007072:	58d5      	ldr	r5, [r2, r3]
20007074:	2380      	movs	r3, #128	@ 0x80
20007076:	002e      	movs	r6, r5
20007078:	029b      	lsls	r3, r3, #10
2000707a:	2410      	movs	r4, #16
2000707c:	b085      	sub	sp, #20
2000707e:	401e      	ands	r6, r3
20007080:	421d      	tst	r5, r3
20007082:	d074      	beq.n	2000716e <dcd_rp2040_irq+0x102>
20007084:	4bc1      	ldr	r3, [pc, #772]	@ (2000738c <dcd_rp2040_irq+0x320>)
20007086:	4cc2      	ldr	r4, [pc, #776]	@ (20007390 <dcd_rp2040_irq+0x324>)
20007088:	6a9a      	ldr	r2, [r3, #40]	@ 0x28
2000708a:	4bc2      	ldr	r3, [pc, #776]	@ (20007394 <dcd_rp2040_irq+0x328>)
2000708c:	2600      	movs	r6, #0
2000708e:	601a      	str	r2, [r3, #0]
20007090:	233b      	movs	r3, #59	@ 0x3b
20007092:	5ce3      	ldrb	r3, [r4, r3]
20007094:	2b02      	cmp	r3, #2
20007096:	d100      	bne.n	2000709a <dcd_rp2040_irq+0x2e>
20007098:	e14b      	b.n	20007332 <dcd_rp2040_irq+0x2c6>
2000709a:	237b      	movs	r3, #123	@ 0x7b
2000709c:	5ce3      	ldrb	r3, [r4, r3]
2000709e:	2b02      	cmp	r3, #2
200070a0:	d100      	bne.n	200070a4 <dcd_rp2040_irq+0x38>
200070a2:	e0ef      	b.n	20007284 <dcd_rp2040_irq+0x218>
200070a4:	23bb      	movs	r3, #187	@ 0xbb
200070a6:	5ce3      	ldrb	r3, [r4, r3]
200070a8:	2b02      	cmp	r3, #2
200070aa:	d100      	bne.n	200070ae <dcd_rp2040_irq+0x42>
200070ac:	e0f6      	b.n	2000729c <dcd_rp2040_irq+0x230>
200070ae:	23fb      	movs	r3, #251	@ 0xfb
200070b0:	5ce3      	ldrb	r3, [r4, r3]
200070b2:	2b02      	cmp	r3, #2
200070b4:	d100      	bne.n	200070b8 <dcd_rp2040_irq+0x4c>
200070b6:	e0fd      	b.n	200072b4 <dcd_rp2040_irq+0x248>
200070b8:	233c      	movs	r3, #60	@ 0x3c
200070ba:	33ff      	adds	r3, #255	@ 0xff
200070bc:	5ce3      	ldrb	r3, [r4, r3]
200070be:	2b02      	cmp	r3, #2
200070c0:	d100      	bne.n	200070c4 <dcd_rp2040_irq+0x58>
200070c2:	e129      	b.n	20007318 <dcd_rp2040_irq+0x2ac>
200070c4:	237c      	movs	r3, #124	@ 0x7c
200070c6:	33ff      	adds	r3, #255	@ 0xff
200070c8:	5ce3      	ldrb	r3, [r4, r3]
200070ca:	2b02      	cmp	r3, #2
200070cc:	d100      	bne.n	200070d0 <dcd_rp2040_irq+0x64>
200070ce:	e10a      	b.n	200072e6 <dcd_rp2040_irq+0x27a>
200070d0:	23bc      	movs	r3, #188	@ 0xbc
200070d2:	33ff      	adds	r3, #255	@ 0xff
200070d4:	5ce3      	ldrb	r3, [r4, r3]
200070d6:	2b02      	cmp	r3, #2
200070d8:	d100      	bne.n	200070dc <dcd_rp2040_irq+0x70>
200070da:	e13b      	b.n	20007354 <dcd_rp2040_irq+0x2e8>
200070dc:	23fc      	movs	r3, #252	@ 0xfc
200070de:	33ff      	adds	r3, #255	@ 0xff
200070e0:	5ce3      	ldrb	r3, [r4, r3]
200070e2:	2b02      	cmp	r3, #2
200070e4:	d100      	bne.n	200070e8 <dcd_rp2040_irq+0x7c>
200070e6:	e0f1      	b.n	200072cc <dcd_rp2040_irq+0x260>
200070e8:	4bab      	ldr	r3, [pc, #684]	@ (20007398 <dcd_rp2040_irq+0x32c>)
200070ea:	5ce3      	ldrb	r3, [r4, r3]
200070ec:	2b02      	cmp	r3, #2
200070ee:	d100      	bne.n	200070f2 <dcd_rp2040_irq+0x86>
200070f0:	e170      	b.n	200073d4 <dcd_rp2040_irq+0x368>
200070f2:	4baa      	ldr	r3, [pc, #680]	@ (2000739c <dcd_rp2040_irq+0x330>)
200070f4:	5ce3      	ldrb	r3, [r4, r3]
200070f6:	2b02      	cmp	r3, #2
200070f8:	d100      	bne.n	200070fc <dcd_rp2040_irq+0x90>
200070fa:	e101      	b.n	20007300 <dcd_rp2040_irq+0x294>
200070fc:	4ba8      	ldr	r3, [pc, #672]	@ (200073a0 <dcd_rp2040_irq+0x334>)
200070fe:	5ce3      	ldrb	r3, [r4, r3]
20007100:	2b02      	cmp	r3, #2
20007102:	d100      	bne.n	20007106 <dcd_rp2040_irq+0x9a>
20007104:	e171      	b.n	200073ea <dcd_rp2040_irq+0x37e>
20007106:	4ba7      	ldr	r3, [pc, #668]	@ (200073a4 <dcd_rp2040_irq+0x338>)
20007108:	5ce3      	ldrb	r3, [r4, r3]
2000710a:	2b02      	cmp	r3, #2
2000710c:	d100      	bne.n	20007110 <dcd_rp2040_irq+0xa4>
2000710e:	e12e      	b.n	2000736e <dcd_rp2040_irq+0x302>
20007110:	4ba5      	ldr	r3, [pc, #660]	@ (200073a8 <dcd_rp2040_irq+0x33c>)
20007112:	5ce3      	ldrb	r3, [r4, r3]
20007114:	2b02      	cmp	r3, #2
20007116:	d100      	bne.n	2000711a <dcd_rp2040_irq+0xae>
20007118:	e19c      	b.n	20007454 <dcd_rp2040_irq+0x3e8>
2000711a:	4ba4      	ldr	r3, [pc, #656]	@ (200073ac <dcd_rp2040_irq+0x340>)
2000711c:	5ce3      	ldrb	r3, [r4, r3]
2000711e:	2b02      	cmp	r3, #2
20007120:	d100      	bne.n	20007124 <dcd_rp2040_irq+0xb8>
20007122:	e16d      	b.n	20007400 <dcd_rp2040_irq+0x394>
20007124:	4ba2      	ldr	r3, [pc, #648]	@ (200073b0 <dcd_rp2040_irq+0x344>)
20007126:	5ce3      	ldrb	r3, [r4, r3]
20007128:	2b02      	cmp	r3, #2
2000712a:	d100      	bne.n	2000712e <dcd_rp2040_irq+0xc2>
2000712c:	e19d      	b.n	2000746a <dcd_rp2040_irq+0x3fe>
2000712e:	4ba1      	ldr	r3, [pc, #644]	@ (200073b4 <dcd_rp2040_irq+0x348>)
20007130:	5ce3      	ldrb	r3, [r4, r3]
20007132:	2b02      	cmp	r3, #2
20007134:	d100      	bne.n	20007138 <dcd_rp2040_irq+0xcc>
20007136:	e17b      	b.n	20007430 <dcd_rp2040_irq+0x3c4>
20007138:	2e00      	cmp	r6, #0
2000713a:	d108      	bne.n	2000714e <dcd_rp2040_irq+0xe2>
2000713c:	4b9e      	ldr	r3, [pc, #632]	@ (200073b8 <dcd_rp2040_irq+0x34c>)
2000713e:	781b      	ldrb	r3, [r3, #0]
20007140:	2b00      	cmp	r3, #0
20007142:	d104      	bne.n	2000714e <dcd_rp2040_irq+0xe2>
20007144:	2180      	movs	r1, #128	@ 0x80
20007146:	4a9d      	ldr	r2, [pc, #628]	@ (200073bc <dcd_rp2040_irq+0x350>)
20007148:	3390      	adds	r3, #144	@ 0x90
2000714a:	0289      	lsls	r1, r1, #10
2000714c:	50d1      	str	r1, [r2, r3]
2000714e:	22c0      	movs	r2, #192	@ 0xc0
20007150:	4669      	mov	r1, sp
20007152:	4b8d      	ldr	r3, [pc, #564]	@ (20007388 <dcd_rp2040_irq+0x31c>)
20007154:	0092      	lsls	r2, r2, #2
20007156:	6c9b      	ldr	r3, [r3, #72]	@ 0x48
20007158:	2680      	movs	r6, #128	@ 0x80
2000715a:	055b      	lsls	r3, r3, #21
2000715c:	808a      	strh	r2, [r1, #4]
2000715e:	0d5b      	lsrs	r3, r3, #21
20007160:	2101      	movs	r1, #1
20007162:	a801      	add	r0, sp, #4
20007164:	9302      	str	r3, [sp, #8]
20007166:	f000 fb93 	bl	20007890 <dcd_event_handler>
2000716a:	4c95      	ldr	r4, [pc, #596]	@ (200073c0 <dcd_rp2040_irq+0x354>)
2000716c:	02b6      	lsls	r6, r6, #10
2000716e:	06eb      	lsls	r3, r5, #27
20007170:	d500      	bpl.n	20007174 <dcd_rp2040_irq+0x108>
20007172:	e07b      	b.n	2000726c <dcd_rp2040_irq+0x200>
20007174:	2380      	movs	r3, #128	@ 0x80
20007176:	025b      	lsls	r3, r3, #9
20007178:	421d      	tst	r5, r3
2000717a:	d02f      	beq.n	200071dc <dcd_rp2040_irq+0x170>
2000717c:	2402      	movs	r4, #2
2000717e:	4f84      	ldr	r7, [pc, #528]	@ (20007390 <dcd_rp2040_irq+0x324>)
20007180:	431e      	orrs	r6, r3
20007182:	7ebb      	ldrb	r3, [r7, #26]
20007184:	2b00      	cmp	r3, #0
20007186:	d014      	beq.n	200071b2 <dcd_rp2040_irq+0x146>
20007188:	f7fb f85a 	bl	20002240 <rp2040_chip_version>
2000718c:	2801      	cmp	r0, #1
2000718e:	d900      	bls.n	20007192 <dcd_rp2040_irq+0x126>
20007190:	e070      	b.n	20007274 <dcd_rp2040_irq+0x208>
20007192:	22c0      	movs	r2, #192	@ 0xc0
20007194:	2100      	movs	r1, #0
20007196:	0038      	movs	r0, r7
20007198:	0192      	lsls	r2, r2, #6
2000719a:	f000 fafd 	bl	20007798 <_hw_endpoint_buffer_control_update32>
2000719e:	0038      	movs	r0, r7
200071a0:	f000 faf4 	bl	2000778c <hw_endpoint_reset_transfer>
200071a4:	f7fb f84c 	bl	20002240 <rp2040_chip_version>
200071a8:	2801      	cmp	r0, #1
200071aa:	d902      	bls.n	200071b2 <dcd_rp2040_irq+0x146>
200071ac:	4b83      	ldr	r3, [pc, #524]	@ (200073bc <dcd_rp2040_irq+0x350>)
200071ae:	665c      	str	r4, [r3, #100]	@ 0x64
200071b0:	661c      	str	r4, [r3, #96]	@ 0x60
200071b2:	2301      	movs	r3, #1
200071b4:	70fb      	strb	r3, [r7, #3]
200071b6:	3720      	adds	r7, #32
200071b8:	2c01      	cmp	r4, #1
200071ba:	d120      	bne.n	200071fe <dcd_rp2040_irq+0x192>
200071bc:	23c0      	movs	r3, #192	@ 0xc0
200071be:	466a      	mov	r2, sp
200071c0:	00db      	lsls	r3, r3, #3
200071c2:	8093      	strh	r3, [r2, #4]
200071c4:	4a7f      	ldr	r2, [pc, #508]	@ (200073c4 <dcd_rp2040_irq+0x358>)
200071c6:	ab02      	add	r3, sp, #8
200071c8:	ca03      	ldmia	r2!, {r0, r1}
200071ca:	c303      	stmia	r3!, {r0, r1}
200071cc:	2101      	movs	r1, #1
200071ce:	a801      	add	r0, sp, #4
200071d0:	f000 fb5e 	bl	20007890 <dcd_event_handler>
200071d4:	2280      	movs	r2, #128	@ 0x80
200071d6:	4b79      	ldr	r3, [pc, #484]	@ (200073bc <dcd_rp2040_irq+0x350>)
200071d8:	0292      	lsls	r2, r2, #10
200071da:	651a      	str	r2, [r3, #80]	@ 0x50
200071dc:	2380      	movs	r3, #128	@ 0x80
200071de:	015b      	lsls	r3, r3, #5
200071e0:	421d      	tst	r5, r3
200071e2:	d10e      	bne.n	20007202 <dcd_rp2040_irq+0x196>
200071e4:	2380      	movs	r3, #128	@ 0x80
200071e6:	01db      	lsls	r3, r3, #7
200071e8:	421d      	tst	r5, r3
200071ea:	d121      	bne.n	20007230 <dcd_rp2040_irq+0x1c4>
200071ec:	2380      	movs	r3, #128	@ 0x80
200071ee:	021b      	lsls	r3, r3, #8
200071f0:	421d      	tst	r5, r3
200071f2:	d12d      	bne.n	20007250 <dcd_rp2040_irq+0x1e4>
200071f4:	42ae      	cmp	r6, r5
200071f6:	d000      	beq.n	200071fa <dcd_rp2040_irq+0x18e>
200071f8:	e1be      	b.n	20007578 <dcd_rp2040_irq+0x50c>
200071fa:	b005      	add	sp, #20
200071fc:	bdf0      	pop	{r4, r5, r6, r7, pc}
200071fe:	2401      	movs	r4, #1
20007200:	e7bf      	b.n	20007182 <dcd_rp2040_irq+0x116>
20007202:	2400      	movs	r4, #0
20007204:	431e      	orrs	r6, r3
20007206:	4b60      	ldr	r3, [pc, #384]	@ (20007388 <dcd_rp2040_irq+0x31c>)
20007208:	601c      	str	r4, [r3, #0]
2000720a:	f7ff feb7 	bl	20006f7c <reset_non_control_endpoints>
2000720e:	2380      	movs	r3, #128	@ 0x80
20007210:	466a      	mov	r2, sp
20007212:	005b      	lsls	r3, r3, #1
20007214:	8093      	strh	r3, [r2, #4]
20007216:	7214      	strb	r4, [r2, #8]
20007218:	2101      	movs	r1, #1
2000721a:	a801      	add	r0, sp, #4
2000721c:	f000 fb38 	bl	20007890 <dcd_event_handler>
20007220:	2280      	movs	r2, #128	@ 0x80
20007222:	4b66      	ldr	r3, [pc, #408]	@ (200073bc <dcd_rp2040_irq+0x350>)
20007224:	0312      	lsls	r2, r2, #12
20007226:	651a      	str	r2, [r3, #80]	@ 0x50
20007228:	2380      	movs	r3, #128	@ 0x80
2000722a:	01db      	lsls	r3, r3, #7
2000722c:	421d      	tst	r5, r3
2000722e:	d0dd      	beq.n	200071ec <dcd_rp2040_irq+0x180>
20007230:	431e      	orrs	r6, r3
20007232:	2380      	movs	r3, #128	@ 0x80
20007234:	466a      	mov	r2, sp
20007236:	00db      	lsls	r3, r3, #3
20007238:	8093      	strh	r3, [r2, #4]
2000723a:	2101      	movs	r1, #1
2000723c:	a801      	add	r0, sp, #4
2000723e:	f000 fb27 	bl	20007890 <dcd_event_handler>
20007242:	2210      	movs	r2, #16
20007244:	4b5d      	ldr	r3, [pc, #372]	@ (200073bc <dcd_rp2040_irq+0x350>)
20007246:	651a      	str	r2, [r3, #80]	@ 0x50
20007248:	2380      	movs	r3, #128	@ 0x80
2000724a:	021b      	lsls	r3, r3, #8
2000724c:	421d      	tst	r5, r3
2000724e:	d0d1      	beq.n	200071f4 <dcd_rp2040_irq+0x188>
20007250:	431e      	orrs	r6, r3
20007252:	23a0      	movs	r3, #160	@ 0xa0
20007254:	466a      	mov	r2, sp
20007256:	00db      	lsls	r3, r3, #3
20007258:	8093      	strh	r3, [r2, #4]
2000725a:	2101      	movs	r1, #1
2000725c:	a801      	add	r0, sp, #4
2000725e:	f000 fb17 	bl	20007890 <dcd_event_handler>
20007262:	2280      	movs	r2, #128	@ 0x80
20007264:	4b55      	ldr	r3, [pc, #340]	@ (200073bc <dcd_rp2040_irq+0x350>)
20007266:	0112      	lsls	r2, r2, #4
20007268:	651a      	str	r2, [r3, #80]	@ 0x50
2000726a:	e7c3      	b.n	200071f4 <dcd_rp2040_irq+0x188>
2000726c:	f7ff feba 	bl	20006fe4 <hw_handle_buff_status>
20007270:	0026      	movs	r6, r4
20007272:	e77f      	b.n	20007174 <dcd_rp2040_irq+0x108>
20007274:	4b54      	ldr	r3, [pc, #336]	@ (200073c8 <dcd_rp2040_irq+0x35c>)
20007276:	4a44      	ldr	r2, [pc, #272]	@ (20007388 <dcd_rp2040_irq+0x31c>)
20007278:	661c      	str	r4, [r3, #96]	@ 0x60
2000727a:	6e53      	ldr	r3, [r2, #100]	@ 0x64
2000727c:	4023      	ands	r3, r4
2000727e:	42a3      	cmp	r3, r4
20007280:	d1fb      	bne.n	2000727a <dcd_rp2040_irq+0x20e>
20007282:	e786      	b.n	20007192 <dcd_rp2040_irq+0x126>
20007284:	3378      	adds	r3, #120	@ 0x78
20007286:	5ce7      	ldrb	r7, [r4, r3]
20007288:	2f00      	cmp	r7, #0
2000728a:	d100      	bne.n	2000728e <dcd_rp2040_irq+0x222>
2000728c:	e70a      	b.n	200070a4 <dcd_rp2040_irq+0x38>
2000728e:	3302      	adds	r3, #2
20007290:	5ce2      	ldrb	r2, [r4, r3]
20007292:	2a00      	cmp	r2, #0
20007294:	d000      	beq.n	20007298 <dcd_rp2040_irq+0x22c>
20007296:	e10d      	b.n	200074b4 <dcd_rp2040_irq+0x448>
20007298:	003e      	movs	r6, r7
2000729a:	e703      	b.n	200070a4 <dcd_rp2040_irq+0x38>
2000729c:	33b8      	adds	r3, #184	@ 0xb8
2000729e:	5ce7      	ldrb	r7, [r4, r3]
200072a0:	2f00      	cmp	r7, #0
200072a2:	d100      	bne.n	200072a6 <dcd_rp2040_irq+0x23a>
200072a4:	e703      	b.n	200070ae <dcd_rp2040_irq+0x42>
200072a6:	3302      	adds	r3, #2
200072a8:	5ce2      	ldrb	r2, [r4, r3]
200072aa:	2a00      	cmp	r2, #0
200072ac:	d000      	beq.n	200072b0 <dcd_rp2040_irq+0x244>
200072ae:	e0f9      	b.n	200074a4 <dcd_rp2040_irq+0x438>
200072b0:	003e      	movs	r6, r7
200072b2:	e6fc      	b.n	200070ae <dcd_rp2040_irq+0x42>
200072b4:	33f8      	adds	r3, #248	@ 0xf8
200072b6:	5ce7      	ldrb	r7, [r4, r3]
200072b8:	2f00      	cmp	r7, #0
200072ba:	d100      	bne.n	200072be <dcd_rp2040_irq+0x252>
200072bc:	e6fc      	b.n	200070b8 <dcd_rp2040_irq+0x4c>
200072be:	3302      	adds	r3, #2
200072c0:	5ce2      	ldrb	r2, [r4, r3]
200072c2:	2a00      	cmp	r2, #0
200072c4:	d000      	beq.n	200072c8 <dcd_rp2040_irq+0x25c>
200072c6:	e141      	b.n	2000754c <dcd_rp2040_irq+0x4e0>
200072c8:	003e      	movs	r6, r7
200072ca:	e6f5      	b.n	200070b8 <dcd_rp2040_irq+0x4c>
200072cc:	33f9      	adds	r3, #249	@ 0xf9
200072ce:	33ff      	adds	r3, #255	@ 0xff
200072d0:	5ce7      	ldrb	r7, [r4, r3]
200072d2:	2f00      	cmp	r7, #0
200072d4:	d100      	bne.n	200072d8 <dcd_rp2040_irq+0x26c>
200072d6:	e707      	b.n	200070e8 <dcd_rp2040_irq+0x7c>
200072d8:	3302      	adds	r3, #2
200072da:	5ce2      	ldrb	r2, [r4, r3]
200072dc:	2a00      	cmp	r2, #0
200072de:	d000      	beq.n	200072e2 <dcd_rp2040_irq+0x276>
200072e0:	e12b      	b.n	2000753a <dcd_rp2040_irq+0x4ce>
200072e2:	003e      	movs	r6, r7
200072e4:	e700      	b.n	200070e8 <dcd_rp2040_irq+0x7c>
200072e6:	3379      	adds	r3, #121	@ 0x79
200072e8:	33ff      	adds	r3, #255	@ 0xff
200072ea:	5ce7      	ldrb	r7, [r4, r3]
200072ec:	2f00      	cmp	r7, #0
200072ee:	d100      	bne.n	200072f2 <dcd_rp2040_irq+0x286>
200072f0:	e6ee      	b.n	200070d0 <dcd_rp2040_irq+0x64>
200072f2:	3302      	adds	r3, #2
200072f4:	5ce2      	ldrb	r2, [r4, r3]
200072f6:	2a00      	cmp	r2, #0
200072f8:	d000      	beq.n	200072fc <dcd_rp2040_irq+0x290>
200072fa:	e115      	b.n	20007528 <dcd_rp2040_irq+0x4bc>
200072fc:	003e      	movs	r6, r7
200072fe:	e6e7      	b.n	200070d0 <dcd_rp2040_irq+0x64>
20007300:	4b32      	ldr	r3, [pc, #200]	@ (200073cc <dcd_rp2040_irq+0x360>)
20007302:	5ce7      	ldrb	r7, [r4, r3]
20007304:	2f00      	cmp	r7, #0
20007306:	d100      	bne.n	2000730a <dcd_rp2040_irq+0x29e>
20007308:	e6f8      	b.n	200070fc <dcd_rp2040_irq+0x90>
2000730a:	3302      	adds	r3, #2
2000730c:	5ce2      	ldrb	r2, [r4, r3]
2000730e:	2a00      	cmp	r2, #0
20007310:	d000      	beq.n	20007314 <dcd_rp2040_irq+0x2a8>
20007312:	e101      	b.n	20007518 <dcd_rp2040_irq+0x4ac>
20007314:	003e      	movs	r6, r7
20007316:	e6f1      	b.n	200070fc <dcd_rp2040_irq+0x90>
20007318:	3339      	adds	r3, #57	@ 0x39
2000731a:	33ff      	adds	r3, #255	@ 0xff
2000731c:	5ce7      	ldrb	r7, [r4, r3]
2000731e:	2f00      	cmp	r7, #0
20007320:	d100      	bne.n	20007324 <dcd_rp2040_irq+0x2b8>
20007322:	e6cf      	b.n	200070c4 <dcd_rp2040_irq+0x58>
20007324:	3302      	adds	r3, #2
20007326:	5ce2      	ldrb	r2, [r4, r3]
20007328:	2a00      	cmp	r2, #0
2000732a:	d000      	beq.n	2000732e <dcd_rp2040_irq+0x2c2>
2000732c:	e0eb      	b.n	20007506 <dcd_rp2040_irq+0x49a>
2000732e:	003e      	movs	r6, r7
20007330:	e6c8      	b.n	200070c4 <dcd_rp2040_irq+0x58>
20007332:	3338      	adds	r3, #56	@ 0x38
20007334:	5ce6      	ldrb	r6, [r4, r3]
20007336:	2e00      	cmp	r6, #0
20007338:	d100      	bne.n	2000733c <dcd_rp2040_irq+0x2d0>
2000733a:	e6ae      	b.n	2000709a <dcd_rp2040_irq+0x2e>
2000733c:	3302      	adds	r3, #2
2000733e:	5ce2      	ldrb	r2, [r4, r3]
20007340:	2a00      	cmp	r2, #0
20007342:	d100      	bne.n	20007346 <dcd_rp2040_irq+0x2da>
20007344:	e6a9      	b.n	2000709a <dcd_rp2040_irq+0x2e>
20007346:	0020      	movs	r0, r4
20007348:	2200      	movs	r2, #0
2000734a:	3020      	adds	r0, #32
2000734c:	54e2      	strb	r2, [r4, r3]
2000734e:	f000 fa4b 	bl	200077e8 <hw_endpoint_start_next_buffer>
20007352:	e6a2      	b.n	2000709a <dcd_rp2040_irq+0x2e>
20007354:	33b9      	adds	r3, #185	@ 0xb9
20007356:	33ff      	adds	r3, #255	@ 0xff
20007358:	5ce7      	ldrb	r7, [r4, r3]
2000735a:	2f00      	cmp	r7, #0
2000735c:	d100      	bne.n	20007360 <dcd_rp2040_irq+0x2f4>
2000735e:	e6bd      	b.n	200070dc <dcd_rp2040_irq+0x70>
20007360:	3302      	adds	r3, #2
20007362:	5ce2      	ldrb	r2, [r4, r3]
20007364:	2a00      	cmp	r2, #0
20007366:	d000      	beq.n	2000736a <dcd_rp2040_irq+0x2fe>
20007368:	e0c4      	b.n	200074f4 <dcd_rp2040_irq+0x488>
2000736a:	003e      	movs	r6, r7
2000736c:	e6b6      	b.n	200070dc <dcd_rp2040_irq+0x70>
2000736e:	4b18      	ldr	r3, [pc, #96]	@ (200073d0 <dcd_rp2040_irq+0x364>)
20007370:	5ce7      	ldrb	r7, [r4, r3]
20007372:	2f00      	cmp	r7, #0
20007374:	d100      	bne.n	20007378 <dcd_rp2040_irq+0x30c>
20007376:	e6cb      	b.n	20007110 <dcd_rp2040_irq+0xa4>
20007378:	3302      	adds	r3, #2
2000737a:	5ce2      	ldrb	r2, [r4, r3]
2000737c:	2a00      	cmp	r2, #0
2000737e:	d000      	beq.n	20007382 <dcd_rp2040_irq+0x316>
20007380:	e0b0      	b.n	200074e4 <dcd_rp2040_irq+0x478>
20007382:	003e      	movs	r6, r7
20007384:	e6c4      	b.n	20007110 <dcd_rp2040_irq+0xa4>
20007386:	46c0      	nop			@ (mov r8, r8)
20007388:	50110000 	.word	0x50110000
2000738c:	40054000 	.word	0x40054000
20007390:	20008aac 	.word	0x20008aac
20007394:	20008a44 	.word	0x20008a44
20007398:	0000023b 	.word	0x0000023b
2000739c:	0000027b 	.word	0x0000027b
200073a0:	000002bb 	.word	0x000002bb
200073a4:	000002fb 	.word	0x000002fb
200073a8:	0000033b 	.word	0x0000033b
200073ac:	0000037b 	.word	0x0000037b
200073b0:	000003bb 	.word	0x000003bb
200073b4:	000003fb 	.word	0x000003fb
200073b8:	20008eef 	.word	0x20008eef
200073bc:	50113000 	.word	0x50113000
200073c0:	00020010 	.word	0x00020010
200073c4:	50100000 	.word	0x50100000
200073c8:	50112000 	.word	0x50112000
200073cc:	0000027a 	.word	0x0000027a
200073d0:	000002fa 	.word	0x000002fa
200073d4:	4b6b      	ldr	r3, [pc, #428]	@ (20007584 <dcd_rp2040_irq+0x518>)
200073d6:	5ce7      	ldrb	r7, [r4, r3]
200073d8:	2f00      	cmp	r7, #0
200073da:	d100      	bne.n	200073de <dcd_rp2040_irq+0x372>
200073dc:	e689      	b.n	200070f2 <dcd_rp2040_irq+0x86>
200073de:	3302      	adds	r3, #2
200073e0:	5ce2      	ldrb	r2, [r4, r3]
200073e2:	2a00      	cmp	r2, #0
200073e4:	d176      	bne.n	200074d4 <dcd_rp2040_irq+0x468>
200073e6:	003e      	movs	r6, r7
200073e8:	e683      	b.n	200070f2 <dcd_rp2040_irq+0x86>
200073ea:	4b67      	ldr	r3, [pc, #412]	@ (20007588 <dcd_rp2040_irq+0x51c>)
200073ec:	5ce7      	ldrb	r7, [r4, r3]
200073ee:	2f00      	cmp	r7, #0
200073f0:	d100      	bne.n	200073f4 <dcd_rp2040_irq+0x388>
200073f2:	e688      	b.n	20007106 <dcd_rp2040_irq+0x9a>
200073f4:	3302      	adds	r3, #2
200073f6:	5ce2      	ldrb	r2, [r4, r3]
200073f8:	2a00      	cmp	r2, #0
200073fa:	d163      	bne.n	200074c4 <dcd_rp2040_irq+0x458>
200073fc:	003e      	movs	r6, r7
200073fe:	e682      	b.n	20007106 <dcd_rp2040_irq+0x9a>
20007400:	4b62      	ldr	r3, [pc, #392]	@ (2000758c <dcd_rp2040_irq+0x520>)
20007402:	5ce7      	ldrb	r7, [r4, r3]
20007404:	2f00      	cmp	r7, #0
20007406:	d100      	bne.n	2000740a <dcd_rp2040_irq+0x39e>
20007408:	e68c      	b.n	20007124 <dcd_rp2040_irq+0xb8>
2000740a:	3302      	adds	r3, #2
2000740c:	5ce2      	ldrb	r2, [r4, r3]
2000740e:	2a00      	cmp	r2, #0
20007410:	d000      	beq.n	20007414 <dcd_rp2040_irq+0x3a8>
20007412:	e0a3      	b.n	2000755c <dcd_rp2040_irq+0x4f0>
20007414:	4b5e      	ldr	r3, [pc, #376]	@ (20007590 <dcd_rp2040_irq+0x524>)
20007416:	5ce3      	ldrb	r3, [r4, r3]
20007418:	2b02      	cmp	r3, #2
2000741a:	d130      	bne.n	2000747e <dcd_rp2040_irq+0x412>
2000741c:	4b5d      	ldr	r3, [pc, #372]	@ (20007594 <dcd_rp2040_irq+0x528>)
2000741e:	5ce3      	ldrb	r3, [r4, r3]
20007420:	2b00      	cmp	r3, #0
20007422:	d127      	bne.n	20007474 <dcd_rp2040_irq+0x408>
20007424:	4b5c      	ldr	r3, [pc, #368]	@ (20007598 <dcd_rp2040_irq+0x52c>)
20007426:	5ce3      	ldrb	r3, [r4, r3]
20007428:	2b02      	cmp	r3, #2
2000742a:	d000      	beq.n	2000742e <dcd_rp2040_irq+0x3c2>
2000742c:	e68f      	b.n	2000714e <dcd_rp2040_irq+0xe2>
2000742e:	003e      	movs	r6, r7
20007430:	4b5a      	ldr	r3, [pc, #360]	@ (2000759c <dcd_rp2040_irq+0x530>)
20007432:	5ce3      	ldrb	r3, [r4, r3]
20007434:	2b00      	cmp	r3, #0
20007436:	d100      	bne.n	2000743a <dcd_rp2040_irq+0x3ce>
20007438:	e67e      	b.n	20007138 <dcd_rp2040_irq+0xcc>
2000743a:	23ff      	movs	r3, #255	@ 0xff
2000743c:	009b      	lsls	r3, r3, #2
2000743e:	5ce2      	ldrb	r2, [r4, r3]
20007440:	2a00      	cmp	r2, #0
20007442:	d100      	bne.n	20007446 <dcd_rp2040_irq+0x3da>
20007444:	e683      	b.n	2000714e <dcd_rp2040_irq+0xe2>
20007446:	2200      	movs	r2, #0
20007448:	54e2      	strb	r2, [r4, r3]
2000744a:	3b1c      	subs	r3, #28
2000744c:	18e0      	adds	r0, r4, r3
2000744e:	f000 f9cb 	bl	200077e8 <hw_endpoint_start_next_buffer>
20007452:	e67c      	b.n	2000714e <dcd_rp2040_irq+0xe2>
20007454:	4b52      	ldr	r3, [pc, #328]	@ (200075a0 <dcd_rp2040_irq+0x534>)
20007456:	5ce7      	ldrb	r7, [r4, r3]
20007458:	2f00      	cmp	r7, #0
2000745a:	d100      	bne.n	2000745e <dcd_rp2040_irq+0x3f2>
2000745c:	e65d      	b.n	2000711a <dcd_rp2040_irq+0xae>
2000745e:	3302      	adds	r3, #2
20007460:	5ce2      	ldrb	r2, [r4, r3]
20007462:	2a00      	cmp	r2, #0
20007464:	d116      	bne.n	20007494 <dcd_rp2040_irq+0x428>
20007466:	003e      	movs	r6, r7
20007468:	e657      	b.n	2000711a <dcd_rp2040_irq+0xae>
2000746a:	4b4a      	ldr	r3, [pc, #296]	@ (20007594 <dcd_rp2040_irq+0x528>)
2000746c:	5ce3      	ldrb	r3, [r4, r3]
2000746e:	2b00      	cmp	r3, #0
20007470:	d100      	bne.n	20007474 <dcd_rp2040_irq+0x408>
20007472:	e65c      	b.n	2000712e <dcd_rp2040_irq+0xc2>
20007474:	23ef      	movs	r3, #239	@ 0xef
20007476:	009b      	lsls	r3, r3, #2
20007478:	5ce2      	ldrb	r2, [r4, r3]
2000747a:	2a00      	cmp	r2, #0
2000747c:	d175      	bne.n	2000756a <dcd_rp2040_irq+0x4fe>
2000747e:	4b46      	ldr	r3, [pc, #280]	@ (20007598 <dcd_rp2040_irq+0x52c>)
20007480:	5ce3      	ldrb	r3, [r4, r3]
20007482:	2b02      	cmp	r3, #2
20007484:	d000      	beq.n	20007488 <dcd_rp2040_irq+0x41c>
20007486:	e662      	b.n	2000714e <dcd_rp2040_irq+0xe2>
20007488:	4b44      	ldr	r3, [pc, #272]	@ (2000759c <dcd_rp2040_irq+0x530>)
2000748a:	5ce3      	ldrb	r3, [r4, r3]
2000748c:	2b00      	cmp	r3, #0
2000748e:	d100      	bne.n	20007492 <dcd_rp2040_irq+0x426>
20007490:	e65d      	b.n	2000714e <dcd_rp2040_irq+0xe2>
20007492:	e7d2      	b.n	2000743a <dcd_rp2040_irq+0x3ce>
20007494:	2200      	movs	r2, #0
20007496:	54e2      	strb	r2, [r4, r3]
20007498:	3b1c      	subs	r3, #28
2000749a:	18e0      	adds	r0, r4, r3
2000749c:	f000 f9a4 	bl	200077e8 <hw_endpoint_start_next_buffer>
200074a0:	003e      	movs	r6, r7
200074a2:	e63a      	b.n	2000711a <dcd_rp2040_irq+0xae>
200074a4:	0020      	movs	r0, r4
200074a6:	2200      	movs	r2, #0
200074a8:	30a0      	adds	r0, #160	@ 0xa0
200074aa:	54e2      	strb	r2, [r4, r3]
200074ac:	003e      	movs	r6, r7
200074ae:	f000 f99b 	bl	200077e8 <hw_endpoint_start_next_buffer>
200074b2:	e5fc      	b.n	200070ae <dcd_rp2040_irq+0x42>
200074b4:	0020      	movs	r0, r4
200074b6:	2200      	movs	r2, #0
200074b8:	3060      	adds	r0, #96	@ 0x60
200074ba:	54e2      	strb	r2, [r4, r3]
200074bc:	003e      	movs	r6, r7
200074be:	f000 f993 	bl	200077e8 <hw_endpoint_start_next_buffer>
200074c2:	e5ef      	b.n	200070a4 <dcd_rp2040_irq+0x38>
200074c4:	2200      	movs	r2, #0
200074c6:	54e2      	strb	r2, [r4, r3]
200074c8:	3b1c      	subs	r3, #28
200074ca:	18e0      	adds	r0, r4, r3
200074cc:	f000 f98c 	bl	200077e8 <hw_endpoint_start_next_buffer>
200074d0:	003e      	movs	r6, r7
200074d2:	e618      	b.n	20007106 <dcd_rp2040_irq+0x9a>
200074d4:	2200      	movs	r2, #0
200074d6:	54e2      	strb	r2, [r4, r3]
200074d8:	3b1c      	subs	r3, #28
200074da:	18e0      	adds	r0, r4, r3
200074dc:	f000 f984 	bl	200077e8 <hw_endpoint_start_next_buffer>
200074e0:	003e      	movs	r6, r7
200074e2:	e606      	b.n	200070f2 <dcd_rp2040_irq+0x86>
200074e4:	2200      	movs	r2, #0
200074e6:	54e2      	strb	r2, [r4, r3]
200074e8:	3b1c      	subs	r3, #28
200074ea:	18e0      	adds	r0, r4, r3
200074ec:	f000 f97c 	bl	200077e8 <hw_endpoint_start_next_buffer>
200074f0:	003e      	movs	r6, r7
200074f2:	e60d      	b.n	20007110 <dcd_rp2040_irq+0xa4>
200074f4:	0020      	movs	r0, r4
200074f6:	2200      	movs	r2, #0
200074f8:	30a1      	adds	r0, #161	@ 0xa1
200074fa:	30ff      	adds	r0, #255	@ 0xff
200074fc:	54e2      	strb	r2, [r4, r3]
200074fe:	003e      	movs	r6, r7
20007500:	f000 f972 	bl	200077e8 <hw_endpoint_start_next_buffer>
20007504:	e5ea      	b.n	200070dc <dcd_rp2040_irq+0x70>
20007506:	0020      	movs	r0, r4
20007508:	2200      	movs	r2, #0
2000750a:	3021      	adds	r0, #33	@ 0x21
2000750c:	30ff      	adds	r0, #255	@ 0xff
2000750e:	54e2      	strb	r2, [r4, r3]
20007510:	003e      	movs	r6, r7
20007512:	f000 f969 	bl	200077e8 <hw_endpoint_start_next_buffer>
20007516:	e5d5      	b.n	200070c4 <dcd_rp2040_irq+0x58>
20007518:	2200      	movs	r2, #0
2000751a:	54e2      	strb	r2, [r4, r3]
2000751c:	3b1c      	subs	r3, #28
2000751e:	18e0      	adds	r0, r4, r3
20007520:	f000 f962 	bl	200077e8 <hw_endpoint_start_next_buffer>
20007524:	003e      	movs	r6, r7
20007526:	e5e9      	b.n	200070fc <dcd_rp2040_irq+0x90>
20007528:	0020      	movs	r0, r4
2000752a:	2200      	movs	r2, #0
2000752c:	3061      	adds	r0, #97	@ 0x61
2000752e:	30ff      	adds	r0, #255	@ 0xff
20007530:	54e2      	strb	r2, [r4, r3]
20007532:	003e      	movs	r6, r7
20007534:	f000 f958 	bl	200077e8 <hw_endpoint_start_next_buffer>
20007538:	e5ca      	b.n	200070d0 <dcd_rp2040_irq+0x64>
2000753a:	0020      	movs	r0, r4
2000753c:	2200      	movs	r2, #0
2000753e:	30e1      	adds	r0, #225	@ 0xe1
20007540:	30ff      	adds	r0, #255	@ 0xff
20007542:	54e2      	strb	r2, [r4, r3]
20007544:	003e      	movs	r6, r7
20007546:	f000 f94f 	bl	200077e8 <hw_endpoint_start_next_buffer>
2000754a:	e5cd      	b.n	200070e8 <dcd_rp2040_irq+0x7c>
2000754c:	0020      	movs	r0, r4
2000754e:	2200      	movs	r2, #0
20007550:	30e0      	adds	r0, #224	@ 0xe0
20007552:	54e2      	strb	r2, [r4, r3]
20007554:	003e      	movs	r6, r7
20007556:	f000 f947 	bl	200077e8 <hw_endpoint_start_next_buffer>
2000755a:	e5ad      	b.n	200070b8 <dcd_rp2040_irq+0x4c>
2000755c:	2200      	movs	r2, #0
2000755e:	54e2      	strb	r2, [r4, r3]
20007560:	3b1c      	subs	r3, #28
20007562:	18e0      	adds	r0, r4, r3
20007564:	f000 f940 	bl	200077e8 <hw_endpoint_start_next_buffer>
20007568:	e754      	b.n	20007414 <dcd_rp2040_irq+0x3a8>
2000756a:	2200      	movs	r2, #0
2000756c:	54e2      	strb	r2, [r4, r3]
2000756e:	3b1c      	subs	r3, #28
20007570:	18e0      	adds	r0, r4, r3
20007572:	f000 f939 	bl	200077e8 <hw_endpoint_start_next_buffer>
20007576:	e782      	b.n	2000747e <dcd_rp2040_irq+0x412>
20007578:	0031      	movs	r1, r6
2000757a:	480a      	ldr	r0, [pc, #40]	@ (200075a4 <dcd_rp2040_irq+0x538>)
2000757c:	4069      	eors	r1, r5
2000757e:	f7fa fe65 	bl	2000224c <panic>
20007582:	46c0      	nop			@ (mov r8, r8)
20007584:	0000023a 	.word	0x0000023a
20007588:	000002ba 	.word	0x000002ba
2000758c:	0000037a 	.word	0x0000037a
20007590:	000003bb 	.word	0x000003bb
20007594:	000003ba 	.word	0x000003ba
20007598:	000003fb 	.word	0x000003fb
2000759c:	000003fa 	.word	0x000003fa
200075a0:	0000033a 	.word	0x0000033a
200075a4:	20007b7c 	.word	0x20007b7c

200075a8 <prepare_ep_buffer>:
200075a8:	b5f0      	push	{r4, r5, r6, r7, lr}
200075aa:	468c      	mov	ip, r1
200075ac:	8a83      	ldrh	r3, [r0, #20]
200075ae:	8b01      	ldrh	r1, [r0, #24]
200075b0:	0002      	movs	r2, r0
200075b2:	b083      	sub	sp, #12
200075b4:	1c0e      	adds	r6, r1, #0
200075b6:	4299      	cmp	r1, r3
200075b8:	d900      	bls.n	200075bc <prepare_ep_buffer+0x14>
200075ba:	1c1e      	adds	r6, r3, #0
200075bc:	b2b6      	uxth	r6, r6
200075be:	1b9b      	subs	r3, r3, r6
200075c0:	b29c      	uxth	r4, r3
200075c2:	78d3      	ldrb	r3, [r2, #3]
200075c4:	2180      	movs	r1, #128	@ 0x80
200075c6:	0018      	movs	r0, r3
200075c8:	1e45      	subs	r5, r0, #1
200075ca:	41a8      	sbcs	r0, r5
200075cc:	00c9      	lsls	r1, r1, #3
200075ce:	4331      	orrs	r1, r6
200075d0:	0340      	lsls	r0, r0, #13
200075d2:	4308      	orrs	r0, r1
200075d4:	2101      	movs	r1, #1
200075d6:	404b      	eors	r3, r1
200075d8:	70d3      	strb	r3, [r2, #3]
200075da:	7853      	ldrb	r3, [r2, #1]
200075dc:	8294      	strh	r4, [r2, #20]
200075de:	2b00      	cmp	r3, #0
200075e0:	d132      	bne.n	20007648 <prepare_ep_buffer+0xa0>
200075e2:	6911      	ldr	r1, [r2, #16]
200075e4:	2e00      	cmp	r6, #0
200075e6:	d02a      	beq.n	2000763e <prepare_ep_buffer+0x96>
200075e8:	4663      	mov	r3, ip
200075ea:	68d4      	ldr	r4, [r2, #12]
200075ec:	019b      	lsls	r3, r3, #6
200075ee:	18e4      	adds	r4, r4, r3
200075f0:	1e73      	subs	r3, r6, #1
200075f2:	9301      	str	r3, [sp, #4]
200075f4:	2b06      	cmp	r3, #6
200075f6:	d932      	bls.n	2000765e <prepare_ep_buffer+0xb6>
200075f8:	0023      	movs	r3, r4
200075fa:	430b      	orrs	r3, r1
200075fc:	079b      	lsls	r3, r3, #30
200075fe:	d12e      	bne.n	2000765e <prepare_ep_buffer+0xb6>
20007600:	1a63      	subs	r3, r4, r1
20007602:	3b01      	subs	r3, #1
20007604:	2b02      	cmp	r3, #2
20007606:	d92a      	bls.n	2000765e <prepare_ep_buffer+0xb6>
20007608:	2300      	movs	r3, #0
2000760a:	08b7      	lsrs	r7, r6, #2
2000760c:	00bf      	lsls	r7, r7, #2
2000760e:	58cd      	ldr	r5, [r1, r3]
20007610:	50e5      	str	r5, [r4, r3]
20007612:	3304      	adds	r3, #4
20007614:	42bb      	cmp	r3, r7
20007616:	d1fa      	bne.n	2000760e <prepare_ep_buffer+0x66>
20007618:	429e      	cmp	r6, r3
2000761a:	d00e      	beq.n	2000763a <prepare_ep_buffer+0x92>
2000761c:	9d01      	ldr	r5, [sp, #4]
2000761e:	18e4      	adds	r4, r4, r3
20007620:	1aef      	subs	r7, r5, r3
20007622:	18cd      	adds	r5, r1, r3
20007624:	5cc9      	ldrb	r1, [r1, r3]
20007626:	7021      	strb	r1, [r4, #0]
20007628:	9901      	ldr	r1, [sp, #4]
2000762a:	4299      	cmp	r1, r3
2000762c:	d005      	beq.n	2000763a <prepare_ep_buffer+0x92>
2000762e:	786b      	ldrb	r3, [r5, #1]
20007630:	7063      	strb	r3, [r4, #1]
20007632:	2f01      	cmp	r7, #1
20007634:	d001      	beq.n	2000763a <prepare_ep_buffer+0x92>
20007636:	78ab      	ldrb	r3, [r5, #2]
20007638:	70a3      	strb	r3, [r4, #2]
2000763a:	6911      	ldr	r1, [r2, #16]
2000763c:	8a94      	ldrh	r4, [r2, #20]
2000763e:	2380      	movs	r3, #128	@ 0x80
20007640:	1989      	adds	r1, r1, r6
20007642:	021b      	lsls	r3, r3, #8
20007644:	6111      	str	r1, [r2, #16]
20007646:	4318      	orrs	r0, r3
20007648:	2c00      	cmp	r4, #0
2000764a:	d102      	bne.n	20007652 <prepare_ep_buffer+0xaa>
2000764c:	2380      	movs	r3, #128	@ 0x80
2000764e:	01db      	lsls	r3, r3, #7
20007650:	4318      	orrs	r0, r3
20007652:	4663      	mov	r3, ip
20007654:	2b00      	cmp	r3, #0
20007656:	d000      	beq.n	2000765a <prepare_ep_buffer+0xb2>
20007658:	0400      	lsls	r0, r0, #16
2000765a:	b003      	add	sp, #12
2000765c:	bdf0      	pop	{r4, r5, r6, r7, pc}
2000765e:	2300      	movs	r3, #0
20007660:	5ccd      	ldrb	r5, [r1, r3]
20007662:	54e5      	strb	r5, [r4, r3]
20007664:	3301      	adds	r3, #1
20007666:	429e      	cmp	r6, r3
20007668:	d1fa      	bne.n	20007660 <prepare_ep_buffer+0xb8>
2000766a:	e7e6      	b.n	2000763a <prepare_ep_buffer+0x92>

2000766c <sync_ep_buffer>:
2000766c:	6883      	ldr	r3, [r0, #8]
2000766e:	b5f0      	push	{r4, r5, r6, r7, lr}
20007670:	681a      	ldr	r2, [r3, #0]
20007672:	2900      	cmp	r1, #0
20007674:	d000      	beq.n	20007678 <sync_ep_buffer+0xc>
20007676:	0c12      	lsrs	r2, r2, #16
20007678:	7843      	ldrb	r3, [r0, #1]
2000767a:	0592      	lsls	r2, r2, #22
2000767c:	0d95      	lsrs	r5, r2, #22
2000767e:	2b00      	cmp	r3, #0
20007680:	d109      	bne.n	20007696 <sync_ep_buffer+0x2a>
20007682:	8ac3      	ldrh	r3, [r0, #22]
20007684:	18eb      	adds	r3, r5, r3
20007686:	82c3      	strh	r3, [r0, #22]
20007688:	8b03      	ldrh	r3, [r0, #24]
2000768a:	42ab      	cmp	r3, r5
2000768c:	d901      	bls.n	20007692 <sync_ep_buffer+0x26>
2000768e:	2300      	movs	r3, #0
20007690:	8283      	strh	r3, [r0, #20]
20007692:	0028      	movs	r0, r5
20007694:	bdf0      	pop	{r4, r5, r6, r7, pc}
20007696:	6904      	ldr	r4, [r0, #16]
20007698:	2d00      	cmp	r5, #0
2000769a:	d028      	beq.n	200076ee <sync_ep_buffer+0x82>
2000769c:	68c3      	ldr	r3, [r0, #12]
2000769e:	0189      	lsls	r1, r1, #6
200076a0:	1e6f      	subs	r7, r5, #1
200076a2:	46bc      	mov	ip, r7
200076a4:	185e      	adds	r6, r3, r1
200076a6:	2f06      	cmp	r7, #6
200076a8:	d927      	bls.n	200076fa <sync_ep_buffer+0x8e>
200076aa:	3101      	adds	r1, #1
200076ac:	185b      	adds	r3, r3, r1
200076ae:	1ae3      	subs	r3, r4, r3
200076b0:	2b02      	cmp	r3, #2
200076b2:	d922      	bls.n	200076fa <sync_ep_buffer+0x8e>
200076b4:	0023      	movs	r3, r4
200076b6:	4333      	orrs	r3, r6
200076b8:	079b      	lsls	r3, r3, #30
200076ba:	d11e      	bne.n	200076fa <sync_ep_buffer+0x8e>
200076bc:	2300      	movs	r3, #0
200076be:	0e12      	lsrs	r2, r2, #24
200076c0:	0092      	lsls	r2, r2, #2
200076c2:	58f1      	ldr	r1, [r6, r3]
200076c4:	50e1      	str	r1, [r4, r3]
200076c6:	3304      	adds	r3, #4
200076c8:	429a      	cmp	r2, r3
200076ca:	d1fa      	bne.n	200076c2 <sync_ep_buffer+0x56>
200076cc:	4295      	cmp	r5, r2
200076ce:	d00d      	beq.n	200076ec <sync_ep_buffer+0x80>
200076d0:	4663      	mov	r3, ip
200076d2:	1a9f      	subs	r7, r3, r2
200076d4:	18a3      	adds	r3, r4, r2
200076d6:	5cb4      	ldrb	r4, [r6, r2]
200076d8:	18b1      	adds	r1, r6, r2
200076da:	701c      	strb	r4, [r3, #0]
200076dc:	4594      	cmp	ip, r2
200076de:	d005      	beq.n	200076ec <sync_ep_buffer+0x80>
200076e0:	784a      	ldrb	r2, [r1, #1]
200076e2:	705a      	strb	r2, [r3, #1]
200076e4:	2f01      	cmp	r7, #1
200076e6:	d001      	beq.n	200076ec <sync_ep_buffer+0x80>
200076e8:	788a      	ldrb	r2, [r1, #2]
200076ea:	709a      	strb	r2, [r3, #2]
200076ec:	6904      	ldr	r4, [r0, #16]
200076ee:	8ac3      	ldrh	r3, [r0, #22]
200076f0:	1964      	adds	r4, r4, r5
200076f2:	18eb      	adds	r3, r5, r3
200076f4:	82c3      	strh	r3, [r0, #22]
200076f6:	6104      	str	r4, [r0, #16]
200076f8:	e7c6      	b.n	20007688 <sync_ep_buffer+0x1c>
200076fa:	2200      	movs	r2, #0
200076fc:	5cb3      	ldrb	r3, [r6, r2]
200076fe:	54a3      	strb	r3, [r4, r2]
20007700:	3201      	adds	r2, #1
20007702:	4295      	cmp	r5, r2
20007704:	d1fa      	bne.n	200076fc <sync_ep_buffer+0x90>
20007706:	6904      	ldr	r4, [r0, #16]
20007708:	e7f1      	b.n	200076ee <sync_ep_buffer+0x82>
2000770a:	46c0      	nop			@ (mov r8, r8)

2000770c <_hw_endpoint_xfer_sync>:
2000770c:	b510      	push	{r4, lr}
2000770e:	0004      	movs	r4, r0
20007710:	6883      	ldr	r3, [r0, #8]
20007712:	2100      	movs	r1, #0
20007714:	681b      	ldr	r3, [r3, #0]
20007716:	f7ff ffa9 	bl	2000766c <sync_ep_buffer>
2000771a:	6863      	ldr	r3, [r4, #4]
2000771c:	681b      	ldr	r3, [r3, #0]
2000771e:	005b      	lsls	r3, r3, #1
20007720:	d502      	bpl.n	20007728 <_hw_endpoint_xfer_sync+0x1c>
20007722:	8b23      	ldrh	r3, [r4, #24]
20007724:	4283      	cmp	r3, r0
20007726:	d000      	beq.n	2000772a <_hw_endpoint_xfer_sync+0x1e>
20007728:	bd10      	pop	{r4, pc}
2000772a:	2101      	movs	r1, #1
2000772c:	0020      	movs	r0, r4
2000772e:	f7ff ff9d 	bl	2000766c <sync_ep_buffer>
20007732:	e7f9      	b.n	20007728 <_hw_endpoint_xfer_sync+0x1c>

20007734 <e15_is_bulkin_ep>:
20007734:	4b08      	ldr	r3, [pc, #32]	@ (20007758 <e15_is_bulkin_ep+0x24>)
20007736:	6c1a      	ldr	r2, [r3, #64]	@ 0x40
20007738:	2300      	movs	r3, #0
2000773a:	0792      	lsls	r2, r2, #30
2000773c:	d403      	bmi.n	20007746 <e15_is_bulkin_ep+0x12>
2000773e:	7882      	ldrb	r2, [r0, #2]
20007740:	09d2      	lsrs	r2, r2, #7
20007742:	2a01      	cmp	r2, #1
20007744:	d001      	beq.n	2000774a <e15_is_bulkin_ep+0x16>
20007746:	0018      	movs	r0, r3
20007748:	4770      	bx	lr
2000774a:	7ec3      	ldrb	r3, [r0, #27]
2000774c:	3b02      	subs	r3, #2
2000774e:	425a      	negs	r2, r3
20007750:	4153      	adcs	r3, r2
20007752:	b2db      	uxtb	r3, r3
20007754:	e7f7      	b.n	20007746 <e15_is_bulkin_ep+0x12>
20007756:	46c0      	nop			@ (mov r8, r8)
20007758:	50110000 	.word	0x50110000

2000775c <e15_is_critical_frame_period>:
2000775c:	b510      	push	{r4, lr}
2000775e:	f7ff ffe9 	bl	20007734 <e15_is_bulkin_ep>
20007762:	2800      	cmp	r0, #0
20007764:	d00a      	beq.n	2000777c <e15_is_critical_frame_period+0x20>
20007766:	4b06      	ldr	r3, [pc, #24]	@ (20007780 <e15_is_critical_frame_period+0x24>)
20007768:	4a06      	ldr	r2, [pc, #24]	@ (20007784 <e15_is_critical_frame_period+0x28>)
2000776a:	6a9b      	ldr	r3, [r3, #40]	@ 0x28
2000776c:	4906      	ldr	r1, [pc, #24]	@ (20007788 <e15_is_critical_frame_period+0x2c>)
2000776e:	6812      	ldr	r2, [r2, #0]
20007770:	185b      	adds	r3, r3, r1
20007772:	1a9b      	subs	r3, r3, r2
20007774:	2000      	movs	r0, #0
20007776:	22c6      	movs	r2, #198	@ 0xc6
20007778:	429a      	cmp	r2, r3
2000777a:	4140      	adcs	r0, r0
2000777c:	bd10      	pop	{r4, pc}
2000777e:	46c0      	nop			@ (mov r8, r8)
20007780:	40054000 	.word	0x40054000
20007784:	20008a44 	.word	0x20008a44
20007788:	fffffce0 	.word	0xfffffce0

2000778c <hw_endpoint_reset_transfer>:
2000778c:	2300      	movs	r3, #0
2000778e:	7683      	strb	r3, [r0, #26]
20007790:	6143      	str	r3, [r0, #20]
20007792:	6103      	str	r3, [r0, #16]
20007794:	4770      	bx	lr
20007796:	46c0      	nop			@ (mov r8, r8)

20007798 <_hw_endpoint_buffer_control_update32>:
20007798:	b510      	push	{r4, lr}
2000779a:	6883      	ldr	r3, [r0, #8]
2000779c:	2900      	cmp	r1, #0
2000779e:	d001      	beq.n	200077a4 <_hw_endpoint_buffer_control_update32+0xc>
200077a0:	681c      	ldr	r4, [r3, #0]
200077a2:	4021      	ands	r1, r4
200077a4:	2a00      	cmp	r2, #0
200077a6:	d012      	beq.n	200077ce <_hw_endpoint_buffer_control_update32+0x36>
200077a8:	2480      	movs	r4, #128	@ 0x80
200077aa:	00e4      	lsls	r4, r4, #3
200077ac:	4311      	orrs	r1, r2
200077ae:	4222      	tst	r2, r4
200077b0:	d00d      	beq.n	200077ce <_hw_endpoint_buffer_control_update32+0x36>
200077b2:	681a      	ldr	r2, [r3, #0]
200077b4:	4222      	tst	r2, r4
200077b6:	d10c      	bne.n	200077d2 <_hw_endpoint_buffer_control_update32+0x3a>
200077b8:	4a08      	ldr	r2, [pc, #32]	@ (200077dc <_hw_endpoint_buffer_control_update32+0x44>)
200077ba:	400a      	ands	r2, r1
200077bc:	601a      	str	r2, [r3, #0]
200077be:	4a08      	ldr	r2, [pc, #32]	@ (200077e0 <_hw_endpoint_buffer_control_update32+0x48>)
200077c0:	6c12      	ldr	r2, [r2, #64]	@ 0x40
200077c2:	0792      	lsls	r2, r2, #30
200077c4:	d403      	bmi.n	200077ce <_hw_endpoint_buffer_control_update32+0x36>
200077c6:	230c      	movs	r3, #12
200077c8:	3b03      	subs	r3, #3
200077ca:	d2fd      	bcs.n	200077c8 <_hw_endpoint_buffer_control_update32+0x30>
200077cc:	6883      	ldr	r3, [r0, #8]
200077ce:	6019      	str	r1, [r3, #0]
200077d0:	bd10      	pop	{r4, pc}
200077d2:	7881      	ldrb	r1, [r0, #2]
200077d4:	4803      	ldr	r0, [pc, #12]	@ (200077e4 <_hw_endpoint_buffer_control_update32+0x4c>)
200077d6:	f7fa fd39 	bl	2000224c <panic>
200077da:	46c0      	nop			@ (mov r8, r8)
200077dc:	fffffbff 	.word	0xfffffbff
200077e0:	50110000 	.word	0x50110000
200077e4:	20007b90 	.word	0x20007b90

200077e8 <hw_endpoint_start_next_buffer>:
200077e8:	6843      	ldr	r3, [r0, #4]
200077ea:	b570      	push	{r4, r5, r6, lr}
200077ec:	2100      	movs	r1, #0
200077ee:	2580      	movs	r5, #128	@ 0x80
200077f0:	0004      	movs	r4, r0
200077f2:	681e      	ldr	r6, [r3, #0]
200077f4:	f7ff fed8 	bl	200075a8 <prepare_ep_buffer>
200077f8:	4b12      	ldr	r3, [pc, #72]	@ (20007844 <hw_endpoint_start_next_buffer+0x5c>)
200077fa:	016d      	lsls	r5, r5, #5
200077fc:	6c1a      	ldr	r2, [r3, #64]	@ 0x40
200077fe:	4305      	orrs	r5, r0
20007800:	78a3      	ldrb	r3, [r4, #2]
20007802:	0792      	lsls	r2, r2, #30
20007804:	d50e      	bpl.n	20007824 <hw_endpoint_start_next_buffer+0x3c>
20007806:	065b      	lsls	r3, r3, #25
20007808:	d00e      	beq.n	20007828 <hw_endpoint_start_next_buffer+0x40>
2000780a:	4b0f      	ldr	r3, [pc, #60]	@ (20007848 <hw_endpoint_start_next_buffer+0x60>)
2000780c:	401e      	ands	r6, r3
2000780e:	2380      	movs	r3, #128	@ 0x80
20007810:	059b      	lsls	r3, r3, #22
20007812:	4333      	orrs	r3, r6
20007814:	6862      	ldr	r2, [r4, #4]
20007816:	2100      	movs	r1, #0
20007818:	6013      	str	r3, [r2, #0]
2000781a:	0020      	movs	r0, r4
2000781c:	002a      	movs	r2, r5
2000781e:	f7ff ffbb 	bl	20007798 <_hw_endpoint_buffer_control_update32>
20007822:	bd70      	pop	{r4, r5, r6, pc}
20007824:	09db      	lsrs	r3, r3, #7
20007826:	d0f0      	beq.n	2000780a <hw_endpoint_start_next_buffer+0x22>
20007828:	8aa3      	ldrh	r3, [r4, #20]
2000782a:	2b00      	cmp	r3, #0
2000782c:	d0ed      	beq.n	2000780a <hw_endpoint_start_next_buffer+0x22>
2000782e:	2101      	movs	r1, #1
20007830:	0020      	movs	r0, r4
20007832:	f7ff feb9 	bl	200075a8 <prepare_ep_buffer>
20007836:	23a0      	movs	r3, #160	@ 0xa0
20007838:	4a04      	ldr	r2, [pc, #16]	@ (2000784c <hw_endpoint_start_next_buffer+0x64>)
2000783a:	05db      	lsls	r3, r3, #23
2000783c:	4032      	ands	r2, r6
2000783e:	4305      	orrs	r5, r0
20007840:	4313      	orrs	r3, r2
20007842:	e7e7      	b.n	20007814 <hw_endpoint_start_next_buffer+0x2c>
20007844:	50110000 	.word	0x50110000
20007848:	afffffff 	.word	0xafffffff
2000784c:	dfffffff 	.word	0xdfffffff

20007850 <hw_endpoint_xfer_continue>:
20007850:	b570      	push	{r4, r5, r6, lr}
20007852:	7e85      	ldrb	r5, [r0, #26]
20007854:	0004      	movs	r4, r0
20007856:	2d00      	cmp	r5, #0
20007858:	d014      	beq.n	20007884 <hw_endpoint_xfer_continue+0x34>
2000785a:	f7ff ff57 	bl	2000770c <_hw_endpoint_xfer_sync>
2000785e:	8aa3      	ldrh	r3, [r4, #20]
20007860:	2b00      	cmp	r3, #0
20007862:	d101      	bne.n	20007868 <hw_endpoint_xfer_continue+0x18>
20007864:	0028      	movs	r0, r5
20007866:	bd70      	pop	{r4, r5, r6, pc}
20007868:	0020      	movs	r0, r4
2000786a:	f7ff ff77 	bl	2000775c <e15_is_critical_frame_period>
2000786e:	2800      	cmp	r0, #0
20007870:	d003      	beq.n	2000787a <hw_endpoint_xfer_continue+0x2a>
20007872:	2301      	movs	r3, #1
20007874:	2500      	movs	r5, #0
20007876:	7723      	strb	r3, [r4, #28]
20007878:	e7f4      	b.n	20007864 <hw_endpoint_xfer_continue+0x14>
2000787a:	0020      	movs	r0, r4
2000787c:	f7ff ffb4 	bl	200077e8 <hw_endpoint_start_next_buffer>
20007880:	2500      	movs	r5, #0
20007882:	e7ef      	b.n	20007864 <hw_endpoint_xfer_continue+0x14>
20007884:	7881      	ldrb	r1, [r0, #2]
20007886:	4801      	ldr	r0, [pc, #4]	@ (2000788c <hw_endpoint_xfer_continue+0x3c>)
20007888:	f7fa fce0 	bl	2000224c <panic>
2000788c:	20007bb0 	.word	0x20007bb0

20007890 <dcd_event_handler>:
20007890:	b5f0      	push	{r4, r5, r6, r7, lr}
20007892:	4647      	mov	r7, r8
20007894:	46ce      	mov	lr, r9
20007896:	b580      	push	{r7, lr}
20007898:	7843      	ldrb	r3, [r0, #1]
2000789a:	0005      	movs	r5, r0
2000789c:	000f      	movs	r7, r1
2000789e:	b085      	sub	sp, #20
200078a0:	2b06      	cmp	r3, #6
200078a2:	d807      	bhi.n	200078b4 <dcd_event_handler+0x24>
200078a4:	4a68      	ldr	r2, [pc, #416]	@ (20007a48 <dcd_event_handler+0x1b8>)
200078a6:	009b      	lsls	r3, r3, #2
200078a8:	58d3      	ldr	r3, [r2, r3]
200078aa:	469f      	mov	pc, r3
200078ac:	4a67      	ldr	r2, [pc, #412]	@ (20007a4c <dcd_event_handler+0x1bc>)
200078ae:	7813      	ldrb	r3, [r2, #0]
200078b0:	3301      	adds	r3, #1
200078b2:	7013      	strb	r3, [r2, #0]
200078b4:	4b66      	ldr	r3, [pc, #408]	@ (20007a50 <dcd_event_handler+0x1c0>)
200078b6:	681c      	ldr	r4, [r3, #0]
200078b8:	6962      	ldr	r2, [r4, #20]
200078ba:	f3ef 8110 	mrs	r1, PRIMASK
200078be:	b672      	cpsid	i
200078c0:	6813      	ldr	r3, [r2, #0]
200078c2:	2b00      	cmp	r3, #0
200078c4:	d0fc      	beq.n	200078c0 <dcd_event_handler+0x30>
200078c6:	f3bf 8f5f 	dmb	sy
200078ca:	61a1      	str	r1, [r4, #24]
200078cc:	0020      	movs	r0, r4
200078ce:	0029      	movs	r1, r5
200078d0:	f7fe f97e 	bl	20005bd0 <tu_fifo_write>
200078d4:	6962      	ldr	r2, [r4, #20]
200078d6:	69a3      	ldr	r3, [r4, #24]
200078d8:	f3bf 8f5f 	dmb	sy
200078dc:	2100      	movs	r1, #0
200078de:	6011      	str	r1, [r2, #0]
200078e0:	f383 8810 	msr	PRIMASK, r3
200078e4:	2800      	cmp	r0, #0
200078e6:	d104      	bne.n	200078f2 <dcd_event_handler+0x62>
200078e8:	b005      	add	sp, #20
200078ea:	bcc0      	pop	{r6, r7}
200078ec:	46b9      	mov	r9, r7
200078ee:	46b0      	mov	r8, r6
200078f0:	bdf0      	pop	{r4, r5, r6, r7, pc}
200078f2:	003a      	movs	r2, r7
200078f4:	7869      	ldrb	r1, [r5, #1]
200078f6:	7828      	ldrb	r0, [r5, #0]
200078f8:	f7fc fe94 	bl	20004624 <tud_event_hook_cb>
200078fc:	e7f4      	b.n	200078e8 <dcd_event_handler+0x58>
200078fe:	2101      	movs	r1, #1
20007900:	4b54      	ldr	r3, [pc, #336]	@ (20007a54 <dcd_event_handler+0x1c4>)
20007902:	781a      	ldrb	r2, [r3, #0]
20007904:	438a      	bics	r2, r1
20007906:	701a      	strb	r2, [r3, #0]
20007908:	781a      	ldrb	r2, [r3, #0]
2000790a:	3101      	adds	r1, #1
2000790c:	438a      	bics	r2, r1
2000790e:	701a      	strb	r2, [r3, #0]
20007910:	2200      	movs	r2, #0
20007912:	705a      	strb	r2, [r3, #1]
20007914:	781a      	ldrb	r2, [r3, #0]
20007916:	3102      	adds	r1, #2
20007918:	438a      	bics	r2, r1
2000791a:	701a      	strb	r2, [r3, #0]
2000791c:	e7ca      	b.n	200078b4 <dcd_event_handler+0x24>
2000791e:	4b4e      	ldr	r3, [pc, #312]	@ (20007a58 <dcd_event_handler+0x1c8>)
20007920:	2400      	movs	r4, #0
20007922:	001e      	movs	r6, r3
20007924:	781a      	ldrb	r2, [r3, #0]
20007926:	4b4d      	ldr	r3, [pc, #308]	@ (20007a5c <dcd_event_handler+0x1cc>)
20007928:	4698      	mov	r8, r3
2000792a:	4b4d      	ldr	r3, [pc, #308]	@ (20007a60 <dcd_event_handler+0x1d0>)
2000792c:	4699      	mov	r9, r3
2000792e:	e010      	b.n	20007952 <dcd_event_handler+0xc2>
20007930:	464b      	mov	r3, r9
20007932:	681b      	ldr	r3, [r3, #0]
20007934:	0161      	lsls	r1, r4, #5
20007936:	185b      	adds	r3, r3, r1
20007938:	2b00      	cmp	r3, #0
2000793a:	d006      	beq.n	2000794a <dcd_event_handler+0xba>
2000793c:	69db      	ldr	r3, [r3, #28]
2000793e:	2b00      	cmp	r3, #0
20007940:	d003      	beq.n	2000794a <dcd_event_handler+0xba>
20007942:	6869      	ldr	r1, [r5, #4]
20007944:	7828      	ldrb	r0, [r5, #0]
20007946:	4798      	blx	r3
20007948:	7832      	ldrb	r2, [r6, #0]
2000794a:	3401      	adds	r4, #1
2000794c:	b2e4      	uxtb	r4, r4
2000794e:	4294      	cmp	r4, r2
20007950:	d817      	bhi.n	20007982 <dcd_event_handler+0xf2>
20007952:	42a2      	cmp	r2, r4
20007954:	d8ec      	bhi.n	20007930 <dcd_event_handler+0xa0>
20007956:	1aa3      	subs	r3, r4, r2
20007958:	015b      	lsls	r3, r3, #5
2000795a:	4443      	add	r3, r8
2000795c:	e7ee      	b.n	2000793c <dcd_event_handler+0xac>
2000795e:	4b3d      	ldr	r3, [pc, #244]	@ (20007a54 <dcd_event_handler+0x1c4>)
20007960:	781a      	ldrb	r2, [r3, #0]
20007962:	07d2      	lsls	r2, r2, #31
20007964:	d5c0      	bpl.n	200078e8 <dcd_event_handler+0x58>
20007966:	2104      	movs	r1, #4
20007968:	781a      	ldrb	r2, [r3, #0]
2000796a:	430a      	orrs	r2, r1
2000796c:	701a      	strb	r2, [r3, #0]
2000796e:	e7a1      	b.n	200078b4 <dcd_event_handler+0x24>
20007970:	4b38      	ldr	r3, [pc, #224]	@ (20007a54 <dcd_event_handler+0x1c4>)
20007972:	781a      	ldrb	r2, [r3, #0]
20007974:	07d2      	lsls	r2, r2, #31
20007976:	d5b7      	bpl.n	200078e8 <dcd_event_handler+0x58>
20007978:	2104      	movs	r1, #4
2000797a:	781a      	ldrb	r2, [r3, #0]
2000797c:	438a      	bics	r2, r1
2000797e:	701a      	strb	r2, [r3, #0]
20007980:	e798      	b.n	200078b4 <dcd_event_handler+0x24>
20007982:	4a34      	ldr	r2, [pc, #208]	@ (20007a54 <dcd_event_handler+0x1c4>)
20007984:	7813      	ldrb	r3, [r2, #0]
20007986:	4690      	mov	r8, r2
20007988:	0011      	movs	r1, r2
2000798a:	075b      	lsls	r3, r3, #29
2000798c:	d528      	bpl.n	200079e0 <dcd_event_handler+0x150>
2000798e:	7813      	ldrb	r3, [r2, #0]
20007990:	2204      	movs	r2, #4
20007992:	ac01      	add	r4, sp, #4
20007994:	4393      	bics	r3, r2
20007996:	700b      	strb	r3, [r1, #0]
20007998:	0020      	movs	r0, r4
2000799a:	2100      	movs	r1, #0
2000799c:	3208      	adds	r2, #8
2000799e:	f7fc fa93 	bl	20003ec8 <__wrap_memset>
200079a2:	782b      	ldrb	r3, [r5, #0]
200079a4:	7023      	strb	r3, [r4, #0]
200079a6:	2305      	movs	r3, #5
200079a8:	7063      	strb	r3, [r4, #1]
200079aa:	4b29      	ldr	r3, [pc, #164]	@ (20007a50 <dcd_event_handler+0x1c0>)
200079ac:	681b      	ldr	r3, [r3, #0]
200079ae:	0018      	movs	r0, r3
200079b0:	695a      	ldr	r2, [r3, #20]
200079b2:	f3ef 8110 	mrs	r1, PRIMASK
200079b6:	b672      	cpsid	i
200079b8:	6813      	ldr	r3, [r2, #0]
200079ba:	2b00      	cmp	r3, #0
200079bc:	d0fc      	beq.n	200079b8 <dcd_event_handler+0x128>
200079be:	f3bf 8f5f 	dmb	sy
200079c2:	0006      	movs	r6, r0
200079c4:	6181      	str	r1, [r0, #24]
200079c6:	0021      	movs	r1, r4
200079c8:	f7fe f902 	bl	20005bd0 <tu_fifo_write>
200079cc:	6972      	ldr	r2, [r6, #20]
200079ce:	69b3      	ldr	r3, [r6, #24]
200079d0:	f3bf 8f5f 	dmb	sy
200079d4:	2100      	movs	r1, #0
200079d6:	6011      	str	r1, [r2, #0]
200079d8:	f383 8810 	msr	PRIMASK, r3
200079dc:	2800      	cmp	r0, #0
200079de:	d12c      	bne.n	20007a3a <dcd_event_handler+0x1aa>
200079e0:	4643      	mov	r3, r8
200079e2:	78db      	ldrb	r3, [r3, #3]
200079e4:	07db      	lsls	r3, r3, #31
200079e6:	d400      	bmi.n	200079ea <dcd_event_handler+0x15a>
200079e8:	e77e      	b.n	200078e8 <dcd_event_handler+0x58>
200079ea:	782b      	ldrb	r3, [r5, #0]
200079ec:	ac01      	add	r4, sp, #4
200079ee:	7023      	strb	r3, [r4, #0]
200079f0:	2303      	movs	r3, #3
200079f2:	7063      	strb	r3, [r4, #1]
200079f4:	686b      	ldr	r3, [r5, #4]
200079f6:	6063      	str	r3, [r4, #4]
200079f8:	4b15      	ldr	r3, [pc, #84]	@ (20007a50 <dcd_event_handler+0x1c0>)
200079fa:	681d      	ldr	r5, [r3, #0]
200079fc:	696a      	ldr	r2, [r5, #20]
200079fe:	f3ef 8110 	mrs	r1, PRIMASK
20007a02:	b672      	cpsid	i
20007a04:	6813      	ldr	r3, [r2, #0]
20007a06:	2b00      	cmp	r3, #0
20007a08:	d0fc      	beq.n	20007a04 <dcd_event_handler+0x174>
20007a0a:	f3bf 8f5f 	dmb	sy
20007a0e:	61a9      	str	r1, [r5, #24]
20007a10:	0028      	movs	r0, r5
20007a12:	0021      	movs	r1, r4
20007a14:	f7fe f8dc 	bl	20005bd0 <tu_fifo_write>
20007a18:	696a      	ldr	r2, [r5, #20]
20007a1a:	69ab      	ldr	r3, [r5, #24]
20007a1c:	f3bf 8f5f 	dmb	sy
20007a20:	2100      	movs	r1, #0
20007a22:	6011      	str	r1, [r2, #0]
20007a24:	f383 8810 	msr	PRIMASK, r3
20007a28:	2800      	cmp	r0, #0
20007a2a:	d100      	bne.n	20007a2e <dcd_event_handler+0x19e>
20007a2c:	e75c      	b.n	200078e8 <dcd_event_handler+0x58>
20007a2e:	003a      	movs	r2, r7
20007a30:	7861      	ldrb	r1, [r4, #1]
20007a32:	7820      	ldrb	r0, [r4, #0]
20007a34:	f7fc fdf6 	bl	20004624 <tud_event_hook_cb>
20007a38:	e756      	b.n	200078e8 <dcd_event_handler+0x58>
20007a3a:	003a      	movs	r2, r7
20007a3c:	7861      	ldrb	r1, [r4, #1]
20007a3e:	7820      	ldrb	r0, [r4, #0]
20007a40:	f7fc fdf0 	bl	20004624 <tud_event_hook_cb>
20007a44:	e7cc      	b.n	200079e0 <dcd_event_handler+0x150>
20007a46:	46c0      	nop			@ (mov r8, r8)
20007a48:	20007e10 	.word	0x20007e10
20007a4c:	20008ef0 	.word	0x20008ef0
20007a50:	2000880c 	.word	0x2000880c
20007a54:	200087b4 	.word	0x200087b4
20007a58:	20008eee 	.word	0x20008eee
20007a5c:	20007e2c 	.word	0x20007e2c
20007a60:	200086d0 	.word	0x200086d0
20007a64:	74737953 	.word	0x74737953
20007a68:	63206d65 	.word	0x63206d65
20007a6c:	6b636f6c 	.word	0x6b636f6c
20007a70:	20666f20 	.word	0x20666f20
20007a74:	6b207525 	.word	0x6b207525
20007a78:	63207a48 	.word	0x63207a48
20007a7c:	6f6e6e61 	.word	0x6f6e6e61
20007a80:	65622074 	.word	0x65622074
20007a84:	61786520 	.word	0x61786520
20007a88:	796c7463 	.word	0x796c7463
20007a8c:	68636120 	.word	0x68636120
20007a90:	65766569 	.word	0x65766569
20007a94:	00000064 	.word	0x00000064
20007a98:	6973754d 	.word	0x6973754d
20007a9c:	68542063 	.word	0x68542063
20007aa0:	20676e69 	.word	0x20676e69
20007aa4:	75646f4d 	.word	0x75646f4d
20007aa8:	0072616c 	.word	0x0072616c
20007aac:	646c6957 	.word	0x646c6957
20007ab0:	62655020 	.word	0x62655020
20007ab4:	20656c62 	.word	0x20656c62
20007ab8:	4944494d 	.word	0x4944494d
20007abc:	00000000 	.word	0x00000000
20007ac0:	646c6957 	.word	0x646c6957
20007ac4:	62626550 	.word	0x62626550
20007ac8:	494d656c 	.word	0x494d656c
20007acc:	00004944 	.word	0x00004944
20007ad0:	646c6957 	.word	0x646c6957
20007ad4:	62655020 	.word	0x62655020
20007ad8:	20656c62 	.word	0x20656c62
20007adc:	4944494d 	.word	0x4944494d
20007ae0:	726f5020 	.word	0x726f5020
20007ae4:	00000074 	.word	0x00000074
20007ae8:	2a2a2a0a 	.word	0x2a2a2a0a
20007aec:	4e415020 	.word	0x4e415020
20007af0:	2a204349 	.word	0x2a204349
20007af4:	000a2a2a 	.word	0x000a2a2a
20007af8:	0000000a 	.word	0x0000000a
20007afc:	73206f4e 	.word	0x73206f4e
20007b00:	6c6e6970 	.word	0x6c6e6970
20007b04:	736b636f 	.word	0x736b636f
20007b08:	65726120 	.word	0x65726120
20007b0c:	61766120 	.word	0x61766120
20007b10:	62616c69 	.word	0x62616c69
20007b14:	0000656c 	.word	0x0000656c
20007b18:	64726148 	.word	0x64726148
20007b1c:	65726177 	.word	0x65726177
20007b20:	616c6120 	.word	0x616c6120
20007b24:	25206d72 	.word	0x25206d72
20007b28:	6c612064 	.word	0x6c612064
20007b2c:	64616572 	.word	0x64616572
20007b30:	6c632079 	.word	0x6c632079
20007b34:	656d6961 	.word	0x656d6961
20007b38:	00000064 	.word	0x00000064
20007b3c:	64726148 	.word	0x64726148
20007b40:	73736120 	.word	0x73736120
20007b44:	00747265 	.word	0x00747265
20007b48:	656c6552 	.word	0x656c6552
20007b4c:	00657361 	.word	0x00657361
20007b50:	746f6f62 	.word	0x746f6f62
20007b54:	32775f32 	.word	0x32775f32
20007b58:	38307135 	.word	0x38307135
20007b5c:	00000030 	.word	0x00000030
20007b60:	2e322e32 	.word	0x2e322e32
20007b64:	00000030 	.word	0x00000030
20007b68:	6f636970 	.word	0x6f636970
20007b6c:	00000000 	.word	0x00000000
20007b70:	206e754a 	.word	0x206e754a
20007b74:	32203531 	.word	0x32203531
20007b78:	00363230 	.word	0x00363230
20007b7c:	61686e55 	.word	0x61686e55
20007b80:	656c646e 	.word	0x656c646e
20007b84:	52492064 	.word	0x52492064
20007b88:	78302051 	.word	0x78302051
20007b8c:	000a7825 	.word	0x000a7825
20007b90:	25207065 	.word	0x25207065
20007b94:	20583230 	.word	0x20583230
20007b98:	20736177 	.word	0x20736177
20007b9c:	65726c61 	.word	0x65726c61
20007ba0:	20796461 	.word	0x20796461
20007ba4:	69617661 	.word	0x69617661
20007ba8:	6c62616c 	.word	0x6c62616c
20007bac:	00000065 	.word	0x00000065
20007bb0:	276e6143 	.word	0x276e6143
20007bb4:	6f632074 	.word	0x6f632074
20007bb8:	6e69746e 	.word	0x6e69746e
20007bbc:	78206575 	.word	0x78206575
20007bc0:	20726566 	.word	0x20726566
20007bc4:	69206e6f 	.word	0x69206e6f
20007bc8:	7463616e 	.word	0x7463616e
20007bcc:	20657669 	.word	0x20657669
20007bd0:	25207065 	.word	0x25207065
20007bd4:	00583230 	.word	0x00583230
20007bd8:	0044454c 	.word	0x0044454c
20007bdc:	44206f4e 	.word	0x44206f4e
20007be0:	6320414d 	.word	0x6320414d
20007be4:	6e6e6168 	.word	0x6e6e6168
20007be8:	20736c65 	.word	0x20736c65
20007bec:	20657261 	.word	0x20657261
20007bf0:	69617661 	.word	0x69617661
20007bf4:	6c62616c 	.word	0x6c62616c
20007bf8:	00000065 	.word	0x00000065

20007bfc <_ZTV12ComputerCard>:
	...

20007c08 <_ZTV10WildPebble>:
	...
20007c10:	2000111d                                ... 

20007c14 <_ZN10WildPebble18mutationResistanceE>:
20007c14:	00000001 00000004 00000003 00000005     ................
20007c24:	00000001 00000005 00000003 00000004     ................
20007c34:	00000001 00000004 00000003 00000005     ................
20007c44:	00000001 00000005 00000003 00000004     ................

20007c54 <_ZN10WildPebble7kScalesE>:
20007c54:	00000000 00000003 00000005 00000007     ................
20007c64:	0000000a 00000000 00000002 00000005     ................
20007c74:	00000007 0000000a 00000000 00000002     ................
20007c84:	00000004 00000007 00000009 00000000     ................
20007c94:	00000005 00000007 0000000a 0000000c     ................

20007ca4 <_ZN12ComputerCard4ledsE>:
20007ca4:	0d0c0b0a 00000f0e                       ........

20007cac <__compound_literal.0>:
20007cac:	00000409                                ....

20007cb0 <desc_configuration>:
20007cb0:	00650209 80000102 00040932 01010000     ..e.....2.......
20007cc0:	24090400 09010001 09010100 02000104     ...$............
20007cd0:	00000301 00012407 06004101 01010224     .....$...A..$...
20007ce0:	02240600 09000202 03010324 00010201     ..$.....$.......
20007cf0:	02032409 01010104 01050900 00004002     .$...........@..
20007d00:	25050000 09010101 40028105 00000000     ...%.......@....
20007d10:	01012505 00000003                       .%......

20007d18 <desc_device>:
20007d18:	02000112 400102ef 00c02e8a 02010100     .......@........
20007d28:	00000103                                ....

20007d2c <__bi_84>:
20007d2c:	50520006 4275f0d3 20007b48              ..RP..uBH{. 

20007d38 <__bi_78>:
20007d38:	50520006 7f8882e1 20007b50              ..RP....P{. 

20007d44 <__bi_54>:
20007d44:	50520006 5360b3ab 20007b60              ..RP..`S`{. 

20007d50 <__bi_48>:
20007d50:	50520006 b63cffbb 20007b68              ..RP..<.h{. 

20007d5c <__bi_42>:
20007d5c:	50520006 02031c86 20007ac0              ..RP.....z. 

20007d68 <__bi_34>:
20007d68:	50520006 9da22254 20007b70              ..RPT"..p{. 

20007d74 <__bi_26>:
20007d74:	50520005 68f465de 10008164              ..RP.e.hd...

20007d80 <crlf_str.0>:
20007d80:	00000a0d 2000475a 200048c0 20004948     ....ZG. .H. HI. 
20007d90:	20004898 200048aa 20004888 200047fa     .H. .H. .H. .G. 
20007da0:	200047a6 2000479a 20004c64 20004c4a     .G. .G. dL. JL. 
20007db0:	20004a34 20004c84 20004a34 20004c32     4J. .L. 4J. 2L. 
20007dc0:	20004c1e 20004a34 20004c0a 20004b1c     .L. 4J. .L. .K. 
20007dd0:	20004a34 20004ee2 20004ed4 20004ec8     4J. .N. .N. .N. 
20007de0:	20004a34 20004a34 20004eb2 20004ed4     4J. 4J. .N. .N. 
20007df0:	20004a34 20004a34 20004a34 20004a34     4J. 4J. 4J. 4J. 
20007e00:	20004a34 20004a34 20004a34 20004e6e     4J. 4J. 4J. nN. 
20007e10:	200078b4 200078b4 200078fe 2000791e     .x. .x. .x. .y. 
20007e20:	2000795e 20007970 200078ac              ^y. py. .x. 

20007e2c <_usbd_driver>:
20007e2c:	00000000 20005535 20005591 200055c1     ....5U. .U. .U. 
20007e3c:	200055e5 20005709 2000570d 00000000     .U. .W. .W. ....

20007e4c <__bi_153.0>:
20007e4c:	50520009 02000000 20007bd8              ..RP.....{. 

20007e58 <_ZZN12ComputerCard10BufferFullEvE14startupCounter>:
20007e58:	00000008                                ....

20007e5c <_ZZN12ComputerCard15next_norm_probeEvE8lcg_seed>:
20007e5c:	00000001                                ....

20007e60 <_ZN12ComputerCard7cvValueE>:
20007e60:	00040000 00040000                       ........

20007e68 <string_desc_arr>:
20007e68:	20007cac 20007a98 20007aac 20007ac0     .|. .z. .z. .z. 
20007e78:	20007ad0                                .z. 

20007e7c <striped_spin_lock_num>:
20007e7c:	00000010                                ....

20007e80 <irq_handler_chain_slots>:
20007e80:	00000000 	.word	0x00000000
20007e84:	00010000 	.word	0x00010000
	...
20007e90:	00020000 	.word	0x00020000
	...
20007e9c:	00030000 	.word	0x00030000
	...
20007ea8:	00ff0000 	.word	0x00ff0000
20007eac:	00000000 	.word	0x00000000

20007eb0 <irq_handler_chain_first_slot>:
20007eb0:	b501      	push	{r0, lr}
20007eb2:	6848      	ldr	r0, [r1, #4]
20007eb4:	3101      	adds	r1, #1
20007eb6:	468e      	mov	lr, r1
20007eb8:	4700      	bx	r0

20007eba <irq_handler_chain_remove_tail>:
20007eba:	4670      	mov	r0, lr
20007ebc:	3809      	subs	r0, #9
20007ebe:	4901      	ldr	r1, [pc, #4]	@ (20007ec4 <irq_handler_chain_remove_tail+0xa>)
20007ec0:	4788      	blx	r1
20007ec2:	bd01      	pop	{r0, pc}
20007ec4:	2000283d 	.word	0x2000283d

20007ec8 <default_alarm_pool>:
	...
20007edc:	20008320                                 .. 

20007ee0 <aeabi_bits_funcs>:
20007ee0:	00003350 	.word	0x00003350
20007ee4:	0000334c 	.word	0x0000334c
20007ee8:	00003354 	.word	0x00003354
20007eec:	00003352 	.word	0x00003352

20007ef0 <aeabi_bits_funcs_end>:
20007ef0:	0000534d 	.word	0x0000534d
20007ef4:	0000434d 	.word	0x0000434d
20007ef8:	00003453 	.word	0x00003453
20007efc:	00003443 	.word	0x00003443

20007f00 <_usbd_qdef>:
20007f00:	20008810 000c0010 00000000 00000000     ... ............
	...

20007f1c <_usbd_rhport>:
20007f1c:	000000ff                                ....

20007f20 <i2c0_inst>:
20007f20:	40044000 00000000                       .@.@....

20007f28 <malloc_mutex>:
	...

20007f30 <print_mutex>:
	...

20007f38 <__pre_init_runtime_init_early_resets>:
20007f38:	200038ed                                .8. 

20007f3c <__pre_init_runtime_init_usb_power_down>:
20007f3c:	20003919 20003b01 20003eb9 20003bad     .9. .;. .>. .;. 
20007f4c:	20003e0d                                .>. 

20007f50 <__pre_init_runtime_init_clocks>:
20007f50:	20003a29                                ):. 

20007f54 <__pre_init_runtime_init_post_clock_resets>:
20007f54:	20003935                                59. 

20007f58 <__pre_init_runtime_init_rp2040_gpio_ie_disable>:
20007f58:	20003955                                U9. 

20007f5c <__pre_init_runtime_init_spin_locks_reset>:
20007f5c:	20003969                                i9. 

20007f60 <__pre_init_runtime_init_mutex>:
20007f60:	20002901                                .). 

20007f64 <__pre_init_runtime_init_install_ram_vector_table>:
20007f64:	20003971                                q9. 

20007f68 <__pre_init_runtime_init_default_alarm_pool>:
20007f68:	20002cad                                .,. 

20007f6c <__pre_init_first_per_core_initializer>:
20007f6c:	2000388d                                .8. 

20007f70 <__pre_init_runtime_init_per_core_irq_priorities>:
20007f70:	200023a9                                .#. 

20007f74 <__init_array_start>:
20007f74:	200041bd 	.word	0x200041bd

20007f78 <__frame_dummy_init_array_entry>:
20007f78:	200000ed 20001f11                       ... ... 
